 lwip_image

 Timestamp is 573b34f0 (Tue May 17 22:12:48 2016)

 Preferred load address is 0000000180000000

 Start         Length     Name                   Class
 0001:00000000 000001e0H .text                   CODE
 0001:000001e0 00000020H .text$di                CODE
 0001:00000200 0002f2e0H .text$mn                CODE
 0001:0002f4e0 00000020H .text$mn$00             CODE
 0001:0002f500 00001fa0H .text$x                 CODE
 0001:000314a0 000000d1H .text$yd                CODE
 0002:00000000 00000300H .idata$5                DATA
 0002:00000300 00000010H .00cfg                  DATA
 0002:00000310 00000008H .CRT$XCA                DATA
 0002:00000318 00000010H .CRT$XCU                DATA
 0002:00000328 00000008H .CRT$XCZ                DATA
 0002:00000330 00000008H .CRT$XIA                DATA
 0002:00000338 00000020H .CRT$XIC                DATA
 0002:00000358 00000008H .CRT$XIZ                DATA
 0002:00000360 00000008H .CRT$XLA                DATA
 0002:00000368 00000008H .CRT$XLZ                DATA
 0002:00000370 00000008H .CRT$XPA                DATA
 0002:00000378 00000010H .CRT$XPX                DATA
 0002:00000388 00000008H .CRT$XPXA               DATA
 0002:00000390 00000008H .CRT$XPZ                DATA
 0002:00000398 00000008H .CRT$XTA                DATA
 0002:000003a0 00000010H .CRT$XTZ                DATA
 0002:000003b0 0001a718H .rdata                  DATA
 0002:0001aac8 00000028H .rdata$T                DATA
 0002:0001aaf0 00000408H .rdata$r                DATA
 0002:0001aef8 00000010H .rdata$zETW0            DATA
 0002:0001af08 00000077H .rdata$zETW1            DATA
 0002:0001af7f 0000002cH .rdata$zETW2            DATA
 0002:0001afab 00000001H .rdata$zETW9            DATA
 0002:0001afac 000004fcH .rdata$zzzdbg           DATA
 0002:0001b4a8 00000008H .rtc$IAA                DATA
 0002:0001b4b0 00000008H .rtc$IZZ                DATA
 0002:0001b4b8 00000008H .rtc$TAA                DATA
 0002:0001b4c0 00000010H .rtc$TZZ                DATA
 0002:0001b4d0 00003c18H .xdata                  DATA
 0002:0001f0e8 000003ccH .xdata$x                DATA
 0002:0001f4b4 00000020H .didat$2                DATA
 0002:0001f4d4 00000024H .didat$3                DATA
 0002:0001f4f8 000001c0H .didat$4                DATA
 0002:0001f6b8 00000e30H .didat$6                DATA
 0002:000204e8 000001c8H .didat$7                DATA
 0002:000206b0 00000058H .edata                  DATA
 0002:00020708 0000003cH .idata$2                DATA
 0002:00020744 00000014H .idata$3                DATA
 0002:00020758 00000300H .idata$4                DATA
 0002:00020a58 000006e4H .idata$6                DATA
 0003:00000000 00000ae0H .data                   DATA
 0003:00000ae0 00000258H .data$r                 DATA
 0003:00000d38 000001c8H .didat$5                DATA
 0003:00000f00 00001474H .bss                    DATA
 0004:00000000 00002508H .pdata                  DATA
 0005:00000000 00000084H .gfids$x                DATA
 0005:00000084 00000068H .gfids$y                DATA
 0006:00000000 00000004H .tls                    DATA
 0006:00000004 00000004H .tls$                   DATA
 0006:00000008 00000001H .tls$ZZZ                DATA
 0007:00000000 00000060H .rsrc$01                DATA
 0007:00000060 00000180H .rsrc$02                DATA

  Address         Publics by Value              Rva+Base               Lib:Object

 0000:00000000       __dynamic_value_reloc_table 0000000000000000     <absolute>
 0000:00000000       __guard_iat_count          0000000000000000     <absolute>
 0000:00000000       __guard_iat_table          0000000000000000     <absolute>
 0000:00000000       __guard_longjmp_table      0000000000000000     <absolute>
 0000:00000000       __guard_longjmp_count      0000000000000000     <absolute>
 0000:00000000       __guard_fids_count         0000000000000000     <absolute>
 0000:00000000       ___safe_se_handler_table   0000000000000000     <absolute>
 0000:00000000       ___safe_se_handler_count   0000000000000000     <absolute>
 0000:00000000       __guard_fids_table         0000000000000000     <absolute>
 0000:00000100       __guard_flags              0000000000000100     <absolute>
 0000:00000000       __ImageBase                0000000180000000     <linker-defined>
 0001:00000000       ?TraceLoggingRegister@__vcrt_trace_logging_provider@@YAJPEBU_TlgProvider_t@1@PEBU_GUID@@P6AX1KE_K2PEAU_EVENT_FILTER_DESCRIPTOR@@PEAX@Z4@Z 0000000180001000 f i libvcruntime:telemetry.obj
 0001:0000007c       ?_TlgEnableCallback@__vcrt_trace_logging_provider@@YAXPEBU_GUID@@KE_K1PEAU_EVENT_FILTER_DESCRIPTOR@@PEAX@Z 000000018000107c f i libvcruntime:telemetry.obj
 0001:00000140       ?_TlgWrite@__vcrt_trace_logging_provider@@YAJPEBU_TlgProvider_t@1@PEFBXPEBU_GUID@@2IPEAU_EVENT_DATA_DESCRIPTOR@@@Z 0000000180001140 f i libvcruntime:telemetry.obj
 0001:00000200       ?InitAll@@YAXV?$Local@VObject@v8@@@v8@@@Z 0000000180001200 f   init.obj
 0001:00000220       ??1?$CImg@M@cimg_library@@QEAA@XZ 0000000180001220 f i resize_worker.obj
 0001:00000220       ??1?$CImg@I@cimg_library@@QEAA@XZ 0000000180001220 f i resize_worker.obj
 0001:00000220       ??1?$CImg@K@cimg_library@@QEAA@XZ 0000000180001220 f i resize_worker.obj
 0001:00000220       ??1?$CImg@D@cimg_library@@QEAA@XZ 0000000180001220 f i init.obj
 0001:00000220       ??1?$CImg@E@cimg_library@@QEAA@XZ 0000000180001220 f i image.obj
 0001:00000230       __local_stdio_printf_options 0000000180001230 f i image.obj
 0001:00000240       fprintf                    0000000180001240 f i image.obj
 0001:00000290       ??0exception@stdext@@QEAA@AEBV01@@Z 0000000180001290 f i image.obj
 0001:000002b0       ??1exception@stdext@@UEAA@XZ 00000001800012b0 f i image.obj
 0001:000002c0       ?what@exception@stdext@@UEBAPEBDXZ 00000001800012c0 f i image.obj
 0001:000002e0       _guard_check_icall_nop     00000001800012e0 f i LIBCMT:guard_support.obj
 0001:000002e0       __except_validate_context_record 00000001800012e0 f i libvcruntime:jbcxrval.obj
 0001:000002e0       ?_Doraise@exception@stdext@@MEBAXXZ 00000001800012e0 f i image.obj
 0001:000002f0       ??_Gexception@stdext@@UEAAPEAXI@Z 00000001800012f0 f i image.obj
 0001:000002f0       ??_Eexception@stdext@@UEAAPEAXI@Z 00000001800012f0 f i * CIL library *:* CIL module *
 0001:00000320       ??1ObjectWrap@node@@UEAA@XZ 0000000180001320 f i image.obj
 0001:000003a0       ?Wrap@ObjectWrap@node@@IEAAXV?$Local@VObject@v8@@@v8@@@Z 00000001800013a0 f i image.obj
 0001:00000470       ?Ref@ObjectWrap@node@@MEAAXXZ 0000000180001470 f i image.obj
 0001:000004b0       ?Unref@ObjectWrap@node@@MEAAXXZ 00000001800014b0 f i image.obj
 0001:00000560       ?WeakCallback@ObjectWrap@node@@CAXAEBV?$WeakCallbackData@VObject@v8@@VObjectWrap@node@@@v8@@@Z 0000000180001560 f i image.obj
 0001:00000680       ??_EObjectWrap@node@@UEAAPEAXI@Z 0000000180001680 f i * CIL library *:* CIL module *
 0001:00000680       ??_GObjectWrap@node@@UEAAPEAXI@Z 0000000180001680 f i image.obj
 0001:00000770       ?New@?$Factory@VFunctionTemplate@v8@@@imp@Nan@@SA?AV?$Local@VFunctionTemplate@v8@@@v8@@P6AXAEBV?$FunctionCallbackInfo@VValue@v8@@@3@@ZV?$Local@VValue@v8@@@5@V?$Local@VSignature@v8@@@5@@Z 0000000180001770 f i image.obj
 0001:00000900       ??1EscapableHandleScope@Nan@@QEAA@XZ 0000000180001900 f i image.obj
 0001:00000900       ??1HandleScope@Nan@@QEAA@XZ 0000000180001900 f i image.obj
 0001:00000910       ??0Callback@Nan@@QEAA@AEBV?$Local@VFunction@v8@@@v8@@@Z 0000000180001910 f i image.obj
 0001:00000a30       ??1?$Persistent@VObject@v8@@V?$NonCopyablePersistentTraits@VObject@v8@@@2@@Nan@@QEAA@XZ 0000000180001a30 f i image.obj
 0001:00000a50       ?AsyncExecute@Nan@@YAXPEAUuv_work_s@@@Z 0000000180001a50 f i image.obj
 0001:00000a60       ?AsyncExecuteComplete@Nan@@YAXPEAUuv_work_s@@@Z 0000000180001a60 f i image.obj
 0001:00000aa0       ?_snprintf@cimg@cimg_library@@YAHQEAD_KQEBDZZ 0000000180001aa0 f i image.obj
 0001:00000b00       ?_vsnprintf@cimg@cimg_library@@YAHQEAD_KQEBDPEAD@Z 0000000180001b00 f i image.obj
 0001:00000bd0       ??0CImgException@cimg_library@@QEAA@AEBU01@@Z 0000000180001bd0 f i image.obj
 0001:00000c40       ??1CImgException@cimg_library@@UEAA@XZ 0000000180001c40 f i image.obj
 0001:00000c40       ??1CImgIOException@cimg_library@@UEAA@XZ 0000000180001c40 f i image.obj
 0001:00000c40       ??1CImgInstanceException@cimg_library@@UEAA@XZ 0000000180001c40 f i image.obj
 0001:00000c40       ??1CImgArgumentException@cimg_library@@UEAA@XZ 0000000180001c40 f i image.obj
 0001:00000c70       ?what@CImgException@cimg_library@@UEBAPEBDXZ 0000000180001c70 f i image.obj
 0001:00000c80       ??_GCImgIOException@cimg_library@@UEAAPEAXI@Z 0000000180001c80 f i image.obj
 0001:00000c80       ??_GCImgInstanceException@cimg_library@@UEAAPEAXI@Z 0000000180001c80 f i image.obj
 0001:00000c80       ??_GCImgArgumentException@cimg_library@@UEAAPEAXI@Z 0000000180001c80 f i image.obj
 0001:00000c80       ??_ECImgException@cimg_library@@UEAAPEAXI@Z 0000000180001c80 f i * CIL library *:* CIL module *
 0001:00000c80       ??_GCImgException@cimg_library@@UEAAPEAXI@Z 0000000180001c80 f i image.obj
 0001:00000c80       ??_ECImgArgumentException@cimg_library@@UEAAPEAXI@Z 0000000180001c80 f i * CIL library *:* CIL module *
 0001:00000c80       ??_ECImgIOException@cimg_library@@UEAAPEAXI@Z 0000000180001c80 f i * CIL library *:* CIL module *
 0001:00000c80       ??_ECImgInstanceException@cimg_library@@UEAAPEAXI@Z 0000000180001c80 f i * CIL library *:* CIL module *
 0001:00000cd0       ??0CImgArgumentException@cimg_library@@QEAA@QEBDZZ 0000000180001cd0 f i image.obj
 0001:00000dd0       ??0CImgInstanceException@cimg_library@@QEAA@QEBDZZ 0000000180001dd0 f i image.obj
 0001:00000ed0       ??0CImgIOException@cimg_library@@QEAA@QEBDZZ 0000000180001ed0 f i image.obj
 0001:00000fd0       ?Mutex_attr@cimg@cimg_library@@YAAEAUMutex_info@12@XZ 0000000180001fd0 f i image.obj
 0001:00001080       ?output@cimg@cimg_library@@YAPEAU_iobuf@@PEAU3@@Z 0000000180002080 f i image.obj
 0001:00001110       ?warn@cimg@cimg_library@@YAXQEBDZZ 0000000180002110 f i image.obj
 0001:000011b0       ?filenamerand@cimg@cimg_library@@YAPEBDXZ 00000001800021b0 f i image.obj
 0001:00001300       ?winformat_string@cimg@cimg_library@@YAXQEAD@Z 0000000180002300 f i image.obj
 0001:00001370       ??0CImgInstanceException@cimg_library@@QEAA@AEBU01@@Z 0000000180002370 f i image.obj
 0001:00001370       ??0CImgIOException@cimg_library@@QEAA@AEBU01@@Z 0000000180002370 f i image.obj
 0001:00001370       ??0CImgArgumentException@cimg_library@@QEAA@AEBU01@@Z 0000000180002370 f i image.obj
 0001:000013f0       ?fclose@cimg@cimg_library@@YAHPEAU_iobuf@@@Z 00000001800023f0 f i image.obj
 0001:00001460       ?info@cimg@cimg_library@@YAXXZ 0000000180002460 f i image.obj
 0001:00001870       ?temporary_path@cimg@cimg_library@@YAPEBDQEBD_N@Z 0000000180002870 f i image.obj
 0001:00001dc0       ?programfiles_path@cimg@cimg_library@@YAPEBDQEBD_N@Z 0000000180002dc0 f i image.obj
 0001:00001ef0       ?imagemagick_path@cimg@cimg_library@@YAPEBDQEBD_N@Z 0000000180002ef0 f i image.obj
 0001:00002990       ?graphicsmagick_path@cimg@cimg_library@@YAPEBDQEBD_N@Z 0000000180003990 f i image.obj
 0001:00003430       ?medcon_path@cimg@cimg_library@@YAPEBDQEBD_N@Z 0000000180004430 f i image.obj
 0001:00003640       ?strbuffersize@cimg@cimg_library@@YAPEBDK@Z 0000000180004640 f i image.obj
 0001:00003790       ?Init@LwipImage@@SAXV?$Local@VObject@v8@@@v8@@@Z 0000000180004790 f   image.obj
 0001:000046d0       ??0LwipImage@@QEAA@PEAE_K1@Z 00000001800056d0 f   image.obj
 0001:00004760       ??_ELwipImage@@UEAAPEAXI@Z 0000000180005760 f i * CIL library *:* CIL module *
 0001:00004760       ??_GLwipImage@@UEAAPEAXI@Z 0000000180005760 f i image.obj
 0001:000047e0       ?New@LwipImage@@SAXAEBV?$FunctionCallbackInfo@VValue@v8@@@Nan@@@Z 00000001800057e0 f   image.obj
 0001:00004950       ?width@LwipImage@@SAXAEBV?$FunctionCallbackInfo@VValue@v8@@@Nan@@@Z 0000000180005950 f   image.obj
 0001:000049e0       ?height@LwipImage@@SAXAEBV?$FunctionCallbackInfo@VValue@v8@@@Nan@@@Z 00000001800059e0 f   image.obj
 0001:00004a80       ?getPixel@LwipImage@@SAXAEBV?$FunctionCallbackInfo@VValue@v8@@@Nan@@@Z 0000000180005a80 f   image.obj
 0001:00004d90       ?buffer@LwipImage@@SAXAEBV?$FunctionCallbackInfo@VValue@v8@@@Nan@@@Z 0000000180005d90 f   image.obj
 0001:00004e70       ?resize@LwipImage@@SAXAEBV?$FunctionCallbackInfo@VValue@v8@@@Nan@@@Z 0000000180005e70 f   image.obj
 0001:00004ff0       ?rotate@LwipImage@@SAXAEBV?$FunctionCallbackInfo@VValue@v8@@@Nan@@@Z 0000000180005ff0 f   image.obj
 0001:000051f0       ?blur@LwipImage@@SAXAEBV?$FunctionCallbackInfo@VValue@v8@@@Nan@@@Z 00000001800061f0 f   image.obj
 0001:00005320       ?crop@LwipImage@@SAXAEBV?$FunctionCallbackInfo@VValue@v8@@@Nan@@@Z 0000000180006320 f   image.obj
 0001:00005570       ?mirror@LwipImage@@SAXAEBV?$FunctionCallbackInfo@VValue@v8@@@Nan@@@Z 0000000180006570 f   image.obj
 0001:000056c0       ?pad@LwipImage@@SAXAEBV?$FunctionCallbackInfo@VValue@v8@@@Nan@@@Z 00000001800066c0 f   image.obj
 0001:000059d0       ?sharpen@LwipImage@@SAXAEBV?$FunctionCallbackInfo@VValue@v8@@@Nan@@@Z 00000001800069d0 f   image.obj
 0001:00005b00       ?hslaAdj@LwipImage@@SAXAEBV?$FunctionCallbackInfo@VValue@v8@@@Nan@@@Z 0000000180006b00 f   image.obj
 0001:00005d00       ?opacify@LwipImage@@SAXAEBV?$FunctionCallbackInfo@VValue@v8@@@Nan@@@Z 0000000180006d00 f   image.obj
 0001:00005df0       ?paste@LwipImage@@SAXAEBV?$FunctionCallbackInfo@VValue@v8@@@Nan@@@Z 0000000180006df0 f   image.obj
 0001:00006050       ?setPixel@LwipImage@@SAXAEBV?$FunctionCallbackInfo@VValue@v8@@@Nan@@@Z 0000000180007050 f   image.obj
 0001:000062d0       ??0?$CImg@E@cimg_library@@QEAA@QEBEIIII_N@Z 00000001800072d0 f i image.obj
 0001:00006370       ?assign@?$CImg@D@cimg_library@@QEAAAEAU12@IIII@Z 0000000180007370 f i image.obj
 0001:00006490       ??0?$CImg@D@cimg_library@@QEAA@IIII@Z 0000000180007490 f i image.obj
 0001:00006500       ??0?$CImg@E@cimg_library@@QEAA@AEBU01@@Z 0000000180007500 f i image.obj
 0001:000065b0       ??0?$CImg@E@cimg_library@@QEAA@IIII@Z 00000001800075b0 f i image.obj
 0001:00006630       ??$Unwrap@VLwipImage@@@ObjectWrap@node@@SAPEAVLwipImage@@V?$Local@VObject@v8@@@v8@@@Z 0000000180007630 f i image.obj
 0001:000066b0       ?Call_@Callback@Nan@@AEBA?AV?$Local@VValue@v8@@@v8@@PEAVIsolate@4@V?$Local@VObject@v8@@@4@HQEAV34@@Z 00000001800076b0 f i resize_worker.obj
 0001:00006780       ??0AsyncWorker@Nan@@QEAA@PEAVCallback@1@@Z 0000000180007780 f i resize_worker.obj
 0001:00006850       ??1AsyncWorker@Nan@@UEAA@XZ 0000000180007850 f i resize_worker.obj
 0001:00006910       ?WorkComplete@AsyncWorker@Nan@@UEAAXXZ 0000000180007910 f i resize_worker.obj
 0001:000069b0       ?Destroy@AsyncWorker@Nan@@UEAAXXZ 00000001800079b0 f i resize_worker.obj
 0001:000069d0       ?HandleOKCallback@AsyncWorker@Nan@@MEAAXXZ 00000001800079d0 f i resize_worker.obj
 0001:00006a30       ?HandleErrorCallback@AsyncWorker@Nan@@MEAAXXZ 0000000180007a30 f i resize_worker.obj
 0001:00006b10       ?SetErrorMessage@AsyncWorker@Nan@@IEAAXPEBD@Z 0000000180007b10 f i resize_worker.obj
 0001:00006b80       ??_GAsyncWorker@Nan@@UEAAPEAXI@Z 0000000180007b80 f i resize_worker.obj
 0001:00006b80       ??_EAsyncWorker@Nan@@UEAAPEAXI@Z 0000000180007b80 f i * CIL library *:* CIL module *
 0001:00006bc0       ??_GResizeWorker@@UEAAPEAXI@Z 0000000180007bc0 f i resize_worker.obj
 0001:00006bc0       ??_EResizeWorker@@UEAAPEAXI@Z 0000000180007bc0 f i * CIL library *:* CIL module *
 0001:00006c00       ?Execute@ResizeWorker@@UEAAXXZ 0000000180007c00 f   resize_worker.obj
 0001:00006c60       ?HandleOKCallback@MirrorWorker@@UEAAXXZ 0000000180007c60 f   mirror_worker.obj
 0001:00006c60       ?HandleOKCallback@CropWorker@@UEAAXXZ 0000000180007c60 f   crop_worker.obj
 0001:00006c60       ?HandleOKCallback@BlurWorker@@UEAAXXZ 0000000180007c60 f   blur_worker.obj
 0001:00006c60       ?HandleOKCallback@SharpenWorker@@UEAAXXZ 0000000180007c60 f   sharpen_worker.obj
 0001:00006c60       ?HandleOKCallback@ResizeWorker@@UEAAXXZ 0000000180007c60 f   resize_worker.obj
 0001:00006c60       ?HandleOKCallback@PasteWorker@@UEAAXXZ 0000000180007c60 f   paste_worker.obj
 0001:00006c60       ?HandleOKCallback@SetPixelWorker@@UEAAXXZ 0000000180007c60 f   setpixel_worker.obj
 0001:00006c60       ?HandleOKCallback@HSLAWorker@@UEAAXXZ 0000000180007c60 f   hsla_worker.obj
 0001:00006c60       ?HandleOKCallback@RotateWorker@@UEAAXXZ 0000000180007c60 f   rotate_worker.obj
 0001:00006c60       ?HandleOKCallback@OpacifyWorker@@UEAAXXZ 0000000180007c60 f   opacify_worker.obj
 0001:00006c60       ?HandleOKCallback@PadWorker@@UEAAXXZ 0000000180007c60 f   pad_worker.obj
 0001:00006d00       ?resize@?$CImg@E@cimg_library@@QEAAAEAU12@HHHHHIMMMM@Z 0000000180007d00 f i resize_worker.obj
 0001:00006f70       ??0?$CImg@K@cimg_library@@QEAA@IIII@Z 0000000180007f70 f i resize_worker.obj
 0001:00006ff0       ?get_resize@?$CImg@E@cimg_library@@QEBA?AU12@HHHHHIMMMM@Z 0000000180007ff0 f i resize_worker.obj
 0001:0000ce00       ?move_to@?$CImg@E@cimg_library@@QEAAAEAU12@AEAU12@@Z 000000018000de00 f i resize_worker.obj
 0001:0000cec0       ?assign@?$CImg@E@cimg_library@@QEAAAEAU12@XZ 000000018000dec0 f i resize_worker.obj
 0001:0000cf00       ??0?$CImg@I@cimg_library@@QEAA@IIII@Z 000000018000df00 f i resize_worker.obj
 0001:0000cf80       ?draw_image@?$CImg@E@cimg_library@@QEAAAEAU12@HHHHAEBU12@M@Z 000000018000df80 f i resize_worker.obj
 0001:0000d660       ?get_crop@?$CImg@E@cimg_library@@QEBA?AU12@HHHHHHHH_N@Z 000000018000e660 f i resize_worker.obj
 0001:0000d8b0       ?_cimg_lanczos@?$CImg@E@cimg_library@@SAMM@Z 000000018000e8b0 f i resize_worker.obj
 0001:0000d950       ??H?$CImg@E@cimg_library@@QEBA?AU01@XZ 000000018000e950 f i resize_worker.obj
 0001:0000d980       ?assign@?$CImg@E@cimg_library@@QEAAAEAU12@IIII@Z 000000018000e980 f i resize_worker.obj
 0001:0000dab0       ??0?$CImg@E@cimg_library@@QEAA@IIIIAEBE@Z 000000018000eab0 f i resize_worker.obj
 0001:0000db70       ??0?$CImg@M@cimg_library@@QEAA@IIIIAEBM@Z 000000018000eb70 f i resize_worker.obj
 0001:0000dc10       ??0?$CImg@M@cimg_library@@QEAA@IIII@Z 000000018000ec10 f i resize_worker.obj
 0001:0000dca0       ??0?$CImg@E@cimg_library@@QEAA@AEBU01@_N@Z 000000018000eca0 f i resize_worker.obj
 0001:0000dd40       ?fill@?$CImg@M@cimg_library@@QEAAAEAU12@AEBM@Z 000000018000ed40 f i resize_worker.obj
 0001:0000de40       ?assign@?$CImg@E@cimg_library@@QEAAAEAU12@QEBEIIII_N@Z 000000018000ee40 f i resize_worker.obj
 0001:0000df90       ?assign@?$CImg@E@cimg_library@@QEAAAEAU12@QEBEIIII@Z 000000018000ef90 f i resize_worker.obj
 0001:0000e100       ??$assign@M@?$CImg@E@cimg_library@@QEAAAEAU01@QEBMIIII@Z 000000018000f100 f i resize_worker.obj
 0001:0000e220       ??_ERotateWorker@@UEAAPEAXI@Z 000000018000f220 f i * CIL library *:* CIL module *
 0001:0000e220       ??_GRotateWorker@@UEAAPEAXI@Z 000000018000f220 f i rotate_worker.obj
 0001:0000e260       ?Execute@RotateWorker@@UEAAXXZ 000000018000f260 f   rotate_worker.obj
 0001:0000e600       ?fillC@?$CImg@E@cimg_library@@QEAAAEAU12@IIIHZZ 000000018000f600 f i rotate_worker.obj
 0001:0000e6a0       ?get_rotate@?$CImg@E@cimg_library@@QEBA?AU12@MII@Z 000000018000f6a0 f i rotate_worker.obj
 0001:0000e9e0       ?_linear_atXY@?$CImg@E@cimg_library@@QEBAMMMHH@Z 000000018000f9e0 f i rotate_worker.obj
 0001:0000eb10       ??_GBlurWorker@@UEAAPEAXI@Z 000000018000fb10 f i blur_worker.obj
 0001:0000eb10       ??_EBlurWorker@@UEAAPEAXI@Z 000000018000fb10 f i * CIL library *:* CIL module *
 0001:0000eb50       ?Execute@BlurWorker@@UEAAXXZ 000000018000fb50 f   blur_worker.obj
 0001:0000eba0       ?vanvliet@?$CImg@E@cimg_library@@QEAAAEAU12@MID_N@Z 000000018000fba0 f i blur_worker.obj
 0001:0000ef90       ?_cimg_recursive_apply@?$CImg@E@cimg_library@@SAXPEAEQEBNHKI_N@Z 000000018000ff90 f i blur_worker.obj
 0001:0000f380       ??_GCropWorker@@UEAAPEAXI@Z 0000000180010380 f i crop_worker.obj
 0001:0000f380       ??_ECropWorker@@UEAAPEAXI@Z 0000000180010380 f i * CIL library *:* CIL module *
 0001:0000f3c0       ?Execute@CropWorker@@UEAAXXZ 00000001800103c0 f   crop_worker.obj
 0001:0000f410       ?crop@?$CImg@E@cimg_library@@QEAAAEAU12@HHHHHHHH_N@Z 0000000180010410 f i crop_worker.obj
 0001:0000f4a0       ??_EMirrorWorker@@UEAAPEAXI@Z 00000001800104a0 f i * CIL library *:* CIL module *
 0001:0000f4a0       ??_GMirrorWorker@@UEAAPEAXI@Z 00000001800104a0 f i mirror_worker.obj
 0001:0000f4e0       ?Execute@MirrorWorker@@UEAAXXZ 00000001800104e0 f   mirror_worker.obj
 0001:0000f690       ??1?$basic_string@DU?$char_traits@D@std@@V?$allocator@D@2@@std@@QEAA@XZ 0000000180010690 f i mirror_worker.obj
 0001:0000f720       ?mirror@?$CImg@E@cimg_library@@QEAAAEAU12@D@Z 0000000180010720 f i mirror_worker.obj
 0001:0000fad0       ?assign@?$basic_string@DU?$char_traits@D@std@@V?$allocator@D@2@@std@@QEAAAEAV12@PEBD_K@Z 0000000180010ad0 f i mirror_worker.obj
 0001:0000fc00       ?assign@?$basic_string@DU?$char_traits@D@std@@V?$allocator@D@2@@std@@QEAAAEAV12@AEBV12@_K1@Z 0000000180010c00 f i mirror_worker.obj
 0001:0000fd30       ?append@?$basic_string@DU?$char_traits@D@std@@V?$allocator@D@2@@std@@QEAAAEAV12@PEBD_K@Z 0000000180010d30 f i mirror_worker.obj
 0001:0000fe80       ?append@?$basic_string@DU?$char_traits@D@std@@V?$allocator@D@2@@std@@QEAAAEAV12@AEBV12@_K1@Z 0000000180010e80 f i mirror_worker.obj
 0001:0000ffb0       ?erase@?$basic_string@DU?$char_traits@D@std@@V?$allocator@D@2@@std@@QEAAAEAV12@_K0@Z 0000000180010fb0 f i mirror_worker.obj
 0001:00010060       ?_Copy@?$basic_string@DU?$char_traits@D@std@@V?$allocator@D@2@@std@@QEAAX_K0@Z 0000000180011060 f i mirror_worker.obj
 0001:00010190       ?allocate@?$_Wrap_alloc@V?$allocator@D@std@@@std@@QEAAPEAD_K@Z 0000000180011190 f i mirror_worker.obj
 0001:00010200       ??_EPadWorker@@UEAAPEAXI@Z 0000000180011200 f i * CIL library *:* CIL module *
 0001:00010200       ??_GPadWorker@@UEAAPEAXI@Z 0000000180011200 f i pad_worker.obj
 0001:00010240       ?Execute@PadWorker@@UEAAXXZ 0000000180011240 f   pad_worker.obj
 0001:000105e0       ??_GSharpenWorker@@UEAAPEAXI@Z 00000001800115e0 f i sharpen_worker.obj
 0001:000105e0       ??_ESharpenWorker@@UEAAPEAXI@Z 00000001800115e0 f i * CIL library *:* CIL module *
 0001:00010620       ?Execute@SharpenWorker@@UEAAXXZ 0000000180011620 f   sharpen_worker.obj
 0001:00010650       ?sharpen@?$CImg@E@cimg_library@@QEAAAEAU12@M_NMMM@Z 0000000180011650 f i sharpen_worker.obj
 0001:00010e40       ?max@?$CImg@M@cimg_library@@QEAAAEAMXZ 0000000180011e40 f i sharpen_worker.obj
 0001:00010fa0       ??$?YE@?$CImg@M@cimg_library@@QEAAAEAU01@AEBU?$CImg@E@1@@Z 0000000180011fa0 f i sharpen_worker.obj
 0001:00011240       ??_GHSLAWorker@@UEAAPEAXI@Z 0000000180012240 f i hsla_worker.obj
 0001:00011240       ??_EHSLAWorker@@UEAAPEAXI@Z 0000000180012240 f i * CIL library *:* CIL module *
 0001:00011280       ?Execute@HSLAWorker@@UEAAXXZ 0000000180012280 f   hsla_worker.obj
 0001:000115b0       ?rgb_to_hsl@@YAXEEEPEAM00@Z 00000001800125b0 f   hsla_worker.obj
 0001:00011740       ?hsl_to_rgb@@YAXMMMPEAE00@Z 0000000180012740 f   hsla_worker.obj
 0001:000119a0       ??_EOpacifyWorker@@UEAAPEAXI@Z 00000001800129a0 f i * CIL library *:* CIL module *
 0001:000119a0       ??_GOpacifyWorker@@UEAAPEAXI@Z 00000001800129a0 f i opacify_worker.obj
 0001:000119e0       ?Execute@OpacifyWorker@@UEAAXXZ 00000001800129e0 f   opacify_worker.obj
 0001:00011ad0       ??0PasteWorker@@QEAA@_K0AEAV?$Local@VObject@v8@@@v8@@00PEAU?$CImg@E@cimg_library@@PEAVCallback@Nan@@@Z 0000000180012ad0 f   paste_worker.obj
 0001:00011c20       ??_EPasteWorker@@UEAAPEAXI@Z 0000000180012c20 f i * CIL library *:* CIL module *
 0001:00011c20       ??_GPasteWorker@@UEAAPEAXI@Z 0000000180012c20 f i paste_worker.obj
 0001:00011c60       ?Execute@PasteWorker@@UEAAXXZ 0000000180012c60 f   paste_worker.obj
 0001:00011f90       ??_ESetPixelWorker@@UEAAPEAXI@Z 0000000180012f90 f i * CIL library *:* CIL module *
 0001:00011f90       ??_GSetPixelWorker@@UEAAPEAXI@Z 0000000180012f90 f i setpixel_worker.obj
 0001:00011fd0       ?Execute@SetPixelWorker@@UEAAXXZ 0000000180012fd0 f   setpixel_worker.obj
 0001:0001207c       __imp_load_node_module_register 000000018001307c f   node:node.exe
 0001:00012088       __tailMerge_node_exe       0000000180013088 f i node:node.exe
 0001:00012101       __imp_load_uv_queue_work   0000000180013101 f   node:node.exe
 0001:0001210d       __imp_load_?Value@External@v8@@QEBAPEAXXZ 000000018001310d f   node:node.exe
 0001:00012119       __imp_load_?New@External@v8@@SA?AV?$Local@VExternal@v8@@@2@PEAVIsolate@2@PEAX@Z 0000000180013119 f   node:node.exe
 0001:00012125       __imp_load_?Value@Integer@v8@@QEBA_JXZ 0000000180013125 f   node:node.exe
 0001:00012131       __imp_load_?New@Integer@v8@@SA?AV?$Local@VInteger@v8@@@2@PEAVIsolate@2@H@Z 0000000180013131 f   node:node.exe
 0001:0001213d       __imp_load_?New@Signature@v8@@SA?AV?$Local@VSignature@v8@@@2@PEAVIsolate@2@V?$Local@VFunctionTemplate@v8@@@2@@Z 000000018001313d f   node:node.exe
 0001:00012149       __imp_load_?GetCurrentContext@Isolate@v8@@QEAA?AV?$Local@VContext@v8@@@2@XZ 0000000180013149 f   node:node.exe
 0001:00012155       __imp_load_?GetCurrent@Isolate@v8@@SAPEAV12@XZ 0000000180013155 f   node:node.exe
 0001:00012161       __imp_load_?CreateHandle@HandleScope@v8@@KAPEAPEAVObject@internal@2@PEAVIsolate@42@PEAV342@@Z 0000000180013161 f   node:node.exe
 0001:0001216d       __imp_load_?CreateHandle@HandleScope@v8@@CAPEAPEAVObject@internal@2@PEAVHeapObject@42@PEAV342@@Z 000000018001316d f   node:node.exe
 0001:00012179       __imp_load_??1HandleScope@v8@@QEAA@XZ 0000000180013179 f   node:node.exe
 0001:00012185       __imp_load_??0HandleScope@v8@@QEAA@PEAVIsolate@1@@Z 0000000180013185 f   node:node.exe
 0001:00012191       __imp_load_?Set@Template@v8@@QEAAXV?$Local@VName@v8@@@2@V?$Local@VData@v8@@@2@W4PropertyAttribute@2@@Z 0000000180013191 f   node:node.exe
 0001:0001219d       __imp_load_?New@Array@v8@@SA?AV?$Local@VArray@v8@@@2@PEAVIsolate@2@H@Z 000000018001319d f   node:node.exe
 0001:000121a9       __imp_load_?SetClassName@FunctionTemplate@v8@@QEAAXV?$Local@VString@v8@@@2@@Z 00000001800131a9 f   node:node.exe
 0001:000121b5       __imp_load_?PrototypeTemplate@FunctionTemplate@v8@@QEAA?AV?$Local@VObjectTemplate@v8@@@2@XZ 00000001800131b5 f   node:node.exe
 0001:000121c1       __imp_load_?InstanceTemplate@FunctionTemplate@v8@@QEAA?AV?$Local@VObjectTemplate@v8@@@2@XZ 00000001800131c1 f   node:node.exe
 0001:000121cd       __imp_load_?GetFunction@FunctionTemplate@v8@@QEAA?AV?$Local@VFunction@v8@@@2@XZ 00000001800131cd f   node:node.exe
 0001:000121d9       __imp_load_?GetFunction@FunctionTemplate@v8@@QEAA?AV?$MaybeLocal@VFunction@v8@@@2@V?$Local@VContext@v8@@@2@@Z 00000001800131d9 f   node:node.exe
 0001:000121e5       __imp_load_?New@FunctionTemplate@v8@@SA?AV?$Local@VFunctionTemplate@v8@@@2@PEAVIsolate@2@P6AXAEBV?$FunctionCallbackInfo@VValue@v8@@@2@@ZV?$Local@VValue@v8@@@2@V?$Local@VSignature@v8@@@2@H@Z 00000001800131e5 f   node:node.exe
 0001:000121f1       __imp_load_?ToLocalEmpty@V8@v8@@CAXXZ 00000001800131f1 f   node:node.exe
 0001:000121fd       __imp_load_?ClearWeak@V8@v8@@CAPEAXPEAPEAVObject@internal@2@@Z 00000001800131fd f   node:node.exe
 0001:00012209       __imp_load_?MakeWeak@V8@v8@@CAXPEAPEAVObject@internal@2@PEAXP6AXAEBV?$WeakCallbackData@VValue@v8@@X@2@@Z@Z 0000000180013209 f   node:node.exe
 0001:00012215       __imp_load_?DisposeGlobal@V8@v8@@CAXPEAPEAVObject@internal@2@@Z 0000000180013215 f   node:node.exe
 0001:00012221       __imp_load_?GlobalizeReference@V8@v8@@CAPEAPEAVObject@internal@2@PEAVIsolate@42@PEAPEAV342@@Z 0000000180013221 f   node:node.exe
 0001:0001222d       __imp_load_?NumberValue@Value@v8@@QEBANXZ 000000018001322d f   node:node.exe
 0001:00012239       __imp_load_?BooleanValue@Value@v8@@QEBA_NXZ 0000000180013239 f   node:node.exe
 0001:00012245       __imp_load_?ToInt32@Value@v8@@QEBA?AV?$MaybeLocal@VInt32@v8@@@2@V?$Local@VContext@v8@@@2@@Z 0000000180013245 f   node:node.exe
 0001:00012251       __imp_load_?Escape@EscapableHandleScope@v8@@AEAAPEAPEAVObject@internal@2@PEAPEAV342@@Z 0000000180013251 f   node:node.exe
 0001:0001225d       __imp_load_??0EscapableHandleScope@v8@@QEAA@PEAVIsolate@1@@Z 000000018001325d f   node:node.exe
 0001:00012269       __imp_load_?NewFromUtf8@String@v8@@SA?AV?$MaybeLocal@VString@v8@@@2@PEAVIsolate@2@PEBDW4NewStringType@2@H@Z 0000000180013269 f   node:node.exe
 0001:00012275       __imp_load_?New@Number@v8@@SA?AV?$Local@VNumber@v8@@@2@PEAVIsolate@2@N@Z 0000000180013275 f   node:node.exe
 0001:00012281       __imp_load_?Value@Number@v8@@QEBANXZ 0000000180013281 f   node:node.exe
 0001:0001228d       __imp_load_?SlowGetAlignedPointerFromInternalField@Object@v8@@AEAAPEAXH@Z 000000018001328d f   node:node.exe
 0001:00012299       __imp_load_?SlowGetInternalField@Object@v8@@AEAA?AV?$Local@VValue@v8@@@2@H@Z 0000000180013299 f   node:node.exe
 0001:000122a5       __imp_load_?New@Object@v8@@SA?AV?$Local@VObject@v8@@@2@PEAVIsolate@2@@Z 00000001800132a5 f   node:node.exe
 0001:000122b1       __imp_load_?SetAlignedPointerInInternalField@Object@v8@@QEAAXHPEAX@Z 00000001800132b1 f   node:node.exe
 0001:000122bd       __imp_load_?SetInternalField@Object@v8@@QEAAXHV?$Local@VValue@v8@@@2@@Z 00000001800132bd f   node:node.exe
 0001:000122c9       __imp_load_?InternalFieldCount@Object@v8@@QEAAHXZ 00000001800132c9 f   node:node.exe
 0001:000122d5       __imp_load_?Set@Object@v8@@QEAA_NV?$Local@VValue@v8@@@2@0@Z 00000001800132d5 f   node:node.exe
 0001:000122e1       __imp_load_?Set@Object@v8@@QEAA_NIV?$Local@VValue@v8@@@2@@Z 00000001800132e1 f   node:node.exe
 0001:000122ed       __imp_load_?Set@Object@v8@@QEAA?AV?$Maybe@_N@2@V?$Local@VContext@v8@@@2@IV?$Local@VValue@v8@@@2@@Z 00000001800132ed f   node:node.exe
 0001:000122f9       __imp_load_?SetName@Function@v8@@QEAAXV?$Local@VString@v8@@@2@@Z 00000001800132f9 f   node:node.exe
 0001:00012305       __imp_load_?SetInternalFieldCount@ObjectTemplate@v8@@QEAAXH@Z 0000000180013305 f   node:node.exe
 0001:00012311       __imp_load_?NewInstance@ObjectTemplate@v8@@QEAA?AV?$MaybeLocal@VObject@v8@@@2@V?$Local@VContext@v8@@@2@@Z 0000000180013311 f   node:node.exe
 0001:0001231d       __imp_load_?New@ObjectTemplate@v8@@SA?AV?$Local@VObjectTemplate@v8@@@2@PEAVIsolate@2@V?$Local@VFunctionTemplate@v8@@@2@@Z 000000018001331d f   node:node.exe
 0001:00012329       __imp_load_?Data@Buffer@node@@YAPEADV?$Local@VObject@v8@@@v8@@@Z 0000000180013329 f   node:node.exe
 0001:00012335       __imp_load_?Copy@Buffer@node@@YA?AV?$MaybeLocal@VObject@v8@@@v8@@PEAVIsolate@4@PEBD_K@Z 0000000180013335 f   node:node.exe
 0001:00012341       __imp_load_uv_default_loop 0000000180013341 f   node:node.exe
 0001:0001234d       __imp_load_??1EscapableHandleScope@v8@@QEAA@XZ 000000018001334d f   node:node.exe
 0001:00012359       __imp_load_?Global@Context@v8@@QEAA?AV?$Local@VObject@v8@@@2@XZ 0000000180013359 f   node:node.exe
 0001:00012365       __imp_load_?Error@Exception@v8@@SA?AV?$Local@VValue@v8@@@2@V?$Local@VString@v8@@@2@@Z 0000000180013365 f   node:node.exe
 0001:00012371       __imp_load_?Get@Object@v8@@QEAA?AV?$Local@VValue@v8@@@2@I@Z 0000000180013371 f   node:node.exe
 0001:0001237d       __imp_load_?MakeCallback@node@@YA?AV?$Local@VValue@v8@@@v8@@PEAVIsolate@3@V?$Local@VObject@v8@@@3@V?$Local@VFunction@v8@@@3@HPEAV23@@Z 000000018001337d f   node:node.exe
 0001:0001238c       ??0bad_alloc@std@@QEAA@AEBV01@@Z 000000018001338c f i libcpmt:xthrow.obj
 0001:000123cc       ??0bad_alloc@std@@QEAA@XZ  00000001800133cc f i libcpmt:xthrow.obj
 0001:000123ec       ??0exception@std@@QEAA@AEBV01@@Z 00000001800133ec f i libcpmt:xthrow.obj
 0001:00012424       ??0length_error@std@@QEAA@AEBV01@@Z 0000000180013424 f i libcpmt:xthrow.obj
 0001:00012464       ??0length_error@std@@QEAA@PEBD@Z 0000000180013464 f i libcpmt:xthrow.obj
 0001:000124b0       ??0logic_error@std@@QEAA@AEBV01@@Z 00000001800134b0 f i libcpmt:xthrow.obj
 0001:000124f0       ??0out_of_range@std@@QEAA@AEBV01@@Z 00000001800134f0 f i libcpmt:xthrow.obj
 0001:00012530       ??0out_of_range@std@@QEAA@PEBD@Z 0000000180013530 f i libcpmt:xthrow.obj
 0001:0001257c       ??_Gout_of_range@std@@UEAAPEAXI@Z 000000018001357c f i libcpmt:xthrow.obj
 0001:0001257c       ??_Ebad_alloc@std@@UEAAPEAXI@Z 000000018001357c f i libcpmt:xthrow.obj
 0001:0001257c       ??_Eout_of_range@std@@UEAAPEAXI@Z 000000018001357c f i libcpmt:xthrow.obj
 0001:0001257c       ??_Glength_error@std@@UEAAPEAXI@Z 000000018001357c f i libcpmt:xthrow.obj
 0001:0001257c       ??_Elength_error@std@@UEAAPEAXI@Z 000000018001357c f i libcpmt:xthrow.obj
 0001:0001257c       ??_Glogic_error@std@@UEAAPEAXI@Z 000000018001357c f i libcpmt:xthrow.obj
 0001:0001257c       ??_Gbad_exception@std@@UEAAPEAXI@Z 000000018001357c f i libvcruntime:frame.obj
 0001:0001257c       ??_Gbad_array_new_length@std@@UEAAPEAXI@Z 000000018001357c f i LIBCMT:throw_bad_alloc.obj
 0001:0001257c       ??_Eexception@std@@UEAAPEAXI@Z 000000018001357c f i libcpmt:xthrow.obj
 0001:0001257c       ??_Ebad_array_new_length@std@@UEAAPEAXI@Z 000000018001357c f i LIBCMT:throw_bad_alloc.obj
 0001:0001257c       ??_Gbad_alloc@std@@UEAAPEAXI@Z 000000018001357c f i libcpmt:xthrow.obj
 0001:0001257c       ??_Elogic_error@std@@UEAAPEAXI@Z 000000018001357c f i libcpmt:xthrow.obj
 0001:0001257c       ??_Gexception@std@@UEAAPEAXI@Z 000000018001357c f i libcpmt:xthrow.obj
 0001:0001257c       ??_Ebad_exception@std@@UEAAPEAXI@Z 000000018001357c f i libvcruntime:frame.obj
 0001:000125c0       ?__scrt_throw_std_bad_alloc@@YAXXZ 00000001800135c0 f   LIBCMT:throw_bad_alloc.obj
 0001:000125c0       ?_Xbad_alloc@std@@YAXXZ    00000001800135c0 f   libcpmt:xthrow.obj
 0001:000125e0       ?_Xlength_error@std@@YAXPEBD@Z 00000001800135e0 f   libcpmt:xthrow.obj
 0001:00012604       ?_Xout_of_range@std@@YAXPEBD@Z 0000000180013604 f   libcpmt:xthrow.obj
 0001:00012628       ?what@exception@std@@UEBAPEBDXZ 0000000180013628 f i libcpmt:xthrow.obj
 0001:00012650       __security_check_cookie    0000000180013650 f   LIBCMT:_amdsecgs_.obj
 0001:00012674       ??3@YAXPEAX_K@Z            0000000180013674 f   LIBCMT:delete_scalar_size.obj
 0001:00012674       ??_V@YAXPEAX@Z             0000000180013674 f   LIBCMT:delete_array.obj
 0001:000127c4       _Init_thread_abort         00000001800137c4 f   LIBCMT:thread_safe_statics.obj
 0001:000127f4       _Init_thread_footer        00000001800137f4 f   LIBCMT:thread_safe_statics.obj
 0001:00012854       _Init_thread_header        0000000180013854 f   LIBCMT:thread_safe_statics.obj
 0001:000128bc       _Init_thread_notify        00000001800138bc f   LIBCMT:thread_safe_statics.obj
 0001:00012918       _Init_thread_wait          0000000180013918 f   LIBCMT:thread_safe_statics.obj
 0001:000129b0       ??2@YAPEAX_K@Z             00000001800139b0 f   LIBCMT:new_scalar.obj
 0001:000129ec       __scrt_acquire_startup_lock 00000001800139ec f   LIBCMT:utility.obj
 0001:00012a28       __scrt_dllmain_after_initialize_c 0000000180013a28 f   LIBCMT:utility.obj
 0001:00012a5c       __scrt_dllmain_before_initialize_c 0000000180013a5c f   LIBCMT:utility.obj
 0001:00012a74       __scrt_dllmain_crt_thread_attach 0000000180013a74 f   LIBCMT:utility.obj
 0001:00012a9c       __scrt_dllmain_crt_thread_detach 0000000180013a9c f   LIBCMT:utility.obj
 0001:00012ab4       __scrt_dllmain_exception_filter 0000000180013ab4 f   LIBCMT:utility.obj
 0001:00012b18       __scrt_dllmain_uninitialize_c 0000000180013b18 f   LIBCMT:utility.obj
 0001:00012b48       __scrt_dllmain_uninitialize_critical 0000000180013b48 f   LIBCMT:utility.obj
 0001:00012b5c       __scrt_initialize_crt      0000000180013b5c f   LIBCMT:utility.obj
 0001:00012ba8       __scrt_initialize_onexit_tables 0000000180013ba8 f   LIBCMT:utility.obj
 0001:00012c74       __scrt_is_nonwritable_in_current_image 0000000180013c74 f   LIBCMT:utility.obj
 0001:00012d10       __scrt_release_startup_lock 0000000180013d10 f   LIBCMT:utility.obj
 0001:00012d34       __scrt_uninitialize_crt    0000000180013d34 f   LIBCMT:utility.obj
 0001:00012d60       _onexit                    0000000180013d60 f   LIBCMT:utility.obj
 0001:00012db0       atexit                     0000000180013db0 f   LIBCMT:utility.obj
 0001:00012dc8       ??_U@YAPEAX_K@Z            0000000180013dc8 f   LIBCMT:new_array.obj
 0001:00012dd0       ??_Etype_info@@UEAAPEAXI@Z 0000000180013dd0 f i LIBCMT:std_type_info_static.obj
 0001:00012dd0       ??_Gtype_info@@UEAAPEAXI@Z 0000000180013dd0 f i LIBCMT:std_type_info_static.obj
 0001:00012dfc       ??3@YAXPEAX@Z              0000000180013dfc f   LIBCMT:delete_scalar.obj
 0001:00013174       _DllMainCRTStartup         0000000180014174 f   LIBCMT:dll_dllmain.obj
 0001:000131b4       __raise_securityfailure    00000001800141b4 f   LIBCMT:gs_report.obj
 0001:000131e8       __report_gsfailure         00000001800141e8 f   LIBCMT:gs_report.obj
 0001:000132bc       __report_rangecheckfailure 00000001800142bc f   LIBCMT:gs_report.obj
 0001:000132d0       __report_securityfailure   00000001800142d0 f   LIBCMT:gs_report.obj
 0001:00013450       _guard_check_icall         0000000180014450 f i LIBCMT:checkcfg.obj
 0001:00013458       __crt_debugger_hook        0000000180014458 f   LIBCMT:utility_desktop.obj
 0001:00013460       __scrt_fastfail            0000000180014460 f   LIBCMT:utility_desktop.obj
 0001:000135a8       ??0bad_array_new_length@std@@QEAA@AEBV01@@Z 00000001800145a8 f i LIBCMT:throw_bad_alloc.obj
 0001:000135e8       ??0bad_array_new_length@std@@QEAA@XZ 00000001800145e8 f i LIBCMT:throw_bad_alloc.obj
 0001:00013608       ?__scrt_throw_std_bad_array_new_length@@YAXXZ 0000000180014608 f   LIBCMT:throw_bad_alloc.obj
 0001:00013628       __isa_available_init       0000000180014628 f   LIBCMT:_cpu_disp_.obj
 0001:000137ec       DllMain                    00000001800147ec f   LIBCMT:dll_dllmain_stub.obj
 0001:000137ec       _get_startup_argv_mode     00000001800147ec f   LIBCMT:argv_mode.obj
 0001:000137f4       __scrt_is_ucrt_dll_in_use  00000001800147f4 f   LIBCMT:ucrt_detection.obj
 0001:00013800       __security_init_cookie     0000000180014800 f   LIBCMT:gs_support.obj
 0001:000138ac       ?__scrt_initialize_type_info@@YAXXZ 00000001800148ac f   LIBCMT:tncleanup.obj
 0001:000138bc       ?__scrt_uninitialize_type_info@@YAXXZ 00000001800148bc f   LIBCMT:tncleanup.obj
 0001:000138c8       __local_stdio_scanf_options 00000001800148c8 f i LIBCMT:default_local_stdio_options.obj
 0001:000138d0       __scrt_initialize_default_local_stdio_options 00000001800148d0 f   LIBCMT:default_local_stdio_options.obj
 0001:000138ec       __scrt_get_dyn_tls_init_callback 00000001800148ec f   LIBCMT:dyn_tls_init.obj
 0001:000138f4       _RTC_Initialize            00000001800148f4 f   LIBCMT:_initsect_.obj
 0001:00013940       _RTC_Terminate             0000000180014940 f   LIBCMT:_initsect_.obj
 0001:00013990       __DestructExceptionObject  0000000180014990 f   libvcruntime:frame.obj
 0001:00013a18       ??0bad_exception@std@@QEAA@AEBV01@@Z 0000000180014a18 f i libvcruntime:frame.obj
 0001:00013a58       ??0bad_exception@std@@QEAA@XZ 0000000180014a58 f i libvcruntime:frame.obj
 0001:00013a78       ??1bad_alloc@std@@UEAA@XZ  0000000180014a78 f i libcpmt:xthrow.obj
 0001:00013a78       ??1bad_array_new_length@std@@UEAA@XZ 0000000180014a78 f i LIBCMT:throw_bad_alloc.obj
 0001:00013a78       ??1bad_exception@std@@UEAA@XZ 0000000180014a78 f i libvcruntime:frame.obj
 0001:00013a78       ??1length_error@std@@UEAA@XZ 0000000180014a78 f i libcpmt:xthrow.obj
 0001:00013a78       ??1out_of_range@std@@UEAA@XZ 0000000180014a78 f i libcpmt:xthrow.obj
 0001:000143cc       ?_CallMemberFunction0@@YAXPEAXP6AX0@Z@Z 00000001800153cc f i libvcruntime:frame.obj
 0001:000143d0       ?_CallMemberFunction1@@YAXPEAXP6AX0@Z0@Z 00000001800153d0 f i libvcruntime:frame.obj
 0001:000143dc       ?_CallMemberFunction2@@YAXPEAXP6AX0@Z0H@Z 00000001800153dc f i libvcruntime:frame.obj
 0001:000143ec       __AdjustPointer            00000001800153ec f   libvcruntime:frame.obj
 0001:00014410       __BuildCatchObject         0000000180015410 f   libvcruntime:frame.obj
 0001:000144d8       __BuildCatchObjectHelper   00000001800154d8 f   libvcruntime:frame.obj
 0001:000146bc       __CxxCallCatchBlock        00000001800156bc f   libvcruntime:frame.obj
 0001:000148a8       __FrameUnwindFilter        00000001800158a8 f   libvcruntime:frame.obj
 0001:000148f4       __FrameUnwindToState       00000001800158f4 f   libvcruntime:frame.obj
 0001:00014a88       __InternalCxxFrameHandler  0000000180015a88 f   libvcruntime:frame.obj
 0001:00014ce0       __TypeMatch                0000000180015ce0 f   libvcruntime:frame.obj
 0001:00014e20       __std_terminate            0000000180015e20 f   libvcruntime:frame.obj
 0001:00014e40       memcpy                     0000000180015e40 f   libvcruntime:memcpy.obj
 0001:00014e40       memmove                    0000000180015e40 f   libvcruntime:memcpy.obj
 0001:00015278       _purecall                  0000000180016278 f   libvcruntime:purevirt.obj
 0001:000152b4       __std_exception_copy       00000001800162b4 f   libvcruntime:std_exception.obj
 0001:00015344       __std_exception_destroy    0000000180016344 f   libvcruntime:std_exception.obj
 0001:0001536c       _CxxThrowException         000000018001636c f   libvcruntime:throw.obj
 0001:00015444       __C_specific_handler       0000000180016444 f   libvcruntime:_chandler_.obj
 0001:00015808       __vcrt_EventRegister       0000000180016808 f   libvcruntime:winapi_downlevel.obj
 0001:0001588c       __vcrt_EventSetInformation 000000018001688c f   libvcruntime:winapi_downlevel.obj
 0001:00015910       __vcrt_EventUnregister     0000000180016910 f   libvcruntime:winapi_downlevel.obj
 0001:00015964       __vcrt_EventWriteTransfer  0000000180016964 f   libvcruntime:winapi_downlevel.obj
 0001:000159fc       __vcrt_FlsAlloc            00000001800169fc f   libvcruntime:winapi_downlevel.obj
 0001:00015a50       __vcrt_FlsFree             0000000180016a50 f   libvcruntime:winapi_downlevel.obj
 0001:00015aa4       __vcrt_FlsGetValue         0000000180016aa4 f   libvcruntime:winapi_downlevel.obj
 0001:00015af8       __vcrt_FlsSetValue         0000000180016af8 f   libvcruntime:winapi_downlevel.obj
 0001:00015b60       __vcrt_InitializeCriticalSectionEx 0000000180016b60 f   libvcruntime:winapi_downlevel.obj
 0001:00015bd8       __vcrt_initialize_winapi_thunks 0000000180016bd8 f   libvcruntime:winapi_downlevel.obj
 0001:00015c10       __vcrt_uninitialize_winapi_thunks 0000000180016c10 f   libvcruntime:winapi_downlevel.obj
 0001:00015c50       __vcrt_initialize          0000000180016c50 f   libvcruntime:initialization.obj
 0001:00015c88       __vcrt_thread_attach       0000000180016c88 f   libvcruntime:initialization.obj
 0001:00015c9c       __vcrt_thread_detach       0000000180016c9c f   libvcruntime:initialization.obj
 0001:00015cb0       __vcrt_uninitialize        0000000180016cb0 f   libvcruntime:initialization.obj
 0001:00015cdc       __vcrt_uninitialize_critical 0000000180016cdc f   libvcruntime:initialization.obj
 0001:00015cf0       __telemetry_main_invoke_trigger 0000000180016cf0 f   libvcruntime:telemetry.obj
 0001:00015e08       __telemetry_main_return_trigger 0000000180016e08 f   libvcruntime:telemetry.obj
 0001:00015f20       __vcrt_initialize_telemetry_provider 0000000180016f20 f   libvcruntime:telemetry.obj
 0001:00015f34       __vcrt_uninitialize_telemetry_provider 0000000180016f34 f   libvcruntime:telemetry.obj
 0001:00015f70       memset                     0000000180016f70 f   libvcruntime:memset.obj
 0001:00016110       __std_type_info_compare    0000000180017110 f   libvcruntime:std_type_info.obj
 0001:00016138       __std_type_info_destroy_list 0000000180017138 f   libvcruntime:std_type_info.obj
 0001:00016164       __vcrt_freefls             0000000180017164 f   libvcruntime:per_thread_data.obj
 0001:00016184       __vcrt_freeptd             0000000180017184 f   libvcruntime:per_thread_data.obj
 0001:000161d4       __vcrt_getptd              00000001800171d4 f   libvcruntime:per_thread_data.obj
 0001:000161f0       __vcrt_getptd_noexit       00000001800171f0 f   libvcruntime:per_thread_data.obj
 0001:000162a8       __vcrt_initialize_ptd      00000001800172a8 f   libvcruntime:per_thread_data.obj
 0001:000162e8       __vcrt_uninitialize_ptd    00000001800172e8 f   libvcruntime:per_thread_data.obj
 0001:0001630c       ?__GetCurrentState@@YAHPEA_KPEAU_xDISPATCHER_CONTEXT@@PEBU_s_FuncInfo@@@Z 000000018001730c f   libvcruntime:ehstate.obj
 0001:00016334       ?__GetUnwindTryBlock@@YAHPEA_KPEAU_xDISPATCHER_CONTEXT@@PEBU_s_FuncInfo@@@Z 0000000180017334 f   libvcruntime:ehstate.obj
 0001:00016360       ?__SetState@@YAXPEA_KPEAU_xDISPATCHER_CONTEXT@@PEBU_s_FuncInfo@@H@Z 0000000180017360 f   libvcruntime:ehstate.obj
 0001:0001636c       ?__SetUnwindTryBlock@@YAXPEA_KPEAU_xDISPATCHER_CONTEXT@@PEBU_s_FuncInfo@@H@Z 000000018001736c f   libvcruntime:ehstate.obj
 0001:000163a8       ?__StateFromControlPc@@YAHPEBU_s_FuncInfo@@PEAU_xDISPATCHER_CONTEXT@@@Z 00000001800173a8 f   libvcruntime:ehstate.obj
 0001:000163b0       ?__StateFromIp@@YAHPEBU_s_FuncInfo@@PEAU_xDISPATCHER_CONTEXT@@_J@Z 00000001800173b0 f   libvcruntime:ehstate.obj
 0001:00016430       _CallSettingFrame          0000000180017430 f   libvcruntime:handlers.obj
 0001:00016470       ?_GetEstablisherFrame@@YAPEA_KPEA_KPEAU_xDISPATCHER_CONTEXT@@PEBU_s_FuncInfo@@0@Z 0000000180017470 f   libvcruntime:trnsctrl.obj
 0001:0001653c       ?_GetRangeOfTrysToCheck@@YAPEBU_s_TryBlockMapEntry@@PEA_KPEBU_s_FuncInfo@@HHPEAI2PEAU_xDISPATCHER_CONTEXT@@@Z 000000018001753c f   libvcruntime:trnsctrl.obj
 0001:00016668       ?__FrameUnwindToEmptyState@@YAXPEA_KPEAU_xDISPATCHER_CONTEXT@@PEBU_s_FuncInfo@@@Z 0000000180017668 f   libvcruntime:trnsctrl.obj
 0001:000166fc       ?__SehTransFilter@@YAHPEAU_EXCEPTION_POINTERS@@PEAUEHExceptionRecord@@PEA_KPEAU_CONTEXT@@PEAU_xDISPATCHER_CONTEXT@@PEBU_s_FuncInfo@@PEAH@Z 00000001800176fc f   libvcruntime:trnsctrl.obj
 0001:00016794       _CallSETranslator          0000000180017794 f   libvcruntime:trnsctrl.obj
 0001:000167ec       _CreateFrameInfo           00000001800177ec f   libvcruntime:trnsctrl.obj
 0001:00016828       _FindAndUnlinkFrame        0000000180017828 f   libvcruntime:trnsctrl.obj
 0001:00016880       _GetImageBase              0000000180017880 f   libvcruntime:trnsctrl.obj
 0001:00016894       _GetThrowImageBase         0000000180017894 f   libvcruntime:trnsctrl.obj
 0001:000168a8       _IsExceptionObjectToBeDestroyed 00000001800178a8 f   libvcruntime:trnsctrl.obj
 0001:000168d8       _SetImageBase              00000001800178d8 f   libvcruntime:trnsctrl.obj
 0001:000168f0       _SetThrowImageBase         00000001800178f0 f   libvcruntime:trnsctrl.obj
 0001:00016908       _UnwindNestedFrames        0000000180017908 f   libvcruntime:trnsctrl.obj
 0001:00016a2c       __CxxFrameHandler3         0000000180017a2c f   libvcruntime:trnsctrl.obj
 0001:00016ac0       _local_unwind              0000000180017ac0 f   libvcruntime:_jmpuwind_.obj
 0001:00016af0       _NLG_Notify                0000000180017af0 f   libvcruntime:_jmpuwind_.obj
 0001:00016b10       __NLG_Dispatch2            0000000180017b10 f   libvcruntime:_jmpuwind_.obj
 0001:00016b20       __NLG_Return2              0000000180017b20 f   libvcruntime:_jmpuwind_.obj
 0001:00016b24       __vcrt_initialize_pure_virtual_call_handler 0000000180017b24 f   libvcruntime:purevirt_data.obj
 0001:00016b48       __vcrt_initialize_locks    0000000180017b48 f   libvcruntime:locks.obj
 0001:00016b90       __vcrt_uninitialize_locks  0000000180017b90 f   libvcruntime:locks.obj
 0001:00016bc8       rand                       0000000180017bc8 f   libucrt:rand.obj
 0001:00016bf4       srand                      0000000180017bf4 f   libucrt:rand.obj
 0001:00016cdc       fopen                      0000000180017cdc f   libucrt:fopen.obj
 0001:00016ce8       __acrt_initialize_stdio    0000000180017ce8 f   libucrt:_file.obj
 0001:00016e08       __acrt_iob_func            0000000180017e08 f   libucrt:_file.obj
 0001:00016e1c       __acrt_uninitialize_stdio  0000000180017e1c f   libucrt:_file.obj
 0001:00016e78       _lock_file                 0000000180017e78 f   libucrt:_file.obj
 0001:00016e84       _unlock_file               0000000180017e84 f   libucrt:_file.obj
 0001:00016e90       _getpid                    0000000180017e90 f   libucrt:getpid.obj
 0001:00016e98       _fclose_nolock             0000000180017e98 f   libucrt:fclose.obj
 0001:00016f1c       fclose                     0000000180017f1c f   libucrt:fclose.obj
 0001:00016f88       remove                     0000000180017f88 f   libucrt:unlink.obj
 0001:00016fd4       ??$?RV<lambda_7b91131dde12e1c3dfc74ff76b3f2eac>@@AEAV<lambda_dd75445284c072d0bd3768540cc698fa>@@V<lambda_16bc4ecb55b4718497c16bceaea2ceaf>@@@?$__crt_seh_guarded_call@H@@QEAAH$$QEAV<lambda_7b91131dde12e1c3dfc74ff76b3f2eac>@@AEAV<lambda_dd75445284c072d0bd3768540cc698fa>@@$$QEAV<lambda_16bc4ecb55b4718497c16bceaea2ceaf>@@@Z 0000000180017fd4 f i libucrt:output.obj
 0001:00017014       ??$?RV<lambda_aa279a7bcb127014629d5b1d62c7325d>@@AEAV<lambda_0a64b6a4deda75c01876f29c44fc5eb3>@@V<lambda_3323e69fbefe9d1a11713e670d47cdfa>@@@?$__crt_seh_guarded_call@H@@QEAAH$$QEAV<lambda_aa279a7bcb127014629d5b1d62c7325d>@@AEAV<lambda_0a64b6a4deda75c01876f29c44fc5eb3>@@$$QEAV<lambda_3323e69fbefe9d1a11713e670d47cdfa>@@@Z 0000000180018014 f i libucrt:output.obj
 0001:000171fc       ??$ensure_buffer_is_big_enough@D@formatting_buffer@__crt_stdio_output@@QEAA_N_K@Z 00000001800181fc f i libucrt:output.obj
 0001:000172a8       ??$is_wide_character_specifier@D@__crt_stdio_output@@YA_N_KDW4length_modifier@0@@Z 00000001800182a8 f i libucrt:output.obj
 0001:000172d8       ??$is_wide_character_specifier@_W@__crt_stdio_output@@YA_N_K_WW4length_modifier@0@@Z 00000001800182d8 f i libucrt:output.obj
 0001:0001731c       ??$type_case_integer_parse_into_buffer@I@?$output_processor@DV?$stream_output_adapter@D@__crt_stdio_output@@V?$standard_base@DV?$stream_output_adapter@D@__crt_stdio_output@@@2@@__crt_stdio_output@@AEAAXII_N@Z 000000018001831c f i libucrt:output.obj
 0001:0001731c       ??$type_case_integer_parse_into_buffer@I@?$output_processor@DV?$string_output_adapter@D@__crt_stdio_output@@V?$standard_base@DV?$string_output_adapter@D@__crt_stdio_output@@@2@@__crt_stdio_output@@AEAAXII_N@Z 000000018001831c f i libucrt:output.obj
 0001:0001731c       ??$type_case_integer_parse_into_buffer@I@?$output_processor@DV?$string_output_adapter@D@__crt_stdio_output@@V?$format_validation_base@DV?$string_output_adapter@D@__crt_stdio_output@@@2@@__crt_stdio_output@@AEAAXII_N@Z 000000018001831c f i libucrt:output.obj
 0001:0001731c       ??$type_case_integer_parse_into_buffer@I@?$output_processor@_WV?$stream_output_adapter@_W@__crt_stdio_output@@V?$standard_base@_WV?$stream_output_adapter@_W@__crt_stdio_output@@@2@@__crt_stdio_output@@AEAAXII_N@Z 000000018001831c f i libucrt:output.obj
 0001:0001731c       ??$type_case_integer_parse_into_buffer@I@?$output_processor@_WV?$string_output_adapter@_W@__crt_stdio_output@@V?$standard_base@_WV?$string_output_adapter@_W@__crt_stdio_output@@@2@@__crt_stdio_output@@AEAAXII_N@Z 000000018001831c f i libucrt:output.obj
 0001:000173b8       ??$type_case_integer_parse_into_buffer@_K@?$output_processor@DV?$string_output_adapter@D@__crt_stdio_output@@V?$format_validation_base@DV?$string_output_adapter@D@__crt_stdio_output@@@2@@__crt_stdio_output@@AEAAX_KI_N@Z 00000001800183b8 f i libucrt:output.obj
 0001:000173b8       ??$type_case_integer_parse_into_buffer@_K@?$output_processor@_WV?$string_output_adapter@_W@__crt_stdio_output@@V?$standard_base@_WV?$string_output_adapter@_W@__crt_stdio_output@@@2@@__crt_stdio_output@@AEAAX_KI_N@Z 00000001800183b8 f i libucrt:output.obj
 0001:000173b8       ??$type_case_integer_parse_into_buffer@_K@?$output_processor@DV?$string_output_adapter@D@__crt_stdio_output@@V?$standard_base@DV?$string_output_adapter@D@__crt_stdio_output@@@2@@__crt_stdio_output@@AEAAX_KI_N@Z 00000001800183b8 f i libucrt:output.obj
 0001:000173b8       ??$type_case_integer_parse_into_buffer@_K@?$output_processor@DV?$stream_output_adapter@D@__crt_stdio_output@@V?$standard_base@DV?$stream_output_adapter@D@__crt_stdio_output@@@2@@__crt_stdio_output@@AEAAX_KI_N@Z 00000001800183b8 f i libucrt:output.obj
 0001:000173b8       ??$type_case_integer_parse_into_buffer@_K@?$output_processor@_WV?$stream_output_adapter@_W@__crt_stdio_output@@V?$standard_base@_WV?$stream_output_adapter@_W@__crt_stdio_output@@@2@@__crt_stdio_output@@AEAAX_KI_N@Z 00000001800183b8 f i libucrt:output.obj
 0001:00017454       ??$write_multiple_characters@V?$stream_output_adapter@D@__crt_stdio_output@@D@__crt_stdio_output@@YAXAEBV?$stream_output_adapter@D@0@DHQEAH@Z 0000000180018454 f i libucrt:output.obj
 0001:000174d8       ??$write_multiple_characters@V?$stream_output_adapter@_W@__crt_stdio_output@@D@__crt_stdio_output@@YAXAEBV?$stream_output_adapter@_W@0@DHQEAH@Z 00000001800184d8 f i libucrt:output.obj
 0001:00017568       ??$write_multiple_characters@V?$string_output_adapter@D@__crt_stdio_output@@D@__crt_stdio_output@@YAXAEBV?$string_output_adapter@D@0@DHQEAH@Z 0000000180018568 f i libucrt:output.obj
 0001:000175c4       ??$write_multiple_characters@V?$string_output_adapter@_W@__crt_stdio_output@@D@__crt_stdio_output@@YAXAEBV?$string_output_adapter@_W@0@DHQEAH@Z 00000001800185c4 f i libucrt:output.obj
 0001:00017634       ??0?$output_processor@DV?$stream_output_adapter@D@__crt_stdio_output@@V?$standard_base@DV?$stream_output_adapter@D@__crt_stdio_output@@@2@@__crt_stdio_output@@QEAA@AEBV?$stream_output_adapter@D@1@_KQEBDQEAU__crt_locale_pointers@@QEAD@Z 0000000180018634 f i libucrt:output.obj
 0001:00017634       ??0?$output_processor@DV?$string_output_adapter@D@__crt_stdio_output@@V?$format_validation_base@DV?$string_output_adapter@D@__crt_stdio_output@@@2@@__crt_stdio_output@@QEAA@AEBV?$string_output_adapter@D@1@_KQEBDQEAU__crt_locale_pointers@@QEAD@Z 0000000180018634 f i libucrt:output.obj
 0001:00017634       ??0?$output_processor@DV?$string_output_adapter@D@__crt_stdio_output@@V?$standard_base@DV?$string_output_adapter@D@__crt_stdio_output@@@2@@__crt_stdio_output@@QEAA@AEBV?$string_output_adapter@D@1@_KQEBDQEAU__crt_locale_pointers@@QEAD@Z 0000000180018634 f i libucrt:output.obj
 0001:000176b0       ??0?$output_processor@_WV?$stream_output_adapter@_W@__crt_stdio_output@@V?$standard_base@_WV?$stream_output_adapter@_W@__crt_stdio_output@@@2@@__crt_stdio_output@@QEAA@AEBV?$stream_output_adapter@_W@1@_KQEB_WQEAU__crt_locale_pointers@@QEAD@Z 00000001800186b0 f i libucrt:output.obj
 0001:000176b0       ??0?$output_processor@_WV?$string_output_adapter@_W@__crt_stdio_output@@V?$standard_base@_WV?$string_output_adapter@_W@__crt_stdio_output@@@2@@__crt_stdio_output@@QEAA@AEBV?$string_output_adapter@_W@1@_KQEB_WQEAU__crt_locale_pointers@@QEAD@Z 00000001800186b0 f i libucrt:output.obj
 0001:00017730       ??0_LocaleUpdate@@QEAA@QEAU__crt_locale_pointers@@@Z 0000000180018730 f i libucrt:output.obj
 0001:000179a0       ?force_decimal_point@__crt_stdio_output@@YAXPEADQEAU__crt_locale_pointers@@@Z 00000001800189a0 f i libucrt:output.obj
 0001:00017a10       ?parse_int_from_format_string@?$output_processor@DV?$string_output_adapter@D@__crt_stdio_output@@V?$format_validation_base@DV?$string_output_adapter@D@__crt_stdio_output@@@2@@__crt_stdio_output@@AEAA_NQEAH@Z 0000000180018a10 f i libucrt:output.obj
 0001:00017a10       ?parse_int_from_format_string@?$output_processor@DV?$string_output_adapter@D@__crt_stdio_output@@V?$standard_base@DV?$string_output_adapter@D@__crt_stdio_output@@@2@@__crt_stdio_output@@AEAA_NQEAH@Z 0000000180018a10 f i libucrt:output.obj
 0001:00017a10       ?parse_int_from_format_string@?$output_processor@DV?$stream_output_adapter@D@__crt_stdio_output@@V?$standard_base@DV?$stream_output_adapter@D@__crt_stdio_output@@@2@@__crt_stdio_output@@AEAA_NQEAH@Z 0000000180018a10 f i libucrt:output.obj
 0001:00017a94       ?parse_int_from_format_string@?$output_processor@_WV?$stream_output_adapter@_W@__crt_stdio_output@@V?$standard_base@_WV?$stream_output_adapter@_W@__crt_stdio_output@@@2@@__crt_stdio_output@@AEAA_NQEAH@Z 0000000180018a94 f i libucrt:output.obj
 0001:00017a94       ?parse_int_from_format_string@?$output_processor@_WV?$string_output_adapter@_W@__crt_stdio_output@@V?$standard_base@_WV?$string_output_adapter@_W@__crt_stdio_output@@@2@@__crt_stdio_output@@AEAA_NQEAH@Z 0000000180018a94 f i libucrt:output.obj
 0001:00017b14       ?process@?$output_processor@DV?$stream_output_adapter@D@__crt_stdio_output@@V?$standard_base@DV?$stream_output_adapter@D@__crt_stdio_output@@@2@@__crt_stdio_output@@QEAAHXZ 0000000180018b14 f i libucrt:output.obj
 0001:00017d24       ?process@?$output_processor@DV?$string_output_adapter@D@__crt_stdio_output@@V?$format_validation_base@DV?$string_output_adapter@D@__crt_stdio_output@@@2@@__crt_stdio_output@@QEAAHXZ 0000000180018d24 f i libucrt:output.obj
 0001:00017f38       ?process@?$output_processor@DV?$string_output_adapter@D@__crt_stdio_output@@V?$standard_base@DV?$string_output_adapter@D@__crt_stdio_output@@@2@@__crt_stdio_output@@QEAAHXZ 0000000180018f38 f i libucrt:output.obj
 0001:0001813c       ?process@?$output_processor@_WV?$stream_output_adapter@_W@__crt_stdio_output@@V?$standard_base@_WV?$stream_output_adapter@_W@__crt_stdio_output@@@2@@__crt_stdio_output@@QEAAHXZ 000000018001913c f i libucrt:output.obj
 0001:000183b4       ?process@?$output_processor@_WV?$string_output_adapter@_W@__crt_stdio_output@@V?$standard_base@_WV?$string_output_adapter@_W@__crt_stdio_output@@@2@@__crt_stdio_output@@QEAAHXZ 00000001800193b4 f i libucrt:output.obj
 0001:00018630       ?state_case_normal@?$output_processor@DV?$stream_output_adapter@D@__crt_stdio_output@@V?$standard_base@DV?$stream_output_adapter@D@__crt_stdio_output@@@2@@__crt_stdio_output@@AEAA_NXZ 0000000180019630 f i libucrt:output.obj
 0001:000186a0       ?state_case_normal@?$output_processor@DV?$string_output_adapter@D@__crt_stdio_output@@V?$format_validation_base@DV?$string_output_adapter@D@__crt_stdio_output@@@2@@__crt_stdio_output@@AEAA_NXZ 00000001800196a0 f i libucrt:output.obj
 0001:000186a0       ?state_case_normal@?$output_processor@DV?$string_output_adapter@D@__crt_stdio_output@@V?$standard_base@DV?$string_output_adapter@D@__crt_stdio_output@@@2@@__crt_stdio_output@@AEAA_NXZ 00000001800196a0 f i libucrt:output.obj
 0001:00018714       ?state_case_normal_tchar@?$output_processor@DV?$stream_output_adapter@D@__crt_stdio_output@@V?$standard_base@DV?$stream_output_adapter@D@__crt_stdio_output@@@2@@__crt_stdio_output@@AEAA_ND@Z 0000000180019714 f i libucrt:output.obj
 0001:000187a8       ?state_case_normal_tchar@?$output_processor@DV?$string_output_adapter@D@__crt_stdio_output@@V?$standard_base@DV?$string_output_adapter@D@__crt_stdio_output@@@2@@__crt_stdio_output@@AEAA_ND@Z 00000001800197a8 f i libucrt:output.obj
 0001:000187a8       ?state_case_normal_tchar@?$output_processor@DV?$string_output_adapter@D@__crt_stdio_output@@V?$format_validation_base@DV?$string_output_adapter@D@__crt_stdio_output@@@2@@__crt_stdio_output@@AEAA_ND@Z 00000001800197a8 f i libucrt:output.obj
 0001:00018840       ?state_case_size@?$output_processor@DV?$stream_output_adapter@D@__crt_stdio_output@@V?$standard_base@DV?$stream_output_adapter@D@__crt_stdio_output@@@2@@__crt_stdio_output@@AEAA_NXZ 0000000180019840 f i libucrt:output.obj
 0001:000189bc       ?state_case_size@?$output_processor@DV?$string_output_adapter@D@__crt_stdio_output@@V?$standard_base@DV?$string_output_adapter@D@__crt_stdio_output@@@2@@__crt_stdio_output@@AEAA_NXZ 00000001800199bc f i libucrt:output.obj
 0001:000189bc       ?state_case_size@?$output_processor@DV?$string_output_adapter@D@__crt_stdio_output@@V?$format_validation_base@DV?$string_output_adapter@D@__crt_stdio_output@@@2@@__crt_stdio_output@@AEAA_NXZ 00000001800199bc f i libucrt:output.obj
 0001:00018b38       ?state_case_size@?$output_processor@_WV?$stream_output_adapter@_W@__crt_stdio_output@@V?$standard_base@_WV?$stream_output_adapter@_W@__crt_stdio_output@@@2@@__crt_stdio_output@@AEAA_NXZ 0000000180019b38 f i libucrt:output.obj
 0001:00018cdc       ?state_case_size@?$output_processor@_WV?$string_output_adapter@_W@__crt_stdio_output@@V?$standard_base@_WV?$string_output_adapter@_W@__crt_stdio_output@@@2@@__crt_stdio_output@@AEAA_NXZ 0000000180019cdc f i libucrt:output.obj
 0001:00018e80       ?state_case_type@?$output_processor@DV?$stream_output_adapter@D@__crt_stdio_output@@V?$standard_base@DV?$stream_output_adapter@D@__crt_stdio_output@@@2@@__crt_stdio_output@@AEAA_NXZ 0000000180019e80 f i libucrt:output.obj
 0001:000190fc       ?state_case_type@?$output_processor@DV?$string_output_adapter@D@__crt_stdio_output@@V?$standard_base@DV?$string_output_adapter@D@__crt_stdio_output@@@2@@__crt_stdio_output@@AEAA_NXZ 000000018001a0fc f i libucrt:output.obj
 0001:000190fc       ?state_case_type@?$output_processor@DV?$string_output_adapter@D@__crt_stdio_output@@V?$format_validation_base@DV?$string_output_adapter@D@__crt_stdio_output@@@2@@__crt_stdio_output@@AEAA_NXZ 000000018001a0fc f i libucrt:output.obj
 0001:00019378       ?state_case_type@?$output_processor@_WV?$stream_output_adapter@_W@__crt_stdio_output@@V?$standard_base@_WV?$stream_output_adapter@_W@__crt_stdio_output@@@2@@__crt_stdio_output@@AEAA_NXZ 000000018001a378 f i libucrt:output.obj
 0001:00019644       ?state_case_type@?$output_processor@_WV?$string_output_adapter@_W@__crt_stdio_output@@V?$standard_base@_WV?$string_output_adapter@_W@__crt_stdio_output@@@2@@__crt_stdio_output@@AEAA_NXZ 000000018001a644 f i libucrt:output.obj
 0001:00019910       ?type_case_Z@?$output_processor@DV?$stream_output_adapter@D@__crt_stdio_output@@V?$standard_base@DV?$stream_output_adapter@D@__crt_stdio_output@@@2@@__crt_stdio_output@@AEAA_NXZ 000000018001a910 f i libucrt:output.obj
 0001:00019910       ?type_case_Z@?$output_processor@DV?$string_output_adapter@D@__crt_stdio_output@@V?$format_validation_base@DV?$string_output_adapter@D@__crt_stdio_output@@@2@@__crt_stdio_output@@AEAA_NXZ 000000018001a910 f i libucrt:output.obj
 0001:00019910       ?type_case_Z@?$output_processor@DV?$string_output_adapter@D@__crt_stdio_output@@V?$standard_base@DV?$string_output_adapter@D@__crt_stdio_output@@@2@@__crt_stdio_output@@AEAA_NXZ 000000018001a910 f i libucrt:output.obj
 0001:00019990       ?type_case_Z@?$output_processor@_WV?$stream_output_adapter@_W@__crt_stdio_output@@V?$standard_base@_WV?$stream_output_adapter@_W@__crt_stdio_output@@@2@@__crt_stdio_output@@AEAA_NXZ 000000018001a990 f i libucrt:output.obj
 0001:00019990       ?type_case_Z@?$output_processor@_WV?$string_output_adapter@_W@__crt_stdio_output@@V?$standard_base@_WV?$string_output_adapter@_W@__crt_stdio_output@@@2@@__crt_stdio_output@@AEAA_NXZ 000000018001a990 f i libucrt:output.obj
 0001:00019a10       ?type_case_a@?$output_processor@DV?$stream_output_adapter@D@__crt_stdio_output@@V?$standard_base@DV?$stream_output_adapter@D@__crt_stdio_output@@@2@@__crt_stdio_output@@AEAA_NXZ 000000018001aa10 f i libucrt:output.obj
 0001:00019a10       ?type_case_a@?$output_processor@DV?$string_output_adapter@D@__crt_stdio_output@@V?$format_validation_base@DV?$string_output_adapter@D@__crt_stdio_output@@@2@@__crt_stdio_output@@AEAA_NXZ 000000018001aa10 f i libucrt:output.obj
 0001:00019a10       ?type_case_a@?$output_processor@DV?$string_output_adapter@D@__crt_stdio_output@@V?$standard_base@DV?$string_output_adapter@D@__crt_stdio_output@@@2@@__crt_stdio_output@@AEAA_NXZ 000000018001aa10 f i libucrt:output.obj
 0001:00019c2c       ?type_case_a@?$output_processor@_WV?$string_output_adapter@_W@__crt_stdio_output@@V?$standard_base@_WV?$string_output_adapter@_W@__crt_stdio_output@@@2@@__crt_stdio_output@@AEAA_NXZ 000000018001ac2c f i libucrt:output.obj
 0001:00019c2c       ?type_case_a@?$output_processor@_WV?$stream_output_adapter@_W@__crt_stdio_output@@V?$standard_base@_WV?$stream_output_adapter@_W@__crt_stdio_output@@@2@@__crt_stdio_output@@AEAA_NXZ 000000018001ac2c f i libucrt:output.obj
 0001:00019e70       ?type_case_c_tchar@?$output_processor@DV?$string_output_adapter@D@__crt_stdio_output@@V?$format_validation_base@DV?$string_output_adapter@D@__crt_stdio_output@@@2@@__crt_stdio_output@@AEAA_ND@Z 000000018001ae70 f i libucrt:output.obj
 0001:00019e70       ?type_case_c_tchar@?$output_processor@DV?$stream_output_adapter@D@__crt_stdio_output@@V?$standard_base@DV?$stream_output_adapter@D@__crt_stdio_output@@@2@@__crt_stdio_output@@AEAA_ND@Z 000000018001ae70 f i libucrt:output.obj
 0001:00019e70       ?type_case_c_tchar@?$output_processor@DV?$string_output_adapter@D@__crt_stdio_output@@V?$standard_base@DV?$string_output_adapter@D@__crt_stdio_output@@@2@@__crt_stdio_output@@AEAA_ND@Z 000000018001ae70 f i libucrt:output.obj
 0001:00019f24       ?type_case_c_tchar@?$output_processor@_WV?$stream_output_adapter@_W@__crt_stdio_output@@V?$standard_base@_WV?$stream_output_adapter@_W@__crt_stdio_output@@@2@@__crt_stdio_output@@AEAA_N_W@Z 000000018001af24 f i libucrt:output.obj
 0001:00019f24       ?type_case_c_tchar@?$output_processor@_WV?$string_output_adapter@_W@__crt_stdio_output@@V?$standard_base@_WV?$string_output_adapter@_W@__crt_stdio_output@@@2@@__crt_stdio_output@@AEAA_N_W@Z 000000018001af24 f i libucrt:output.obj
 0001:00019fcc       ?type_case_integer@?$output_processor@DV?$stream_output_adapter@D@__crt_stdio_output@@V?$standard_base@DV?$stream_output_adapter@D@__crt_stdio_output@@@2@@__crt_stdio_output@@AEAA_NI_N@Z 000000018001afcc f i libucrt:output.obj
 0001:00019fcc       ?type_case_integer@?$output_processor@DV?$string_output_adapter@D@__crt_stdio_output@@V?$standard_base@DV?$string_output_adapter@D@__crt_stdio_output@@@2@@__crt_stdio_output@@AEAA_NI_N@Z 000000018001afcc f i libucrt:output.obj
 0001:00019fcc       ?type_case_integer@?$output_processor@_WV?$string_output_adapter@_W@__crt_stdio_output@@V?$standard_base@_WV?$string_output_adapter@_W@__crt_stdio_output@@@2@@__crt_stdio_output@@AEAA_NI_N@Z 000000018001afcc f i libucrt:output.obj
 0001:00019fcc       ?type_case_integer@?$output_processor@DV?$string_output_adapter@D@__crt_stdio_output@@V?$format_validation_base@DV?$string_output_adapter@D@__crt_stdio_output@@@2@@__crt_stdio_output@@AEAA_NI_N@Z 000000018001afcc f i libucrt:output.obj
 0001:00019fcc       ?type_case_integer@?$output_processor@_WV?$stream_output_adapter@_W@__crt_stdio_output@@V?$standard_base@_WV?$stream_output_adapter@_W@__crt_stdio_output@@@2@@__crt_stdio_output@@AEAA_NI_N@Z 000000018001afcc f i libucrt:output.obj
 0001:0001a16c       ?type_case_n@?$output_processor@DV?$string_output_adapter@D@__crt_stdio_output@@V?$standard_base@DV?$string_output_adapter@D@__crt_stdio_output@@@2@@__crt_stdio_output@@AEAA_NXZ 000000018001b16c f i libucrt:output.obj
 0001:0001a16c       ?type_case_n@?$output_processor@_WV?$string_output_adapter@_W@__crt_stdio_output@@V?$standard_base@_WV?$string_output_adapter@_W@__crt_stdio_output@@@2@@__crt_stdio_output@@AEAA_NXZ 000000018001b16c f i libucrt:output.obj
 0001:0001a16c       ?type_case_n@?$output_processor@DV?$string_output_adapter@D@__crt_stdio_output@@V?$format_validation_base@DV?$string_output_adapter@D@__crt_stdio_output@@@2@@__crt_stdio_output@@AEAA_NXZ 000000018001b16c f i libucrt:output.obj
 0001:0001a16c       ?type_case_n@?$output_processor@DV?$stream_output_adapter@D@__crt_stdio_output@@V?$standard_base@DV?$stream_output_adapter@D@__crt_stdio_output@@@2@@__crt_stdio_output@@AEAA_NXZ 000000018001b16c f i libucrt:output.obj
 0001:0001a16c       ?type_case_n@?$output_processor@_WV?$stream_output_adapter@_W@__crt_stdio_output@@V?$standard_base@_WV?$stream_output_adapter@_W@__crt_stdio_output@@@2@@__crt_stdio_output@@AEAA_NXZ 000000018001b16c f i libucrt:output.obj
 0001:0001a248       ?type_case_s@?$output_processor@DV?$string_output_adapter@D@__crt_stdio_output@@V?$format_validation_base@DV?$string_output_adapter@D@__crt_stdio_output@@@2@@__crt_stdio_output@@AEAA_NXZ 000000018001b248 f i libucrt:output.obj
 0001:0001a248       ?type_case_s@?$output_processor@DV?$string_output_adapter@D@__crt_stdio_output@@V?$standard_base@DV?$string_output_adapter@D@__crt_stdio_output@@@2@@__crt_stdio_output@@AEAA_NXZ 000000018001b248 f i libucrt:output.obj
 0001:0001a248       ?type_case_s@?$output_processor@DV?$stream_output_adapter@D@__crt_stdio_output@@V?$standard_base@DV?$stream_output_adapter@D@__crt_stdio_output@@@2@@__crt_stdio_output@@AEAA_NXZ 000000018001b248 f i libucrt:output.obj
 0001:0001a2d8       ?type_case_s@?$output_processor@_WV?$stream_output_adapter@_W@__crt_stdio_output@@V?$standard_base@_WV?$stream_output_adapter@_W@__crt_stdio_output@@@2@@__crt_stdio_output@@AEAA_NXZ 000000018001b2d8 f i libucrt:output.obj
 0001:0001a2d8       ?type_case_s@?$output_processor@_WV?$string_output_adapter@_W@__crt_stdio_output@@V?$standard_base@_WV?$string_output_adapter@_W@__crt_stdio_output@@@2@@__crt_stdio_output@@AEAA_NXZ 000000018001b2d8 f i libucrt:output.obj
 0001:0001a3a0       ?validate_stream_is_ansi_if_required@?$__acrt_stdio_char_traits@D@@SA_NQEAU_iobuf@@@Z 000000018001b3a0 f i libucrt:output.obj
 0001:0001a42c       ?write_stored_string_tchar@?$output_processor@DV?$stream_output_adapter@D@__crt_stdio_output@@V?$standard_base@DV?$stream_output_adapter@D@__crt_stdio_output@@@2@@__crt_stdio_output@@AEAA_ND@Z 000000018001b42c f i libucrt:output.obj
 0001:0001a504       ?write_stored_string_tchar@?$output_processor@DV?$string_output_adapter@D@__crt_stdio_output@@V?$format_validation_base@DV?$string_output_adapter@D@__crt_stdio_output@@@2@@__crt_stdio_output@@AEAA_ND@Z 000000018001b504 f i libucrt:output.obj
 0001:0001a504       ?write_stored_string_tchar@?$output_processor@DV?$string_output_adapter@D@__crt_stdio_output@@V?$standard_base@DV?$string_output_adapter@D@__crt_stdio_output@@@2@@__crt_stdio_output@@AEAA_ND@Z 000000018001b504 f i libucrt:output.obj
 0001:0001a5dc       ?write_stored_string_tchar@?$output_processor@_WV?$stream_output_adapter@_W@__crt_stdio_output@@V?$standard_base@_WV?$stream_output_adapter@_W@__crt_stdio_output@@@2@@__crt_stdio_output@@AEAA_N_W@Z 000000018001b5dc f i libucrt:output.obj
 0001:0001a6c8       ?write_stored_string_tchar@?$output_processor@_WV?$string_output_adapter@_W@__crt_stdio_output@@V?$standard_base@_WV?$string_output_adapter@_W@__crt_stdio_output@@@2@@__crt_stdio_output@@AEAA_N_W@Z 000000018001b6c8 f i libucrt:output.obj
 0001:0001a7b8       ?write_string@?$stream_output_adapter@D@__crt_stdio_output@@QEBAXQEBDHQEAH1@Z 000000018001b7b8 f i libucrt:output.obj
 0001:0001a8b0       ?write_string@?$stream_output_adapter@_W@__crt_stdio_output@@QEBAXQEB_WHQEAH1@Z 000000018001b8b0 f i libucrt:output.obj
 0001:0001a9bc       ?write_string@?$string_output_adapter@D@__crt_stdio_output@@QEBAXQEBDHQEAH1@Z 000000018001b9bc f i libucrt:output.obj
 0001:0001aa78       ?write_string@?$string_output_adapter@_W@__crt_stdio_output@@QEBAXQEB_WHQEAH1@Z 000000018001ba78 f i libucrt:output.obj
 0001:0001ab38       __stdio_common_vfprintf    000000018001bb38 f   libucrt:output.obj
 0001:0001abc4       __stdio_common_vfwprintf   000000018001bbc4 f   libucrt:output.obj
 0001:0001ac50       __stdio_common_vsnprintf_s 000000018001bc50 f   libucrt:output.obj
 0001:0001adac       __stdio_common_vsprintf    000000018001bdac f   libucrt:output.obj
 0001:0001afe0       __stdio_common_vswprintf   000000018001bfe0 f   libucrt:output.obj
 0001:0001b230       strncpy                    000000018001c230 f   libucrt:strncpy.obj
 0001:0001bd7c       ??$ftprintf@PEAU_iobuf@@PEB_WAEBQEB_WAEBQEB_WAEBI@?$__crt_char_traits@_W@@SAH$$QEAPEAU_iobuf@@$$QEAPEB_WAEBQEB_W2AEBI@Z 000000018001cd7c f i libucrt:assert.obj
 0001:0001bda4       _wassert                   000000018001cda4 f   libucrt:assert.obj
 0001:0001be28       fwprintf                   000000018001ce28 f i libucrt:assert.obj
 0001:0001be6c       swprintf                   000000018001ce6c f i libucrt:assert.obj
 0001:0001bfb4       getenv                     000000018001cfb4 f   libucrt:getenv.obj
 0001:0001bfbc       __acrt_call_reportfault    000000018001cfbc f   libucrt:invalid_parameter.obj
 0001:0001c118       __acrt_initialize_invalid_parameter_handler 000000018001d118 f   libucrt:invalid_parameter.obj
 0001:0001c120       _invalid_parameter         000000018001d120 f   libucrt:invalid_parameter.obj
 0001:0001c1c8       _invalid_parameter_noinfo  000000018001d1c8 f   libucrt:invalid_parameter.obj
 0001:0001c1e8       _invalid_parameter_noinfo_noreturn 000000018001d1e8 f   libucrt:invalid_parameter.obj
 0001:0001c218       _invoke_watson             000000018001d218 f   libucrt:invalid_parameter.obj
 0001:0001c260       __ascii_stricmp            000000018001d260 f   libucrt:stricmp.obj
 0001:0001c29c       _stricmp                   000000018001d29c f   libucrt:stricmp.obj
 0001:0001c2e4       _stricmp_l                 000000018001d2e4 f   libucrt:stricmp.obj
 0001:0001c398       terminate                  000000018001d398 f   libucrt:terminate.obj
 0001:0001c3c0       __acrt_initialize_new_handler 000000018001d3c0 f   libucrt:new_handler.obj
 0001:0001c3c8       _callnewh                  000000018001d3c8 f   libucrt:new_handler.obj
 0001:0001c408       _query_new_handler         000000018001d408 f   libucrt:new_handler.obj
 0001:0001c43c       malloc                     000000018001d43c f   libucrt:malloc.obj
 0001:0001c444       _seh_filter_dll            000000018001d444 f   libucrt:exception_filter.obj
 0001:0001c458       _seh_filter_exe            000000018001d458 f   libucrt:exception_filter.obj
 0001:0001c818       __acrt_initialize_thread_local_exit_callback 000000018001d818 f   libucrt:exit.obj
 0001:0001c820       _cexit                     000000018001d820 f   libucrt:exit.obj
 0001:0001c830       _exit                      000000018001d830 f   libucrt:exit.obj
 0001:0001c83c       _is_c_termination_complete 000000018001d83c f   libucrt:exit.obj
 0001:0001ca00       __acrt_allocate_buffer_for_argv 000000018001da00 f   libucrt:argv_parsing.obj
 0001:0001ca64       _configure_narrow_argv     000000018001da64 f   libucrt:argv_parsing.obj
 0001:0001cedc       __dcrt_get_or_create_narrow_environment_nolock 000000018001dedc f   libucrt:environment_initialization.obj
 0001:0001cee4       __dcrt_uninitialize_environments_nolock 000000018001dee4 f   libucrt:environment_initialization.obj
 0001:0001cf1c       _initialize_narrow_environment 000000018001df1c f   libucrt:environment_initialization.obj
 0001:0001cf24       ??$?RV<lambda_b8c45f8f788dd370798f47cfe8ac3a86>@@AEAV<lambda_4e60a939b0d047cfe11ddc22648dfba9>@@V<lambda_332c3edc96d0294ec56c57d38c1cdfd5>@@@?$__crt_seh_guarded_call@H@@QEAAH$$QEAV<lambda_b8c45f8f788dd370798f47cfe8ac3a86>@@AEAV<lambda_4e60a939b0d047cfe11ddc22648dfba9>@@$$QEAV<lambda_332c3edc96d0294ec56c57d38c1cdfd5>@@@Z 000000018001df24 f i libucrt:onexit.obj
 0001:0001cf60       ??$?RV<lambda_e24bbb7b643b32fcea6fa61b31d4c984>@@AEAV<lambda_275893d493268fdec8709772e3fcec0e>@@V<lambda_9d71df4d7cf3f480f8d633942495c3b0>@@@?$__crt_seh_guarded_call@H@@QEAAH$$QEAV<lambda_e24bbb7b643b32fcea6fa61b31d4c984>@@AEAV<lambda_275893d493268fdec8709772e3fcec0e>@@$$QEAV<lambda_9d71df4d7cf3f480f8d633942495c3b0>@@@Z 000000018001df60 f i libucrt:onexit.obj
 0001:0001d2dc       _crt_atexit                000000018001e2dc f   libucrt:onexit.obj
 0001:0001d2ec       _execute_onexit_table      000000018001e2ec f   libucrt:onexit.obj
 0001:0001d328       _initialize_onexit_table   000000018001e328 f   libucrt:onexit.obj
 0001:0001d368       _register_onexit_function  000000018001e368 f   libucrt:onexit.obj
 0001:0001d3f8       __acrt_uninitialize_command_line 000000018001e3f8 f   libucrt:argv_data.obj
 0001:0001d4e8       __acrt_initialize          000000018001e4e8 f   libucrt:initialization.obj
 0001:0001d4fc       __acrt_thread_attach       000000018001e4fc f   libucrt:initialization.obj
 0001:0001d510       __acrt_thread_detach       000000018001e510 f   libucrt:initialization.obj
 0001:0001d520       __acrt_uninitialize        000000018001e520 f   libucrt:initialization.obj
 0001:0001d534       __acrt_uninitialize_critical 000000018001e534 f   libucrt:initialization.obj
 0001:0001d544       free                       000000018001e544 f   libucrt:free.obj
 0001:0001d54c       _initterm                  000000018001e54c f   libucrt:initterm.obj
 0001:0001d5c4       _initterm_e                000000018001e5c4 f   libucrt:initterm.obj
 0001:0001d610       abort                      000000018001e610 f   libucrt:abort.obj
 0001:0001d668       strcpy_s                   000000018001e668 f   libucrt:strcpy_s.obj
 0001:0001d6c8       _free_base                 000000018001e6c8 f   libucrt:free_base.obj
 0001:0001d708       _malloc_base               000000018001e708 f   libucrt:malloc_base.obj
 0001:0001d768       _calloc_base               000000018001e768 f   libucrt:calloc_base.obj
 0001:0001d7e0       ??$is_overflow_condition@K@__crt_strtox@@YA_NIK@Z 000000018001e7e0 f i libucrt:atox.obj
 0001:0001d80c       ??$parse_integer@KV?$c_string_character_source@D@__crt_strtox@@@__crt_strtox@@YAKQEAU__crt_locale_pointers@@V?$c_string_character_source@D@0@H_N@Z 000000018001e80c f i libucrt:atox.obj
 0001:0001db20       ??$parse_integer@KV?$c_string_character_source@_W@__crt_strtox@@@__crt_strtox@@YAKQEAU__crt_locale_pointers@@V?$c_string_character_source@_W@0@H_N@Z 000000018001eb20 f i libucrt:atox.obj
 0001:0001e1f4       ??$?RV<lambda_46352004c1216016012b18bd6f87e700>@@AEAV<lambda_3bd07e1a1191394380780325891bf33f>@@V<lambda_334532d3f185bcaa59b5be82d7d22bff>@@@?$__crt_seh_guarded_call@X@@QEAAX$$QEAV<lambda_46352004c1216016012b18bd6f87e700>@@AEAV<lambda_3bd07e1a1191394380780325891bf33f>@@$$QEAV<lambda_334532d3f185bcaa59b5be82d7d22bff>@@@Z 000000018001f1f4 f i libucrt:per_thread_data.obj
 0001:0001e254       ??$?RV<lambda_5e887d1dcbef67a5eb4283622ba103bf>@@AEAV<lambda_4466841279450cc726390878d4a41900>@@V<lambda_341c25c0346d94847f1f3c463c57e077>@@@?$__crt_seh_guarded_call@X@@QEAAX$$QEAV<lambda_5e887d1dcbef67a5eb4283622ba103bf>@@AEAV<lambda_4466841279450cc726390878d4a41900>@@$$QEAV<lambda_341c25c0346d94847f1f3c463c57e077>@@@Z 000000018001f254 f i libucrt:per_thread_data.obj
 0001:0001e29c       ??$?RV<lambda_72d1df2b273a38828b1ce30cbf4cdab5>@@AEAV<lambda_876a65b173b8412d3a47c70a915b0cf4>@@V<lambda_41932305e351933ebe8f8be3ed8bb5dc>@@@?$__crt_seh_guarded_call@X@@QEAAX$$QEAV<lambda_72d1df2b273a38828b1ce30cbf4cdab5>@@AEAV<lambda_876a65b173b8412d3a47c70a915b0cf4>@@$$QEAV<lambda_41932305e351933ebe8f8be3ed8bb5dc>@@@Z 000000018001f29c f i libucrt:per_thread_data.obj
 0001:0001e2dc       ??$?RV<lambda_fb3a7dec4e47f37f22dae91bb15c9095>@@AEAV<lambda_698284760c8add0bfb0756c19673e34b>@@V<lambda_dfb8eca1e75fef3034a8fb18dd509707>@@@?$__crt_seh_guarded_call@X@@QEAAX$$QEAV<lambda_fb3a7dec4e47f37f22dae91bb15c9095>@@AEAV<lambda_698284760c8add0bfb0756c19673e34b>@@$$QEAV<lambda_dfb8eca1e75fef3034a8fb18dd509707>@@@Z 000000018001f2dc f i libucrt:per_thread_data.obj
 0001:0001e56c       __acrt_freeptd             000000018001f56c f   libucrt:per_thread_data.obj
 0001:0001e5b0       __acrt_getptd              000000018001f5b0 f   libucrt:per_thread_data.obj
 0001:0001e644       __acrt_getptd_noexit       000000018001f644 f   libucrt:per_thread_data.obj
 0001:0001e6e4       __acrt_initialize_ptd      000000018001f6e4 f   libucrt:per_thread_data.obj
 0001:0001e720       __acrt_uninitialize_ptd    000000018001f720 f   libucrt:per_thread_data.obj
 0001:0001e744       __acrt_errno_from_os_error 000000018001f744 f   libucrt:errno.obj
 0001:0001e78c       __acrt_errno_map_os_error  000000018001f78c f   libucrt:errno.obj
 0001:0001e7dc       __doserrno                 000000018001f7dc f   libucrt:errno.obj
 0001:0001e7fc       _errno                     000000018001f7fc f   libucrt:errno.obj
 0001:0001e81c       ?__acrt_stdio_allocate_stream@@YA?AV__crt_stdio_stream@@XZ 000000018001f81c f   libucrt:stream.obj
 0001:0001e878       ?__acrt_stdio_free_stream@@YAXV__crt_stdio_stream@@@Z 000000018001f878 f   libucrt:stream.obj
 0001:0001e9a8       ??$__acrt_stdio_parse_mode@D@@YA?AU__acrt_stdio_stream_mode@@QEBD@Z 000000018001f9a8 f i libucrt:openfile.obj
 0001:0001ec44       _openfile                  000000018001fc44 f   libucrt:openfile.obj
 0001:0001ee80       __acrt_AreFileApisANSI     000000018001fe80 f   libucrt:winapi_thunks.obj
 0001:0001eecc       __acrt_CompareStringEx     000000018001fecc f   libucrt:winapi_thunks.obj
 0001:0001efbc       __acrt_FlsAlloc            000000018001ffbc f   libucrt:winapi_thunks.obj
 0001:0001f014       __acrt_FlsFree             0000000180020014 f   libucrt:winapi_thunks.obj
 0001:0001f06c       __acrt_FlsGetValue         000000018002006c f   libucrt:winapi_thunks.obj
 0001:0001f0c4       __acrt_FlsSetValue         00000001800200c4 f   libucrt:winapi_thunks.obj
 0001:0001f12c       __acrt_InitializeCriticalSectionEx 000000018002012c f   libucrt:winapi_thunks.obj
 0001:0001f1a4       __acrt_LCMapStringEx       00000001800201a4 f   libucrt:winapi_thunks.obj
 0001:0001f294       __acrt_LocaleNameToLCID    0000000180020294 f   libucrt:winapi_thunks.obj
 0001:0001f2fc       __acrt_MessageBoxW         00000001800202fc f   libucrt:winapi_thunks.obj
 0001:0001f384       __acrt_can_show_message_box 0000000180020384 f   libucrt:winapi_thunks.obj
 0001:0001f3e0       __acrt_get_parent_window   00000001800203e0 f   libucrt:winapi_thunks.obj
 0001:0001f470       __acrt_initialize_winapi_thunks 0000000180020470 f   libucrt:winapi_thunks.obj
 0001:0001f4a8       __acrt_is_interactive      00000001800204a8 f   libucrt:winapi_thunks.obj
 0001:0001f57c       __acrt_is_packaged_app     000000018002057c f   libucrt:winapi_thunks.obj
 0001:0001f604       __acrt_uninitialize_winapi_thunks 0000000180020604 f   libucrt:winapi_thunks.obj
 0001:0001f648       _fcloseall                 0000000180020648 f   libucrt:closeall.obj
 0001:0001f6fc       __acrt_stdio_flush_nolock  00000001800206fc f   libucrt:fflush.obj
 0001:0001f774       _fflush_nolock             0000000180020774 f   libucrt:fflush.obj
 0001:0001f7c0       _flushall                  00000001800207c0 f   libucrt:fflush.obj
 0001:0001f8b0       fflush                     00000001800208b0 f   libucrt:fflush.obj
 0001:0001f8f4       __acrt_stdio_free_buffer_nolock 00000001800208f4 f   libucrt:_freebuf.obj
 0001:0001fb1c       __acrt_initialize_lowio    0000000180020b1c f   libucrt:ioinit.obj
 0001:0001fb58       __acrt_uninitialize_lowio  0000000180020b58 f   libucrt:ioinit.obj
 0001:0001fb98       ??$?RV<lambda_bfedae4ebbf01fab1bb6dcc6a9e276e0>@@AEAV<lambda_2fe9b910cf3cbf4a0ab98a02ba45b3ec>@@V<lambda_237c231691f317818eb88cc1d5d642d6>@@@?$__crt_seh_guarded_call@H@@QEAAH$$QEAV<lambda_bfedae4ebbf01fab1bb6dcc6a9e276e0>@@AEAV<lambda_2fe9b910cf3cbf4a0ab98a02ba45b3ec>@@$$QEAV<lambda_237c231691f317818eb88cc1d5d642d6>@@@Z 0000000180020b98 f i libucrt:close.obj
 0001:0001fc0c       _close                     0000000180020c0c f   libucrt:close.obj
 0001:0001fcb0       _close_nolock              0000000180020cb0 f   libucrt:close.obj
 0001:0001fd6c       _fileno                    0000000180020d6c f   libucrt:fileno.obj
 0001:0001fd94       __acrt_copy_path_to_wide_string 0000000180020d94 f   libucrt:string_utilities.obj
 0001:0001fe8c       _wremove                   0000000180020e8c f   libucrt:wunlink.obj
 0001:0001feb4       isdigit                    0000000180020eb4 f i libucrt:_ctype.obj
 0001:0001ff78       _tolower_l                 0000000180020f78 f   libucrt:tolower_toupper.obj
 0001:000200b8       tolower                    00000001800210b8 f   libucrt:tolower_toupper.obj
 0001:000200e4       ??$make_c_string_character_source@_WPEAPEA_W@__crt_strtox@@YA?AV?$c_string_character_source@_W@0@QEB_WQEAPEA_W@Z 00000001800210e4 f i libucrt:strtox.obj
 0001:000200e4       ??$make_c_string_character_source@DPEAPEAD@__crt_strtox@@YA?AV?$c_string_character_source@D@0@QEBDQEAPEAD@Z 00000001800210e4 f i libucrt:strtox.obj
 0001:000200f8       strtol                     00000001800210f8 f   libucrt:strtox.obj
 0001:00020128       wcstol                     0000000180021128 f   libucrt:strtox.obj
 0001:00020158       _mbtowc_l                  0000000180021158 f   libucrt:mbtowc.obj
 0001:000202a0       mbtowc                     00000001800212a0 f   libucrt:mbtowc.obj
 0001:000202a8       _wctomb_s_l                00000001800212a8 f   libucrt:wctomb.obj
 0001:0002042c       wctomb_s                   000000018002142c f   libucrt:wctomb.obj
 0001:00020440       strnlen                    0000000180021440 f   libucrt:strnlen.obj
 0001:0002059c       wcsnlen                    000000018002159c f   libucrt:strnlen.obj
 0001:0002078c       __acrt_update_locale_info  000000018002178c f   libucrt:locale_update.obj
 0001:000207c0       __acrt_update_multibyte_info 00000001800217c0 f   libucrt:locale_update.obj
 0001:000207f4       ?__acrt_fp_classify@@YA?AW4__acrt_fp_class@@AEBN@Z 00000001800217f4 f i libucrt:cvt.obj
 0001:0002122c       __acrt_fp_format           000000018002222c f   libucrt:cvt.obj
 0001:00021470       _fputwc_nolock             0000000180022470 f   libucrt:fputwc.obj
 0001:000215ec       _fputc_nolock              00000001800225ec f   libucrt:fputc.obj
 0001:00021604       _get_printf_count_output   0000000180022604 f   libucrt:printf_count_output.obj
 0001:0002161c       __acrt_stdio_begin_temporary_buffering_nolock 000000018002261c f   libucrt:_sftbuf.obj
 0001:000216ec       __acrt_stdio_end_temporary_buffering_nolock 00000001800226ec f   libucrt:_sftbuf.obj
 0001:00021728       __acrt_set_locale_changed  0000000180022728 f   libucrt:wsetlocale.obj
 0001:00021734       __acrt_uninitialize_locale 0000000180022734 f   libucrt:wsetlocale.obj
 0001:0002177c       _query_app_type            000000018002277c f   libucrt:report_runtime_error.obj
 0001:000218ac       _itow_s                    00000001800228ac f   libucrt:xtoa.obj
 0001:000218cc       _set_error_mode            00000001800228cc f   libucrt:set_error_mode.obj
 0001:0002190c       wcscat_s                   000000018002290c f   libucrt:wcscat_s.obj
 0001:0002198c       wcscpy_s                   000000018002298c f   libucrt:wcscpy_s.obj
 0001:000219f4       wcsncat_s                  00000001800229f4 f   libucrt:wcsncat_s.obj
 0001:00021b1c       __acrt_show_wide_message_box 0000000180022b1c f   libucrt:crtmbox.obj
 0001:00021c38       ??$?RV<lambda_7a5ef57ff966f610505f1d28a3d40618>@@AEAV<lambda_b721fa326cdb32351d23dfa67958c160>@@V<lambda_5e0fb27672408a07956fe59e48ccb2aa>@@@?$__crt_seh_guarded_call@H@@QEAAH$$QEAV<lambda_7a5ef57ff966f610505f1d28a3d40618>@@AEAV<lambda_b721fa326cdb32351d23dfa67958c160>@@$$QEAV<lambda_5e0fb27672408a07956fe59e48ccb2aa>@@@Z 0000000180022c38 f i libucrt:setvbuf.obj
 0001:00021d68       setvbuf                    0000000180022d68 f   libucrt:setvbuf.obj
 0001:00021e08       ??$?RV<lambda_c36588078e9f5dfd39652860aa6b3aaf>@@AEAV<lambda_ec61778202f4f5fc7e7711acc23c3bca>@@V<lambda_dc9d2797ccde5d239b4a0efae8ebd7db>@@@?$__crt_seh_guarded_call@P6AXH@Z@@QEAAP6AXH@Z$$QEAV<lambda_c36588078e9f5dfd39652860aa6b3aaf>@@AEAV<lambda_ec61778202f4f5fc7e7711acc23c3bca>@@$$QEAV<lambda_dc9d2797ccde5d239b4a0efae8ebd7db>@@@Z 0000000180022e08 f i libucrt:signal.obj
 0001:00021e50       __acrt_get_sigabrt_handler 0000000180022e50 f   libucrt:signal.obj
 0001:00021e80       __acrt_initialize_signal_handlers 0000000180022e80 f   libucrt:signal.obj
 0001:00021ea0       raise                      0000000180022ea0 f   libucrt:signal.obj
 0001:0002213c       _strnicoll                 000000018002313c f   libucrt:strnicol.obj
 0001:00022154       _strnicoll_l               0000000180023154 f   libucrt:strnicol.obj
 0001:00022254       __acrt_initialize_locks    0000000180023254 f   libucrt:locks.obj
 0001:0002229c       __acrt_lock                000000018002329c f   libucrt:locks.obj
 0001:000222b8       __acrt_uninitialize_locks  00000001800232b8 f   libucrt:locks.obj
 0001:000222f0       __acrt_unlock              00000001800232f0 f   libucrt:locks.obj
 0001:000227e8       ?expand_if_necessary@?$argument_list@D@?A0xca0879c4@@AEAAHXZ 00000001800237e8 f i libucrt:argv_wildcards.obj
 0001:000228b0       __acrt_expand_narrow_argv_wildcards 00000001800238b0 f   libucrt:argv_wildcards.obj
 0001:000228b8       ??$?RV<lambda_99476a1ad63dd22509b5d3e65b0ffc95>@@AEAV<lambda_ad1ced32f4ac17aa236e5ef05d6b3b7c>@@V<lambda_f7424dd8d45958661754dc4f2697e9c3>@@@?$__crt_seh_guarded_call@X@@QEAAX$$QEAV<lambda_99476a1ad63dd22509b5d3e65b0ffc95>@@AEAV<lambda_ad1ced32f4ac17aa236e5ef05d6b3b7c>@@$$QEAV<lambda_f7424dd8d45958661754dc4f2697e9c3>@@@Z 00000001800238b8 f i libucrt:mbctype.obj
 0001:00022fb4       __acrt_initialize_multibyte 0000000180023fb4 f   libucrt:mbctype.obj
 0001:00022fdc       __acrt_update_thread_multibyte_data 0000000180023fdc f   libucrt:mbctype.obj
 0001:0002309c       _setmbcp_nolock            000000018002409c f   libucrt:mbctype.obj
 0001:000233bc       _ismbblead                 00000001800243bc f   libucrt:ismbbyte.obj
 0001:000233d0       __acrt_initialize_command_line 00000001800243d0 f   libucrt:argv_data.obj
 0001:000233f8       __dcrt_get_narrow_environment_from_os 00000001800243f8 f   libucrt:get_environment_from_os.obj
 0001:000238d8       __dcrt_set_variable_in_narrow_environment_nolock 00000001800248d8 f   libucrt:setenv.obj
 0001:000238e0       _recalloc                  00000001800248e0 f   libucrt:recalloc.obj
 0001:000238e8       _recalloc_base             00000001800248e8 f   libucrt:recalloc.obj
 0001:00023980       __acrt_initialize_heap     0000000180024980 f   libucrt:heap_handle.obj
 0001:0002399c       __acrt_uninitialize_heap   000000018002499c f   libucrt:heap_handle.obj
 0001:000239a8       __acrt_execute_initializers 00000001800249a8 f   libucrt:shared_initialization.obj
 0001:00023a3c       __acrt_execute_uninitializers 0000000180024a3c f   libucrt:shared_initialization.obj
 0001:00023a8c       __acrt_has_user_matherr    0000000180024a8c f   libucrt:matherr.obj
 0001:00023aac       __acrt_initialize_user_matherr 0000000180024aac f   libucrt:matherr.obj
 0001:00023ab4       __acrt_invoke_user_matherr 0000000180024ab4 f   libucrt:matherr.obj
 0001:00023afc       _query_new_mode            0000000180024afc f   libucrt:new_mode.obj
 0001:00023b04       __pctype_func              0000000180024b04 f   libucrt:ctype.obj
 0001:00023b34       iswctype                   0000000180024b34 f   libucrt:iswctype.obj
 0001:00023ba4       _isctype_l                 0000000180024ba4 f   libucrt:isctype.obj
 0001:00023cb4       __acrt_add_locale_ref      0000000180024cb4 f   libucrt:locale_refcounting.obj
 0001:00023d40       __acrt_free_locale         0000000180024d40 f   libucrt:locale_refcounting.obj
 0001:00023eb8       __acrt_locale_add_lc_time_reference 0000000180024eb8 f   libucrt:locale_refcounting.obj
 0001:00023ee0       __acrt_locale_free_lc_time_if_unreferenced 0000000180024ee0 f   libucrt:locale_refcounting.obj
 0001:00023f18       __acrt_locale_release_lc_time_reference 0000000180024f18 f   libucrt:locale_refcounting.obj
 0001:00023f40       __acrt_release_locale_ref  0000000180024f40 f   libucrt:locale_refcounting.obj
 0001:00023fe8       __acrt_update_thread_locale_data 0000000180024fe8 f   libucrt:locale_refcounting.obj
 0001:00024058       _updatetlocinfoEx_nolock   0000000180025058 f   libucrt:locale_refcounting.obj
 0001:000240d0       strncmp                    00000001800250d0 f   libucrt:strncmp.obj
 0001:00024150       __ascii_strnicmp           0000000180025150 f   libucrt:strnicmp.obj
 0001:00024198       _strnicmp                  0000000180025198 f   libucrt:strnicmp.obj
 0001:000241e8       _strnicmp_l                00000001800251e8 f   libucrt:strnicmp.obj
 0001:00024908       _sopen_nolock              0000000180025908 f   libucrt:open.obj
 0001:00024998       _sopen_s                   0000000180025998 f   libucrt:open.obj
 0001:000249cc       _wsopen_nolock             00000001800259cc f   libucrt:open.obj
 0001:00024e84       __acrt_DownlevelLocaleNameToLCID 0000000180025e84 f   libucrt:lcidtoname_downlevel.obj
 0001:00024eb8       ??$?RV<lambda_b521505b218e5242e90febf6bfebc422>@@AEAV<lambda_6978c1fb23f02e42e1d9e99668cc68aa>@@V<lambda_314360699dd331753a4119843814e9a7>@@@?$__crt_seh_guarded_call@H@@QEAAH$$QEAV<lambda_b521505b218e5242e90febf6bfebc422>@@AEAV<lambda_6978c1fb23f02e42e1d9e99668cc68aa>@@$$QEAV<lambda_314360699dd331753a4119843814e9a7>@@@Z 0000000180025eb8 f i libucrt:commit.obj
 0001:00024f44       _commit                    0000000180025f44 f   libucrt:commit.obj
 0001:00025578       _write                     0000000180026578 f   libucrt:write.obj
 0001:00025664       _write_nolock              0000000180026664 f   libucrt:write.obj
 0001:00025948       __acrt_lowio_create_handle_array 0000000180026948 f   libucrt:osfinfo.obj
 0001:000259e0       __acrt_lowio_destroy_handle_array 00000001800269e0 f   libucrt:osfinfo.obj
 0001:00025a30       __acrt_lowio_ensure_fh_exists 0000000180026a30 f   libucrt:osfinfo.obj
 0001:00025ae8       __acrt_lowio_lock_fh       0000000180026ae8 f   libucrt:osfinfo.obj
 0001:00025b0c       __acrt_lowio_set_os_handle 0000000180026b0c f   libucrt:osfinfo.obj
 0001:00025bcc       __acrt_lowio_unlock_fh     0000000180026bcc f   libucrt:osfinfo.obj
 0001:00025bf0       _alloc_osfhnd              0000000180026bf0 f   libucrt:osfinfo.obj
 0001:00025d20       _free_osfhnd               0000000180026d20 f   libucrt:osfinfo.obj
 0001:00025ddc       _get_osfhandle             0000000180026ddc f   libucrt:osfinfo.obj
 0001:00025e54       _isleadbyte_l              0000000180026e54 f i libucrt:_wctype.obj
 0001:000261f0       __acrt_LCMapStringA        00000001800271f0 f   libucrt:lcmapstringa.obj
 0001:00026288       __acrt_fp_strflt_to_string 0000000180027288 f   libucrt:_fptostr.obj
 0001:00026350       ?divide@__crt_strtox@@YA_KAEAUbig_integer@1@AEBU21@@Z 0000000180027350 f i libucrt:cfout.obj
 0001:00026820       __acrt_fltout              0000000180027820 f   libucrt:cfout.obj
 0001:00027e24       __acrt_stdio_flush_and_write_narrow_nolock 0000000180028e24 f   libucrt:_flsbuf.obj
 0001:00027f0c       __acrt_stdio_flush_and_write_wide_nolock 0000000180028f0c f   libucrt:_flsbuf.obj
 0001:00027ff8       _isatty                    0000000180028ff8 f   libucrt:isatty.obj
 0001:00028058       __acrt_locale_free_monetary 0000000180029058 f   libucrt:initmon.obj
 0001:00028164       __acrt_locale_free_numeric 0000000180029164 f   libucrt:initnum.obj
 0001:00028228       __acrt_locale_free_time    0000000180029228 f   libucrt:inittime.obj
 0001:00028330       __acrt_GetStringTypeA      0000000180029330 f   libucrt:getstringtypea.obj
 0001:00028878       __acrt_CompareStringA      0000000180029878 f   libucrt:comparestringa.obj
 0001:000289e0       qsort                      00000001800299e0 f   libucrt:qsort.obj
 0001:00028d14       strncpy_s                  0000000180029d14 f   libucrt:strncpy_s.obj
 0001:00028de8       strpbrk                    0000000180029de8 f   libucrt:strpbrk.obj
 0001:00028e88       _mbsdec                    0000000180029e88 f   libucrt:mbsdec.obj
 0001:00028e90       _mbsdec_l                  0000000180029e90 f   libucrt:mbsdec.obj
 0001:00028f40       _msize                     0000000180029f40 f   libucrt:msize.obj
 0001:00028f7c       _realloc_base              0000000180029f7c f   libucrt:realloc_base.obj
 0001:00029000       _get_fmode                 000000018002a000 f   libucrt:setmode.obj
 0001:00029030       _setmode_nolock            000000018002a030 f   libucrt:setmode.obj
 0001:00029110       _chsize_nolock             000000018002a110 f   libucrt:chsize.obj
 0001:000297bc       _read_nolock               000000018002a7bc f   libucrt:read.obj
 0001:00029db0       _lseeki64                  000000018002adb0 f   libucrt:lseek.obj
 0001:00029db8       _lseeki64_nolock           000000018002adb8 f   libucrt:lseek.obj
 0001:00029dc0       _putwch_nolock             000000018002adc0 f   libucrt:putwch.obj
 0001:00029e1c       __strncnt                  000000018002ae1c f   libucrt:strncnt.obj
 0001:00029e34       fegetenv                   000000018002ae34 f   libucrt:fegetenv.obj
 0001:00029e54       fesetenv                   000000018002ae54 f   libucrt:fesetenv.obj
 0001:00029ea0       feholdexcept               000000018002aea0 f   libucrt:feholdexcept.obj
 0001:00029ef0       ceil                       000000018002aef0 f   libucrt:ceil.obj
 0001:00029fc0       log10                      000000018002afc0 f   libucrt:log10.obj
 0001:0002a56c       __acrt_stdio_allocate_buffer_nolock 000000018002b56c f   libucrt:_getbuf.obj
 0001:0002a5d0       __dcrt_lowio_initialize_console_output 000000018002b5d0 f   libucrt:initcon.obj
 0001:0002a60c       __dcrt_terminate_console_output 000000018002b60c f   libucrt:initcon.obj
 0001:0002a62c       _getfpcontrolword          000000018002b62c f   libucrt:_fenvutils.obj
 0001:0002a644       _getfpstatusword           000000018002b644 f   libucrt:_fenvutils.obj
 0001:0002a658       _setfpcontrolword          000000018002b658 f   libucrt:_fenvutils.obj
 0001:0002a664       _setfpstatusword           000000018002b664 f   libucrt:_fenvutils.obj
 0001:0002a6b4       _clearfp                   000000018002b6b4 f   libucrt:ieee.obj
 0001:0002a708       _controlfp                 000000018002b708 f   libucrt:ieee.obj
 0001:0002a714       _statusfp                  000000018002b714 f   libucrt:ieee.obj
 0001:0002ab18       _handle_error              000000018002bb18 f   libucrt:libm_error.obj
 0001:0002ac40       _handle_errorf             000000018002bc40 f   libucrt:libm_error.obj
 0001:0002ad74       _handle_nan                000000018002bd74 f   libucrt:libm_error.obj
 0001:0002ad90       _handle_nanf               000000018002bd90 f   libucrt:libm_error.obj
 0001:0002ada0       __acrt_initialize_fma3     000000018002bda0 f   libucrt:fma3_available.obj
 0001:0002ae10       _log10_special             000000018002be10 f   libucrt:log_special.obj
 0001:0002aee0       _get_fpsr                  000000018002bee0 f   libucrt:fpsr.obj
 0001:0002aef0       _set_fpsr                  000000018002bef0 f   libucrt:fpsr.obj
 0001:0002aefa       _fclrf                     000000018002befa f   libucrt:fpsr.obj
 0001:0002af0e       _frnd                      000000018002bf0e f   libucrt:fpsr.obj
 0001:0002af30       _raise_exc                 000000018002bf30 f   libucrt:fpexcept.obj
 0001:0002af58       _raise_exc_ex              000000018002bf58 f   libucrt:fpexcept.obj
 0001:0002b260       _raise_excf                000000018002c260 f   libucrt:fpexcept.obj
 0001:0002b28c       _set_errno_from_matherr    000000018002c28c f   libucrt:fpexcept.obj
 0001:0002b2bc       _clrfp                     000000018002c2bc f   libucrt:fpctrl.obj
 0001:0002b2dc       _ctrlfp                    000000018002c2dc f   libucrt:fpctrl.obj
 0001:0002b358       _set_statfp                000000018002c358 f   libucrt:fpctrl.obj
 0001:0002b378       _statfp                    000000018002c378 f   libucrt:fpctrl.obj
 0001:0002b38a       IsProcessorFeaturePresent  000000018002c38a f   kernel32:KERNEL32.dll
 0001:0002b390       RtlUnwindEx                000000018002c390 f   kernel32:KERNEL32.dll
 0001:0002b396       SystemFunction036          000000018002c396 f   advapi32:ADVAPI32.dll
 0001:0002b39c       ?DloadAcquireSectionWriteAccess@@YAXXZ 000000018002c39c f i DelayImp:delayhlp.obj
 0001:0002b458       ?DloadGetSRWLockFunctionPointers@@YAEXZ 000000018002c458 f i DelayImp:delayhlp.obj
 0001:0002b4f4       ?DloadMakePermanentImageCommit@@YAXPEAX_K@Z 000000018002c4f4 f i DelayImp:delayhlp.obj
 0001:0002b58c       ?DloadObtainSection@@YAPEAXPEAK0@Z 000000018002c58c f i DelayImp:delayhlp.obj
 0001:0002b624       ?DloadProtectSection@@YAXKPEAK@Z 000000018002c624 f i DelayImp:delayhlp.obj
 0001:0002b6b4       ?DloadReleaseSectionWriteAccess@@YAXXZ 000000018002c6b4 f i DelayImp:delayhlp.obj
 0001:0002b758       __delayLoadHelper2         000000018002c758 f   DelayImp:delayhlp.obj
 0001:0002ba60       _FindPESection             000000018002ca60 f   LIBCMT:pesect.obj
 0001:0002bab0       _IsNonwritableInCurrentImage 000000018002cab0 f   LIBCMT:pesect.obj
 0001:0002bb00       _ValidateImageBase         000000018002cb00 f   LIBCMT:pesect.obj
 0001:0002bb30       __GSHandlerCheck           000000018002cb30 f   LIBCMT:_gshandler_.obj
 0001:0002bb50       __GSHandlerCheckCommon     000000018002cb50 f   LIBCMT:_gshandler_.obj
 0001:0002bbc0       __chkstk                   000000018002cbc0 f   LIBCMT:_chkstk_.obj
 0001:0002bbc0       _alloca_probe              000000018002cbc0 f   LIBCMT:_chkstk_.obj
 0001:0002bc14       strrchr                    000000018002cc14 f   libvcruntime:strrchr.obj
 0001:0002bd70       memcmp                     000000018002cd70 f   libvcruntime:memcmp.obj
 0001:0002be38       strchr                     000000018002ce38 f   libvcruntime:strchr.obj
 0001:0002bec4       __GSHandlerCheck_EH        000000018002cec4 f   LIBCMT:gshandlereh.obj
 0001:0002bf60       cos                        000000018002cf60 f   libucrt:cos.obj
 0001:0002c4e0       cosf                       000000018002d4e0 f   libucrt:cosf.obj
 0001:0002c9e0       expf                       000000018002d9e0 f   libucrt:expf.obj
 0001:0002cc88       floor                      000000018002dc88 f   libucrt:floor.obj
 0001:0002cd40       powf                       000000018002dd40 f   libucrt:powf.obj
 0001:0002dc10       sin                        000000018002ec10 f   libucrt:sin.obj
 0001:0002e180       sinf                       000000018002f180 f   libucrt:sinf.obj
 0001:0002e880       __remainder_piby2_forAsm   000000018002f880 f   libucrt:remainder_piby2_forasm.obj
 0001:0002ea90       __remainder_piby2_cw_forAsm 000000018002fa90 f   libucrt:remainder_piby2_forasm.obj
 0001:0002ebd0       __remainder_piby2_fma3     000000018002fbd0 f   libucrt:remainder_piby2_forfma3.obj
 0001:0002edc0       __remainder_piby2_fma3_bdl 000000018002fdc0 f   libucrt:remainder_piby2_forfma3.obj
 0001:0002ee38       _cos_special               000000018002fe38 f   libucrt:sincos_special.obj
 0001:0002ee4c       _cosf_special              000000018002fe4c f   libucrt:sincos_special.obj
 0001:0002ee60       _sin_special               000000018002fe60 f   libucrt:sincos_special.obj
 0001:0002efa4       _sinf_special              000000018002ffa4 f   libucrt:sincos_special.obj
 0001:0002efc0       __remainder_piby2d2f_forAsm 000000018002ffc0 f   libucrt:remainder_piby2f_forasm.obj
 0001:0002f110       _expf_special              0000000180030110 f   libucrt:exp_special.obj
 0001:0002f1b8       _powf_special              00000001800301b8 f   libucrt:pow_special.obj
 0001:0002f350       __remainder_piby2d2f_forC  0000000180030350 f   libucrt:remainder_piby2f_forc.obj
 0001:0002f4f0       _guard_dispatch_icall_nop  00000001800304f0 f   LIBCMT:_guard_dispatch_.obj
 0001:000314a0       ??__Fs_path@?1??temporary_path@cimg@cimg_library@@YAPEBDQEBD_N@Z@YAXXZ 00000001800324a0 f i image.obj
 0001:000314c0       ??__Fs_path@?1??programfiles_path@cimg@cimg_library@@YAPEBDQEBD_N@Z@YAXXZ 00000001800324c0 f i image.obj
 0001:000314e0       ??__Fs_path@?1??imagemagick_path@cimg@cimg_library@@YAPEBDQEBD_N@Z@YAXXZ 00000001800324e0 f i image.obj
 0001:00031500       ??__Fs_path@?1??graphicsmagick_path@cimg@cimg_library@@YAPEBDQEBD_N@Z@YAXXZ 0000000180032500 f i image.obj
 0001:00031520       ??__Fs_path@?1??medcon_path@cimg@cimg_library@@YAPEBDQEBD_N@Z@YAXXZ 0000000180032520 f i image.obj
 0001:00031540       ??__Fres@?1??strbuffersize@cimg@cimg_library@@YAPEBDK@Z@YAXXZ 0000000180032540 f i image.obj
 0002:00000000       __imp_SystemFunction036    0000000180033000     advapi32:ADVAPI32.dll
 0002:00000008       \177ADVAPI32_NULL_THUNK_DATA 0000000180033008     advapi32:ADVAPI32.dll
 0002:00000010       __imp_WaitForSingleObject  0000000180033010     kernel32:KERNEL32.dll
 0002:00000018       __imp_ReleaseMutex         0000000180033018     kernel32:KERNEL32.dll
 0002:00000020       __imp_GetLocalTime         0000000180033020     kernel32:KERNEL32.dll
 0002:00000028       __imp_GetModuleHandleA     0000000180033028     kernel32:KERNEL32.dll
 0002:00000030       __imp_VirtualQuery         0000000180033030     kernel32:KERNEL32.dll
 0002:00000038       __imp_VirtualProtect       0000000180033038     kernel32:KERNEL32.dll
 0002:00000040       __imp_CloseHandle          0000000180033040     kernel32:KERNEL32.dll
 0002:00000048       __imp_EnterCriticalSection 0000000180033048     kernel32:KERNEL32.dll
 0002:00000050       __imp_LeaveCriticalSection 0000000180033050     kernel32:KERNEL32.dll
 0002:00000058       __imp_DeleteCriticalSection 0000000180033058     kernel32:KERNEL32.dll
 0002:00000060       __imp_SetEvent             0000000180033060     kernel32:KERNEL32.dll
 0002:00000068       __imp_ResetEvent           0000000180033068     kernel32:KERNEL32.dll
 0002:00000070       __imp_WaitForSingleObjectEx 0000000180033070     kernel32:KERNEL32.dll
 0002:00000078       __imp_CreateEventW         0000000180033078     kernel32:KERNEL32.dll
 0002:00000080       __imp_GetModuleHandleW     0000000180033080     kernel32:KERNEL32.dll
 0002:00000088       __imp_GetProcAddress       0000000180033088     kernel32:KERNEL32.dll
 0002:00000090       __imp_RtlCaptureContext    0000000180033090     kernel32:KERNEL32.dll
 0002:00000098       __imp_RtlLookupFunctionEntry 0000000180033098     kernel32:KERNEL32.dll
 0002:000000a0       __imp_RtlVirtualUnwind     00000001800330a0     kernel32:KERNEL32.dll
 0002:000000a8       __imp_UnhandledExceptionFilter 00000001800330a8     kernel32:KERNEL32.dll
 0002:000000b0       __imp_SetUnhandledExceptionFilter 00000001800330b0     kernel32:KERNEL32.dll
 0002:000000b8       __imp_GetCurrentProcess    00000001800330b8     kernel32:KERNEL32.dll
 0002:000000c0       __imp_TerminateProcess     00000001800330c0     kernel32:KERNEL32.dll
 0002:000000c8       __imp_IsProcessorFeaturePresent 00000001800330c8     kernel32:KERNEL32.dll
 0002:000000d0       __imp_IsDebuggerPresent    00000001800330d0     kernel32:KERNEL32.dll
 0002:000000d8       __imp_GetStartupInfoW      00000001800330d8     kernel32:KERNEL32.dll
 0002:000000e0       __imp_QueryPerformanceCounter 00000001800330e0     kernel32:KERNEL32.dll
 0002:000000e8       __imp_GetCurrentProcessId  00000001800330e8     kernel32:KERNEL32.dll
 0002:000000f0       __imp_GetCurrentThreadId   00000001800330f0     kernel32:KERNEL32.dll
 0002:000000f8       __imp_GetSystemTimeAsFileTime 00000001800330f8     kernel32:KERNEL32.dll
 0002:00000100       __imp_InitializeSListHead  0000000180033100     kernel32:KERNEL32.dll
 0002:00000108       __imp_RtlPcToFileHeader    0000000180033108     kernel32:KERNEL32.dll
 0002:00000110       __imp_EncodePointer        0000000180033110     kernel32:KERNEL32.dll
 0002:00000118       __imp_RaiseException       0000000180033118     kernel32:KERNEL32.dll
 0002:00000120       __imp_RtlUnwindEx          0000000180033120     kernel32:KERNEL32.dll
 0002:00000128       __imp_GetLastError         0000000180033128     kernel32:KERNEL32.dll
 0002:00000130       __imp_InitializeCriticalSectionAndSpinCount 0000000180033130     kernel32:KERNEL32.dll
 0002:00000138       __imp_TlsAlloc             0000000180033138     kernel32:KERNEL32.dll
 0002:00000140       __imp_TlsGetValue          0000000180033140     kernel32:KERNEL32.dll
 0002:00000148       __imp_TlsSetValue          0000000180033148     kernel32:KERNEL32.dll
 0002:00000150       __imp_TlsFree              0000000180033150     kernel32:KERNEL32.dll
 0002:00000158       __imp_FreeLibrary          0000000180033158     kernel32:KERNEL32.dll
 0002:00000160       __imp_LoadLibraryExW       0000000180033160     kernel32:KERNEL32.dll
 0002:00000168       __imp_GetModuleFileNameW   0000000180033168     kernel32:KERNEL32.dll
 0002:00000170       __imp_InterlockedFlushSList 0000000180033170     kernel32:KERNEL32.dll
 0002:00000178       __imp_SetLastError         0000000180033178     kernel32:KERNEL32.dll
 0002:00000180       __imp_GetStdHandle         0000000180033180     kernel32:KERNEL32.dll
 0002:00000188       __imp_GetFileType          0000000180033188     kernel32:KERNEL32.dll
 0002:00000190       __imp_CreateMutexA         0000000180033190     kernel32:KERNEL32.dll
 0002:00000198       __imp_GetModuleHandleExW   0000000180033198     kernel32:KERNEL32.dll
 0002:000001a0       __imp_WriteConsoleW        00000001800331a0     kernel32:KERNEL32.dll
 0002:000001a8       __imp_ExitProcess          00000001800331a8     kernel32:KERNEL32.dll
 0002:000001b0       __imp_MultiByteToWideChar  00000001800331b0     kernel32:KERNEL32.dll
 0002:000001b8       __imp_WideCharToMultiByte  00000001800331b8     kernel32:KERNEL32.dll
 0002:000001c0       __imp_HeapFree             00000001800331c0     kernel32:KERNEL32.dll
 0002:000001c8       __imp_HeapAlloc            00000001800331c8     kernel32:KERNEL32.dll
 0002:000001d0       __imp_CompareStringW       00000001800331d0     kernel32:KERNEL32.dll
 0002:000001d8       __imp_LCMapStringW         00000001800331d8     kernel32:KERNEL32.dll
 0002:000001e0       __imp_DeleteFileW          00000001800331e0     kernel32:KERNEL32.dll
 0002:000001e8       __imp_GetACP               00000001800331e8     kernel32:KERNEL32.dll
 0002:000001f0       __imp_WriteFile            00000001800331f0     kernel32:KERNEL32.dll
 0002:000001f8       __imp_OutputDebugStringW   00000001800331f8     kernel32:KERNEL32.dll
 0002:00000200       __imp_CreateThread         0000000180033200     kernel32:KERNEL32.dll
 0002:00000208       __imp_FindClose            0000000180033208     kernel32:KERNEL32.dll
 0002:00000210       __imp_FindFirstFileExA     0000000180033210     kernel32:KERNEL32.dll
 0002:00000218       __imp_FindNextFileA        0000000180033218     kernel32:KERNEL32.dll
 0002:00000220       __imp_IsValidCodePage      0000000180033220     kernel32:KERNEL32.dll
 0002:00000228       __imp_GetOEMCP             0000000180033228     kernel32:KERNEL32.dll
 0002:00000230       __imp_GetCPInfo            0000000180033230     kernel32:KERNEL32.dll
 0002:00000238       __imp_GetCommandLineA      0000000180033238     kernel32:KERNEL32.dll
 0002:00000240       __imp_GetCommandLineW      0000000180033240     kernel32:KERNEL32.dll
 0002:00000248       __imp_GetEnvironmentStringsW 0000000180033248     kernel32:KERNEL32.dll
 0002:00000250       __imp_FreeEnvironmentStringsW 0000000180033250     kernel32:KERNEL32.dll
 0002:00000258       __imp_SetEnvironmentVariableA 0000000180033258     kernel32:KERNEL32.dll
 0002:00000260       __imp_GetProcessHeap       0000000180033260     kernel32:KERNEL32.dll
 0002:00000268       __imp_GetStringTypeW       0000000180033268     kernel32:KERNEL32.dll
 0002:00000270       __imp_CreateFileW          0000000180033270     kernel32:KERNEL32.dll
 0002:00000278       __imp_FlushFileBuffers     0000000180033278     kernel32:KERNEL32.dll
 0002:00000280       __imp_GetConsoleCP         0000000180033280     kernel32:KERNEL32.dll
 0002:00000288       __imp_GetConsoleMode       0000000180033288     kernel32:KERNEL32.dll
 0002:00000290       __imp_SetStdHandle         0000000180033290     kernel32:KERNEL32.dll
 0002:00000298       __imp_HeapSize             0000000180033298     kernel32:KERNEL32.dll
 0002:000002a0       __imp_HeapReAlloc          00000001800332a0     kernel32:KERNEL32.dll
 0002:000002a8       __imp_SetEndOfFile         00000001800332a8     kernel32:KERNEL32.dll
 0002:000002b0       __imp_ReadFile             00000001800332b0     kernel32:KERNEL32.dll
 0002:000002b8       __imp_ReadConsoleW         00000001800332b8     kernel32:KERNEL32.dll
 0002:000002c0       __imp_SetFilePointerEx     00000001800332c0     kernel32:KERNEL32.dll
 0002:000002c8       __imp_GetModuleFileNameA   00000001800332c8     kernel32:KERNEL32.dll
 0002:000002d0       __imp_GetShortPathNameA    00000001800332d0     kernel32:KERNEL32.dll
 0002:000002d8       __imp_GetSystemInfo        00000001800332d8     kernel32:KERNEL32.dll
 0002:000002e0       __imp_LoadLibraryExA       00000001800332e0     kernel32:KERNEL32.dll
 0002:000002e8       \177KERNEL32_NULL_THUNK_DATA 00000001800332e8     kernel32:KERNEL32.dll
 0002:000002f0       __imp_SHGetSpecialFolderPathA 00000001800332f0     shell32:SHELL32.dll
 0002:000002f8       \177SHELL32_NULL_THUNK_DATA 00000001800332f8     shell32:SHELL32.dll
 0002:00000300       __guard_check_icall_fptr   0000000180033300     LIBCMT:guard_support.obj
 0002:00000308       __guard_dispatch_icall_fptr 0000000180033308     LIBCMT:guard_support.obj
 0002:00000310       __xc_a                     0000000180033310     LIBCMT:initializers.obj
 0002:00000320       _register_lwip_image_      0000000180033320     init.obj
 0002:00000328       __xc_z                     0000000180033328     LIBCMT:initializers.obj
 0002:00000330       __xi_a                     0000000180033330     LIBCMT:initializers.obj
 0002:00000340       __acrt_stdio_initializer   0000000180033340     libucrt:stdio_initializer.obj
 0002:00000348       __acrt_multibyte_initializer 0000000180033348     libucrt:multibyte_initializer.obj
 0002:00000350       __acrt_tran_fma3_initializer 0000000180033350     libucrt:fma3_initializer.obj
 0002:00000358       __xi_z                     0000000180033358     LIBCMT:initializers.obj
 0002:00000360       __xl_a                     0000000180033360     LIBCMT:tlssup.obj
 0002:00000368       __xl_z                     0000000180033368     LIBCMT:tlssup.obj
 0002:00000370       __xp_a                     0000000180033370     LIBCMT:initializers.obj
 0002:00000378       __acrt_locale_terminator   0000000180033378     libucrt:locale_initializer.obj
 0002:00000380       __dcrt_console_output_terminator 0000000180033380     libucrt:console_output_initializer.obj
 0002:00000388       __acrt_stdio_terminator    0000000180033388     libucrt:stdio_initializer.obj
 0002:00000390       __xp_z                     0000000180033390     LIBCMT:initializers.obj
 0002:00000398       __xt_a                     0000000180033398     LIBCMT:initializers.obj
 0002:000003a0       __xt_z                     00000001800333a0     LIBCMT:initializers.obj
 0002:000003b0       __sz_node_exe              00000001800333b0     node:node.exe
 0002:000003c8       ??_7exception@std@@6B@     00000001800333c8     libcpmt:xthrow.obj
 0002:000003d8       ??_C@_0BC@EOODALEL@Unknown?5exception?$AA@ 00000001800333d8     libcpmt:xthrow.obj
 0002:000003f8       ??_7bad_alloc@std@@6B@     00000001800333f8     libcpmt:xthrow.obj
 0002:00000408       ??_C@_0P@GHFPNOJB@bad?5allocation?$AA@ 0000000180033408     libcpmt:xthrow.obj
 0002:00000420       ??_7logic_error@std@@6B@   0000000180033420     libcpmt:xthrow.obj
 0002:00000438       ??_7length_error@std@@6B@  0000000180033438     libcpmt:xthrow.obj
 0002:00000450       ??_7out_of_range@std@@6B@  0000000180033450     libcpmt:xthrow.obj
 0002:00000460       ??_C@_1BK@MGMFAEKH@?$AAk?$AAe?$AAr?$AAn?$AAe?$AAl?$AA3?$AA2?$AA?4?$AAd?$AAl?$AAl?$AA?$AA@ 0000000180033460     LIBCMT:thread_safe_statics.obj
 0002:00000480       ??_C@_0BM@HLJJNPAH@InitializeConditionVariable?$AA@ 0000000180033480     LIBCMT:thread_safe_statics.obj
 0002:000004a0       ??_C@_0BJ@JEBJOJFJ@SleepConditionVariableCS?$AA@ 00000001800334a0     LIBCMT:thread_safe_statics.obj
 0002:000004c0       ??_C@_0BJ@PGPPEPCC@WakeAllConditionVariable?$AA@ 00000001800334c0     LIBCMT:thread_safe_statics.obj
 0002:000004e8       ??_7type_info@@6B@         00000001800334e8     LIBCMT:std_type_info_static.obj
 0002:000004f0       _pDefaultRawDllMain        00000001800334f0     LIBCMT:dll_dllmain.obj
 0002:000004f0       _pRawDllMain               00000001800334f0     LIBCMT:dll_dllmain.obj
 0002:00000510       ??_7bad_array_new_length@std@@6B@ 0000000180033510     LIBCMT:throw_bad_alloc.obj
 0002:00000520       ??_C@_0BF@KINCDENJ@bad?5array?5new?5length?$AA@ 0000000180033520     LIBCMT:throw_bad_alloc.obj
 0002:00000538       _pDestructExceptionObject  0000000180033538     libvcruntime:frame.obj
 0002:00000548       ??_7bad_exception@std@@6B@ 0000000180033548     libvcruntime:frame.obj
 0002:00000558       ??_C@_0O@DPKOEFFH@bad?5exception?$AA@ 0000000180033558     libvcruntime:frame.obj
 0002:000005d0       ??_C@_1BC@DNHGCMLG@?$AAa?$AAd?$AAv?$AAa?$AAp?$AAi?$AA3?$AA2?$AA?$AA@ 00000001800335d0     libvcruntime:winapi_downlevel.obj
 0002:000005e8       ??_C@_1DM@KHCHBNEB@?$AAa?$AAp?$AAi?$AA?9?$AAm?$AAs?$AA?9?$AAw?$AAi?$AAn?$AA?9?$AAc?$AAo?$AAr?$AAe?$AA?9?$AAf?$AAi?$AAb?$AAe?$AAr?$AAs?$AA?9?$AAl?$AA1?$AA?9?$AA1?$AA?9?$AA1?$AA?$AA@ 00000001800335e8     libvcruntime:winapi_downlevel.obj
 0002:00000628       ??_C@_1DK@LPPGFMPP@?$AAa?$AAp?$AAi?$AA?9?$AAm?$AAs?$AA?9?$AAw?$AAi?$AAn?$AA?9?$AAc?$AAo?$AAr?$AAe?$AA?9?$AAs?$AAy?$AAn?$AAc?$AAh?$AA?9?$AAl?$AA1?$AA?9?$AA2?$AA?9?$AA0?$AA?$AA@ 0000000180033628     libvcruntime:winapi_downlevel.obj
 0002:00000668       ??_C@_1BC@GDMECMAK@?$AAk?$AAe?$AAr?$AAn?$AAe?$AAl?$AA3?$AA2?$AA?$AA@ 0000000180033668     libvcruntime:winapi_downlevel.obj
 0002:00000680       ??_C@_0O@BAMBGLIE@EventRegister?$AA@ 0000000180033680     libvcruntime:winapi_downlevel.obj
 0002:00000698       ??_C@_0BE@BJEEGHGK@EventSetInformation?$AA@ 0000000180033698     libvcruntime:winapi_downlevel.obj
 0002:000006b0       ??_C@_0BA@FAKLIPIC@EventUnregister?$AA@ 00000001800336b0     libvcruntime:winapi_downlevel.obj
 0002:000006c8       ??_C@_0BD@PKLHJPHD@EventWriteTransfer?$AA@ 00000001800336c8     libvcruntime:winapi_downlevel.obj
 0002:000006e8       ??_C@_08KNHFBNJ@FlsAlloc?$AA@ 00000001800336e8     libvcruntime:winapi_downlevel.obj
 0002:00000700       ??_C@_07PEJMOBNF@FlsFree?$AA@ 0000000180033700     libvcruntime:winapi_downlevel.obj
 0002:00000710       ??_C@_0M@GDNOONDI@FlsGetValue?$AA@ 0000000180033710     libvcruntime:winapi_downlevel.obj
 0002:00000728       ??_C@_0M@JCPCPOEF@FlsSetValue?$AA@ 0000000180033728     libvcruntime:winapi_downlevel.obj
 0002:00000740       ??_C@_0BM@HCFOFFN@InitializeCriticalSectionEx?$AA@ 0000000180033740     libvcruntime:winapi_downlevel.obj
 0002:00000760       _Microsoft_CRTProvider     0000000180033760     libvcruntime:telemetry.obj
 0002:00000768       ??_C@_11LOCGONAA@?$AA?$AA@ 0000000180033768     libvcruntime:telemetry.obj
 0002:00000770       ??_C@_0O@JEOPJOMI@Main?5Invoked?4?$AA@ 0000000180033770     libvcruntime:telemetry.obj
 0002:00000780       ??_C@_0P@NEAEIBDO@Main?5Returned?4?$AA@ 0000000180033780     libvcruntime:telemetry.obj
 0002:00000b50       ??_C@_08EHJDFFNH@__based?$CI?$AA@ 0000000180033b50     libvcruntime:undname.obj
 0002:00000b60       ??_C@_07KOLFKCDI@__cdecl?$AA@ 0000000180033b60     libvcruntime:undname.obj
 0002:00000b68       ??_C@_08GHMPAG@__pascal?$AA@ 0000000180033b68     libvcruntime:undname.obj
 0002:00000b78       ??_C@_09IFJBGAPI@__stdcall?$AA@ 0000000180033b78     libvcruntime:undname.obj
 0002:00000b88       ??_C@_0L@NPHFGOKO@__thiscall?$AA@ 0000000180033b88     libvcruntime:undname.obj
 0002:00000b98       ??_C@_0L@JMKHOMEK@__fastcall?$AA@ 0000000180033b98     libvcruntime:undname.obj
 0002:00000ba8       ??_C@_0N@BCKKPABJ@__vectorcall?$AA@ 0000000180033ba8     libvcruntime:undname.obj
 0002:00000bb8       ??_C@_09HIJEGCPM@__clrcall?$AA@ 0000000180033bb8     libvcruntime:undname.obj
 0002:00000bc4       ??_C@_06GHPCKEAG@__eabi?$AA@ 0000000180033bc4     libvcruntime:undname.obj
 0002:00000bd0       ??_C@_07JOMMBBKO@__ptr64?$AA@ 0000000180033bd0     libvcruntime:undname.obj
 0002:00000bd8       ??_C@_0L@PILCLIHE@__restrict?$AA@ 0000000180033bd8     libvcruntime:undname.obj
 0002:00000be8       ??_C@_0M@GFIIJFMG@__unaligned?$AA@ 0000000180033be8     libvcruntime:undname.obj
 0002:00000bf8       ??_C@_09DHDLOLLB@restrict?$CI?$AA@ 0000000180033bf8     libvcruntime:undname.obj
 0002:00000c04       ??_C@_04NIHEBCM@?5new?$AA@ 0000000180033c04     libvcruntime:undname.obj
 0002:00000c10       ??_C@_07FPCDHGMM@?5delete?$AA@ 0000000180033c10     libvcruntime:undname.obj
 0002:00000c18       ??_C@_01NEMOKFLO@?$DN?$AA@ 0000000180033c18     libvcruntime:undname.obj
 0002:00000c1c       ??_C@_02GPIOPFAK@?$DO?$DO?$AA@ 0000000180033c1c     libvcruntime:undname.obj
 0002:00000c20       ??_C@_02FODMEDOG@?$DM?$DM?$AA@ 0000000180033c20     libvcruntime:undname.obj
 0002:00000c24       ??_C@_01DCLJPIOD@?$CB?$AA@ 0000000180033c24     libvcruntime:undname.obj
 0002:00000c28       ??_C@_02EGOFBIJA@?$DN?$DN?$AA@ 0000000180033c28     libvcruntime:undname.obj
 0002:00000c2c       ??_C@_02FDNJECIE@?$CB?$DN?$AA@ 0000000180033c2c     libvcruntime:undname.obj
 0002:00000c30       ??_C@_02GPECMEKF@?$FL?$FN?$AA@ 0000000180033c30     libvcruntime:undname.obj
 0002:00000c38       ??_C@_08LHJFAFGD@operator?$AA@ 0000000180033c38     libvcruntime:undname.obj
 0002:00000c44       ??_C@_02HBOOOICD@?9?$DO?$AA@ 0000000180033c44     libvcruntime:undname.obj
 0002:00000c48       ??_C@_01NBENCBCI@?$CK?$AA@ 0000000180033c48     libvcruntime:undname.obj
 0002:00000c4c       ??_C@_02ECNGHCIF@?$CL?$CL?$AA@ 0000000180033c4c     libvcruntime:undname.obj
 0002:00000c50       ??_C@_02BAABKJLB@?9?9?$AA@ 0000000180033c50     libvcruntime:undname.obj
 0002:00000c54       ??_C@_01JOAMLHOP@?9?$AA@   0000000180033c54     libvcruntime:undname.obj
 0002:00000c58       ??_C@_01MIFGBAGJ@?$CL?$AA@ 0000000180033c58     libvcruntime:undname.obj
 0002:00000c5c       ??_C@_01HNPIGOCE@?$CG?$AA@ 0000000180033c5c     libvcruntime:undname.obj
 0002:00000c60       ??_C@_03MNHNFDLC@?9?$DO?$CK?$AA@ 0000000180033c60     libvcruntime:undname.obj
 0002:00000c64       ??_C@_01KMDKNFGN@?1?$AA@   0000000180033c64     libvcruntime:undname.obj
 0002:00000c68       ??_C@_01FGNFDNOH@?$CF?$AA@ 0000000180033c68     libvcruntime:undname.obj
 0002:00000c6c       ??_C@_01MNNFJEPP@?$DM?$AA@ 0000000180033c6c     libvcruntime:undname.obj
 0002:00000c70       ??_C@_02EHCHHCKH@?$DM?$DN?$AA@ 0000000180033c70     libvcruntime:undname.obj
 0002:00000c74       ??_C@_01PPODPGHN@?$DO?$AA@ 0000000180033c74     libvcruntime:undname.obj
 0002:00000c78       ??_C@_02EEKDKGMJ@?$DO?$DN?$AA@ 0000000180033c78     libvcruntime:undname.obj
 0002:00000c7c       ??_C@_01IHBHIGKO@?0?$AA@   0000000180033c7c     libvcruntime:undname.obj
 0002:00000c80       ??_C@_02HCKGKOFO@?$CI?$CJ?$AA@ 0000000180033c80     libvcruntime:undname.obj
 0002:00000c84       ??_C@_01PJKLJHI@?$HO?$AA@  0000000180033c84     libvcruntime:undname.obj
 0002:00000c88       ??_C@_01JKBOJNNK@?$FO?$AA@ 0000000180033c88     libvcruntime:undname.obj
 0002:00000c8c       ??_C@_01DNKMNLPK@?$HM?$AA@ 0000000180033c8c     libvcruntime:undname.obj
 0002:00000c90       ??_C@_02PPKAJPJL@?$CG?$CG?$AA@ 0000000180033c90     libvcruntime:undname.obj
 0002:00000c94       ??_C@_02NONPIBCD@?$HM?$HM?$AA@ 0000000180033c94     libvcruntime:undname.obj
 0002:00000c98       ??_C@_02FPIMKNGF@?$CK?$DN?$AA@ 0000000180033c98     libvcruntime:undname.obj
 0002:00000c9c       ??_C@_02FOEOMHFC@?$CL?$DN?$AA@ 0000000180033c9c     libvcruntime:undname.obj
 0002:00000ca0       ??_C@_02FKMDLLOA@?9?$DN?$AA@ 0000000180033ca0     libvcruntime:undname.obj
 0002:00000ca4       ??_C@_02FJEHGPIO@?1?$DN?$AA@ 0000000180033ca4     libvcruntime:undname.obj
 0002:00000ca8       ??_C@_02FENAOKFI@?$CF?$DN?$AA@ 0000000180033ca8     libvcruntime:undname.obj
 0002:00000cac       ??_C@_03IKFCCPFF@?$DO?$DO?$DN?$AA@ 0000000180033cac     libvcruntime:undname.obj
 0002:00000cb0       ??_C@_03CDNPDDLA@?$DM?$DM?$DN?$AA@ 0000000180033cb0     libvcruntime:undname.obj
 0002:00000cb4       ??_C@_02FGJGFEAB@?$CG?$DN?$AA@ 0000000180033cb4     libvcruntime:undname.obj
 0002:00000cb8       ??_C@_02DHLNPPGH@?$HM?$DN?$AA@ 0000000180033cb8     libvcruntime:undname.obj
 0002:00000cbc       ??_C@_02MHEGNOJ@?$FO?$DN?$AA@ 0000000180033cbc     libvcruntime:undname.obj
 0002:00000cc0       ??_C@_09IFPLHPGF@?$GAvftable?8?$AA@ 0000000180033cc0     libvcruntime:undname.obj
 0002:00000cd0       ??_C@_09BLBHBJP@?$GAvbtable?8?$AA@ 0000000180033cd0     libvcruntime:undname.obj
 0002:00000ce0       ??_C@_07FEEIOKP@?$GAvcall?8?$AA@ 0000000180033ce0     libvcruntime:undname.obj
 0002:00000ce8       ??_C@_08LLFFHHDJ@?$GAtypeof?8?$AA@ 0000000180033ce8     libvcruntime:undname.obj
 0002:00000cf8       ??_C@_0BF@KDPPACIK@?$GAlocal?5static?5guard?8?$AA@ 0000000180033cf8     libvcruntime:undname.obj
 0002:00000d10       ??_C@_08OBABFOLI@?$GAstring?8?$AA@ 0000000180033d10     libvcruntime:undname.obj
 0002:00000d20       ??_C@_0BD@JDLKDPAB@?$GAvbase?5destructor?8?$AA@ 0000000180033d20     libvcruntime:undname.obj
 0002:00000d38       ??_C@_0BN@DEGPLNFK@?$GAvector?5deleting?5destructor?8?$AA@ 0000000180033d38     libvcruntime:undname.obj
 0002:00000d58       ??_C@_0BO@OBMKPJIG@?$GAdefault?5constructor?5closure?8?$AA@ 0000000180033d58     libvcruntime:undname.obj
 0002:00000d78       ??_C@_0BN@IMDCHIKM@?$GAscalar?5deleting?5destructor?8?$AA@ 0000000180033d78     libvcruntime:undname.obj
 0002:00000d98       ??_C@_0BO@PFGOCPJJ@?$GAvector?5constructor?5iterator?8?$AA@ 0000000180033d98     libvcruntime:undname.obj
 0002:00000db8       ??_C@_0BN@LFPFMEDL@?$GAvector?5destructor?5iterator?8?$AA@ 0000000180033db8     libvcruntime:undname.obj
 0002:00000dd8       ??_C@_0CE@IKBNEHA@?$GAvector?5vbase?5constructor?5iterat@ 0000000180033dd8     libvcruntime:undname.obj
 0002:00000e00       ??_C@_0BL@NILFHHPC@?$GAvirtual?5displacement?5map?8?$AA@ 0000000180033e00     libvcruntime:undname.obj
 0002:00000e20       ??_C@_0CB@JONCMFFK@?$GAeh?5vector?5constructor?5iterator?8@ 0000000180033e20     libvcruntime:undname.obj
 0002:00000e48       ??_C@_0CA@GCEOPDGL@?$GAeh?5vector?5destructor?5iterator?8?$AA@ 0000000180033e48     libvcruntime:undname.obj
 0002:00000e68       ??_C@_0CH@OOJPLCPH@?$GAeh?5vector?5vbase?5constructor?5ite@ 0000000180033e68     libvcruntime:undname.obj
 0002:00000e90       ??_C@_0BL@LLKPOHJI@?$GAcopy?5constructor?5closure?8?$AA@ 0000000180033e90     libvcruntime:undname.obj
 0002:00000eb0       ??_C@_0BA@KBCDOMBN@?$GAudt?5returning?8?$AA@ 0000000180033eb0     libvcruntime:undname.obj
 0002:00000ec0       ??_C@_03KLGMFNMG@?$GAEH?$AA@ 0000000180033ec0     libvcruntime:undname.obj
 0002:00000ec4       ??_C@_05KHLCHHI@?$GARTTI?$AA@ 0000000180033ec4     libvcruntime:undname.obj
 0002:00000ed0       ??_C@_0BA@KKLDJDLB@?$GAlocal?5vftable?8?$AA@ 0000000180033ed0     libvcruntime:undname.obj
 0002:00000ee0       ??_C@_0CE@IIHCMGGL@?$GAlocal?5vftable?5constructor?5closu@ 0000000180033ee0     libvcruntime:undname.obj
 0002:00000f04       ??_C@_06FHBGPFGH@?5new?$FL?$FN?$AA@ 0000000180033f04     libvcruntime:undname.obj
 0002:00000f10       ??_C@_09LBNFPBCA@?5delete?$FL?$FN?$AA@ 0000000180033f10     libvcruntime:undname.obj
 0002:00000f20       ??_C@_0P@HJKNJFNN@?$GAomni?5callsig?8?$AA@ 0000000180033f20     libvcruntime:undname.obj
 0002:00000f30       ??_C@_0BL@CNOONJFP@?$GAplacement?5delete?5closure?8?$AA@ 0000000180033f30     libvcruntime:undname.obj
 0002:00000f50       ??_C@_0BN@CKNJLHMB@?$GAplacement?5delete?$FL?$FN?5closure?8?$AA@ 0000000180033f50     libvcruntime:undname.obj
 0002:00000f70       ??_C@_0CG@CFDHKGGD@?$GAmanaged?5vector?5constructor?5iter@ 0000000180033f70     libvcruntime:undname.obj
 0002:00000f98       ??_C@_0CF@IMGKMJNO@?$GAmanaged?5vector?5destructor?5itera@ 0000000180033f98     libvcruntime:undname.obj
 0002:00000fc0       ??_C@_0CG@HLDDJMAG@?$GAeh?5vector?5copy?5constructor?5iter@ 0000000180033fc0     libvcruntime:undname.obj
 0002:00000fe8       ??_C@_0CM@FCBBDIGB@?$GAeh?5vector?5vbase?5copy?5constructo@ 0000000180033fe8     libvcruntime:undname.obj
 0002:00001018       ??_C@_0BL@CLIPGLGB@?$GAdynamic?5initializer?5for?5?8?$AA@ 0000000180034018     libvcruntime:undname.obj
 0002:00001038       ??_C@_0CB@PDBIFEP@?$GAdynamic?5atexit?5destructor?5for?5?8@ 0000000180034038     libvcruntime:undname.obj
 0002:00001060       ??_C@_0CD@CGAJBKEJ@?$GAvector?5copy?5constructor?5iterato@ 0000000180034060     libvcruntime:undname.obj
 0002:00001088       ??_C@_0CJ@GJELGAMM@?$GAvector?5vbase?5copy?5constructor?5i@ 0000000180034088     libvcruntime:undname.obj
 0002:000010b8       ??_C@_0CL@FGIJHLCE@?$GAmanaged?5vector?5copy?5constructor@ 00000001800340b8     libvcruntime:undname.obj
 0002:000010e8       ??_C@_0BM@PMGGMLDN@?$GAlocal?5static?5thread?5guard?8?$AA@ 00000001800340e8     libvcruntime:undname.obj
 0002:00001108       ??_C@_0N@BDNMDMOL@operator?5?$CC?$CC?5?$AA@ 0000000180034108     libvcruntime:undname.obj
 0002:00001118       ??_C@_0BC@DAFEJGAK@?5Type?5Descriptor?8?$AA@ 0000000180034118     libvcruntime:undname.obj
 0002:00001130       ??_C@_0BM@LDKODKLH@?5Base?5Class?5Descriptor?5at?5?$CI?$AA@ 0000000180034130     libvcruntime:undname.obj
 0002:00001150       ??_C@_0BD@LGICGFMM@?5Base?5Class?5Array?8?$AA@ 0000000180034150     libvcruntime:undname.obj
 0002:00001168       ??_C@_0BN@MECKDCOJ@?5Class?5Hierarchy?5Descriptor?8?$AA@ 0000000180034168     libvcruntime:undname.obj
 0002:00001188       ??_C@_0BK@CFCOFLF@?5Complete?5Object?5Locator?8?$AA@ 0000000180034188     libvcruntime:undname.obj
 0002:000011b0       standard_lookup_table      00000001800341b0     libucrt:output.obj
 0002:00001210       format_validation_lookup_table 0000000180034210     libucrt:output.obj
 0002:0000126c       ??_C@_06OJHGLDPL@?$CInull?$CJ?$AA@ 000000018003426c     libucrt:output.obj
 0002:00001278       ??_C@_1O@CEDCILHN@?$AA?$CI?$AAn?$AAu?$AAl?$AAl?$AA?$CJ?$AA?$AA@ 0000000180034278     libucrt:output.obj
 0002:00001290       ??_C@_1EK@MBDPDCGA@?$AAM?$AAi?$AAc?$AAr?$AAo?$AAs?$AAo?$AAf?$AAt?$AA?5?$AAV?$AAi?$AAs?$AAu?$AAa?$AAl?$AA?5?$AAC?$AA?$CL?$AA?$CL?$AA?5?$AAR?$AAu?$AAn?$AAt?$AAi?$AAm?$AAe?$AA?5?$AAL?$AAi?$AAb@ 0000000180034290     libucrt:assert.obj
 0002:000012e0       ??_C@_1FE@LHBLIKM@?$AAA?$AAs?$AAs?$AAe?$AAr?$AAt?$AAi?$AAo?$AAn?$AA?5?$AAf?$AAa?$AAi?$AAl?$AAe?$AAd?$AA?3?$AA?5?$AA?$CF?$AAT?$AAs?$AA?0?$AA?5?$AAf?$AAi?$AAl?$AAe?$AA?5?$AA?$CF?$AAT?$AAs?$AA?0@ 00000001800342e0     libucrt:assert.obj
 0002:00001338       ??_C@_1CE@OJBNHDMO@?$AAA?$AAs?$AAs?$AAe?$AAr?$AAt?$AAi?$AAo?$AAn?$AA?5?$AAf?$AAa?$AAi?$AAl?$AAe?$AAd?$AA?$CB?$AA?$AA@ 0000000180034338     libucrt:assert.obj
 0002:00001360       ??_C@_1BE@PHKBBGE@?$AAP?$AAr?$AAo?$AAg?$AAr?$AAa?$AAm?$AA?3?$AA?5?$AA?$AA@ 0000000180034360     libucrt:assert.obj
 0002:00001378       ??_C@_1O@HEMHKNDC@?$AAF?$AAi?$AAl?$AAe?$AA?3?$AA?5?$AA?$AA@ 0000000180034378     libucrt:assert.obj
 0002:00001388       ??_C@_1O@KCAFKHJE@?$AAL?$AAi?$AAn?$AAe?$AA?3?$AA?5?$AA?$AA@ 0000000180034388     libucrt:assert.obj
 0002:00001398       ??_C@_1BK@PEDCIPMA@?$AAE?$AAx?$AAp?$AAr?$AAe?$AAs?$AAs?$AAi?$AAo?$AAn?$AA?3?$AA?5?$AA?$AA@ 0000000180034398     libucrt:assert.obj
 0002:000013c0       ??_C@_1OA@EGMLFBHJ@?$AAF?$AAo?$AAr?$AA?5?$AAi?$AAn?$AAf?$AAo?$AAr?$AAm?$AAa?$AAt?$AAi?$AAo?$AAn?$AA?5?$AAo?$AAn?$AA?5?$AAh?$AAo?$AAw?$AA?5?$AAy?$AAo?$AAu?$AAr?$AA?5?$AAp?$AAr?$AAo?$AAg@ 00000001800343c0     libucrt:assert.obj
 0002:000014a0       ??_C@_1HK@POCJMFGK@?$AA?$CI?$AAP?$AAr?$AAe?$AAs?$AAs?$AA?5?$AAR?$AAe?$AAt?$AAr?$AAy?$AA?5?$AAt?$AAo?$AA?5?$AAd?$AAe?$AAb?$AAu?$AAg?$AA?5?$AAt?$AAh?$AAe?$AA?5?$AAa?$AAp?$AAp?$AAl?$AAi?$AAc@ 00000001800344a0     libucrt:assert.obj
 0002:00001520       ??_C@_17LGKOMLJ@?$AA?4?$AA?4?$AA?4?$AA?$AA@ 0000000180034520     libucrt:assert.obj
 0002:00001528       ??_C@_13LBAGMAIH@?$AA?6?$AA?$AA@ 0000000180034528     libucrt:assert.obj
 0002:0000152c       ??_C@_15IABLJNFO@?$AA?6?$AA?6?$AA?$AA@ 000000018003452c     libucrt:assert.obj
 0002:00001538       ??_C@_1CO@EAEJAADC@?$AA?$DM?$AAp?$AAr?$AAo?$AAg?$AAr?$AAa?$AAm?$AA?5?$AAn?$AAa?$AAm?$AAe?$AA?5?$AAu?$AAn?$AAk?$AAn?$AAo?$AAw?$AAn?$AA?$DO?$AA?$AA@ 0000000180034538     libucrt:assert.obj
 0002:00001570       __acrt_exception_action_table 0000000180034570     libucrt:exception_filter.obj
 0002:00001630       __acrt_signal_action_table_count 0000000180034630     libucrt:exception_filter.obj
 0002:00001638       __acrt_signal_action_first_fpe_index 0000000180034638     libucrt:exception_filter.obj
 0002:00001640       __acrt_signal_action_fpe_count 0000000180034640     libucrt:exception_filter.obj
 0002:00001648       ??_C@_1BI@BGOHAHKC@?$AAm?$AAs?$AAc?$AAo?$AAr?$AAe?$AAe?$AA?4?$AAd?$AAl?$AAl?$AA?$AA@ 0000000180034648     libucrt:exit.obj
 0002:00001660       ??_C@_0P@MIGLKIOC@CorExitProcess?$AA@ 0000000180034660     libucrt:exit.obj
 0002:000018c8       ?ccs@?BL@???$__acrt_stdio_parse_mode@D@@YA?AU__acrt_stdio_stream_mode@@QEBD@Z@4QBDB 00000001800348c8     libucrt:openfile.obj
 0002:000018cc       ?utf8_encoding@?BL@???$__acrt_stdio_parse_mode@D@@YA?AU__acrt_stdio_stream_mode@@QEBD@Z@4QBDB 00000001800348cc     libucrt:openfile.obj
 0002:000018d8       ?utf16_encoding@?BL@???$__acrt_stdio_parse_mode@D@@YA?AU__acrt_stdio_stream_mode@@QEBD@Z@4QBDB 00000001800348d8     libucrt:openfile.obj
 0002:000018e0       ?unicode_encoding@?BL@???$__acrt_stdio_parse_mode@D@@YA?AU__acrt_stdio_stream_mode@@QEBD@Z@4QBDB 00000001800348e0     libucrt:openfile.obj
 0002:00001990       ??_C@_1EG@CNNIPFIM@?$AAa?$AAp?$AAi?$AA?9?$AAm?$AAs?$AA?9?$AAw?$AAi?$AAn?$AA?9?$AAa?$AAp?$AAp?$AAm?$AAo?$AAd?$AAe?$AAl?$AA?9?$AAr?$AAu?$AAn?$AAt?$AAi?$AAm?$AAe?$AA?9?$AAl?$AA1?$AA?9?$AA1@ 0000000180034990     libucrt:winapi_thunks.obj
 0002:000019e0       ??_C@_1EA@JGEFHKEI@?$AAa?$AAp?$AAi?$AA?9?$AAm?$AAs?$AA?9?$AAw?$AAi?$AAn?$AA?9?$AAc?$AAo?$AAr?$AAe?$AA?9?$AAd?$AAa?$AAt?$AAe?$AAt?$AAi?$AAm?$AAe?$AA?9?$AAl?$AA1?$AA?9?$AA1?$AA?9?$AA1?$AA?$AA@ 00000001800349e0     libucrt:winapi_thunks.obj
 0002:00001a20       ??_C@_1DI@GCIAAENM@?$AAa?$AAp?$AAi?$AA?9?$AAm?$AAs?$AA?9?$AAw?$AAi?$AAn?$AA?9?$AAc?$AAo?$AAr?$AAe?$AA?9?$AAf?$AAi?$AAl?$AAe?$AA?9?$AAl?$AA2?$AA?9?$AA1?$AA?9?$AA1?$AA?$AA@ 0000000180034a20     libucrt:winapi_thunks.obj
 0002:00001a60       ??_C@_1EI@MPIAOHOC@?$AAa?$AAp?$AAi?$AA?9?$AAm?$AAs?$AA?9?$AAw?$AAi?$AAn?$AA?9?$AAc?$AAo?$AAr?$AAe?$AA?9?$AAl?$AAo?$AAc?$AAa?$AAl?$AAi?$AAz?$AAa?$AAt?$AAi?$AAo?$AAn?$AA?9?$AAl?$AA1?$AA?9@ 0000000180034a60     libucrt:winapi_thunks.obj
 0002:00001ab0       ??_C@_1FK@FPHCKFIE@?$AAa?$AAp?$AAi?$AA?9?$AAm?$AAs?$AA?9?$AAw?$AAi?$AAn?$AA?9?$AAc?$AAo?$AAr?$AAe?$AA?9?$AAl?$AAo?$AAc?$AAa?$AAl?$AAi?$AAz?$AAa?$AAt?$AAi?$AAo?$AAn?$AA?9?$AAo?$AAb?$AAs@ 0000000180034ab0     libucrt:winapi_thunks.obj
 0002:00001b10       ??_C@_1EM@DILCGIIO@?$AAa?$AAp?$AAi?$AA?9?$AAm?$AAs?$AA?9?$AAw?$AAi?$AAn?$AA?9?$AAc?$AAo?$AAr?$AAe?$AA?9?$AAp?$AAr?$AAo?$AAc?$AAe?$AAs?$AAs?$AAt?$AAh?$AAr?$AAe?$AAa?$AAd?$AAs?$AA?9?$AAl@ 0000000180034b10     libucrt:winapi_thunks.obj
 0002:00001b60       ??_C@_1DM@LNCGDDPN@?$AAa?$AAp?$AAi?$AA?9?$AAm?$AAs?$AA?9?$AAw?$AAi?$AAn?$AA?9?$AAc?$AAo?$AAr?$AAe?$AA?9?$AAs?$AAt?$AAr?$AAi?$AAn?$AAg?$AA?9?$AAl?$AA1?$AA?9?$AA1?$AA?9?$AA0?$AA?$AA@ 0000000180034b60     libucrt:winapi_thunks.obj
 0002:00001ba0       ??_C@_1DO@FPAPJEMD@?$AAa?$AAp?$AAi?$AA?9?$AAm?$AAs?$AA?9?$AAw?$AAi?$AAn?$AA?9?$AAc?$AAo?$AAr?$AAe?$AA?9?$AAs?$AAy?$AAs?$AAi?$AAn?$AAf?$AAo?$AA?9?$AAl?$AA1?$AA?9?$AA2?$AA?9?$AA1?$AA?$AA@ 0000000180034ba0     libucrt:winapi_thunks.obj
 0002:00001be0       ??_C@_1DK@NDHNAHIO@?$AAa?$AAp?$AAi?$AA?9?$AAm?$AAs?$AA?9?$AAw?$AAi?$AAn?$AA?9?$AAc?$AAo?$AAr?$AAe?$AA?9?$AAw?$AAi?$AAn?$AAr?$AAt?$AA?9?$AAl?$AA1?$AA?9?$AA1?$AA?9?$AA0?$AA?$AA@ 0000000180034be0     libucrt:winapi_thunks.obj
 0002:00001c20       ??_C@_1DM@KGHDGBCM@?$AAa?$AAp?$AAi?$AA?9?$AAm?$AAs?$AA?9?$AAw?$AAi?$AAn?$AA?9?$AAc?$AAo?$AAr?$AAe?$AA?9?$AAx?$AAs?$AAt?$AAa?$AAt?$AAe?$AA?9?$AAl?$AA2?$AA?9?$AA1?$AA?9?$AA0?$AA?$AA@ 0000000180034c20     libucrt:winapi_thunks.obj
 0002:00001c60       ??_C@_1EO@IJIOEFOH@?$AAa?$AAp?$AAi?$AA?9?$AAm?$AAs?$AA?9?$AAw?$AAi?$AAn?$AA?9?$AAr?$AAt?$AAc?$AAo?$AAr?$AAe?$AA?9?$AAn?$AAt?$AAu?$AAs?$AAe?$AAr?$AA?9?$AAw?$AAi?$AAn?$AAd?$AAo?$AAw?$AA?9@ 0000000180034c60     libucrt:winapi_thunks.obj
 0002:00001cb0       ??_C@_1FG@HHGEKANL@?$AAa?$AAp?$AAi?$AA?9?$AAm?$AAs?$AA?9?$AAw?$AAi?$AAn?$AA?9?$AAs?$AAe?$AAc?$AAu?$AAr?$AAi?$AAt?$AAy?$AA?9?$AAs?$AAy?$AAs?$AAt?$AAe?$AAm?$AAf?$AAu?$AAn?$AAc?$AAt?$AAi@ 0000000180034cb0     libucrt:winapi_thunks.obj
 0002:00001d10       ??_C@_1FG@NCKKOLKO@?$AAe?$AAx?$AAt?$AA?9?$AAm?$AAs?$AA?9?$AAw?$AAi?$AAn?$AA?9?$AAk?$AAe?$AAr?$AAn?$AAe?$AAl?$AA3?$AA2?$AA?9?$AAp?$AAa?$AAc?$AAk?$AAa?$AAg?$AAe?$AA?9?$AAc?$AAu?$AAr?$AAr@ 0000000180034d10     libucrt:winapi_thunks.obj
 0002:00001d70       ??_C@_1EG@DBIOJECG@?$AAe?$AAx?$AAt?$AA?9?$AAm?$AAs?$AA?9?$AAw?$AAi?$AAn?$AA?9?$AAn?$AAt?$AAu?$AAs?$AAe?$AAr?$AA?9?$AAd?$AAi?$AAa?$AAl?$AAo?$AAg?$AAb?$AAo?$AAx?$AA?9?$AAl?$AA1?$AA?9?$AA1@ 0000000180034d70     libucrt:winapi_thunks.obj
 0002:00001dc0       ??_C@_1EO@FIHMJCLF@?$AAe?$AAx?$AAt?$AA?9?$AAm?$AAs?$AA?9?$AAw?$AAi?$AAn?$AA?9?$AAn?$AAt?$AAu?$AAs?$AAe?$AAr?$AA?9?$AAw?$AAi?$AAn?$AAd?$AAo?$AAw?$AAs?$AAt?$AAa?$AAt?$AAi?$AAo?$AAn?$AA?9@ 0000000180034dc0     libucrt:winapi_thunks.obj
 0002:00001e10       ??_C@_1O@BCCLBEOE@?$AAu?$AAs?$AAe?$AAr?$AA3?$AA2?$AA?$AA@ 0000000180034e10     libucrt:winapi_thunks.obj
 0002:00001e28       ??_C@_0BA@FHFNEAED@AreFileApisANSI?$AA@ 0000000180034e28     libucrt:winapi_thunks.obj
 0002:00001e40       ??_C@_0BA@IHGNDAEB@CompareStringEx?$AA@ 0000000180034e40     libucrt:winapi_thunks.obj
 0002:00001e78       ??_C@_0BA@HNOPNCHB@GetActiveWindow?$AA@ 0000000180034e78     libucrt:winapi_thunks.obj
 0002:00001e90       ??_C@_0BE@JOGNEJCI@GetCurrentPackageId?$AA@ 0000000180034e90     libucrt:winapi_thunks.obj
 0002:00001eb0       ??_C@_0BD@HHGDFDBJ@GetLastActivePopup?$AA@ 0000000180034eb0     libucrt:winapi_thunks.obj
 0002:00001ed0       ??_C@_0BI@DFKBFLJE@GetProcessWindowStation?$AA@ 0000000180034ed0     libucrt:winapi_thunks.obj
 0002:00001ef0       ??_C@_0BK@DEKFELLI@GetUserObjectInformationW?$AA@ 0000000180034ef0     libucrt:winapi_thunks.obj
 0002:00001f20       ??_C@_0O@KKBNKAPF@LCMapStringEx?$AA@ 0000000180034f20     libucrt:winapi_thunks.obj
 0002:00001f38       ??_C@_0BB@HBDEELFH@LocaleNameToLCID?$AA@ 0000000180034f38     libucrt:winapi_thunks.obj
 0002:00001f58       ??_C@_0M@CHKKJDAI@MessageBoxA?$AA@ 0000000180034f58     libucrt:winapi_thunks.obj
 0002:00001f70       ??_C@_0M@DLDCCGNP@MessageBoxW?$AA@ 0000000180034f70     libucrt:winapi_thunks.obj
 0002:00001f7c       ??_C@_03OEIAHPBN@INF?$AA@  0000000180034f7c     libucrt:cvt.obj
 0002:00001f80       ??_C@_03OJHLLCGB@inf?$AA@  0000000180034f80     libucrt:cvt.obj
 0002:00001f84       ??_C@_03LKNCIKJB@NAN?$AA@  0000000180034f84     libucrt:cvt.obj
 0002:00001f88       ??_C@_03LHCJEHON@nan?$AA@  0000000180034f88     libucrt:cvt.obj
 0002:00001f90       ??_C@_09OFJJIMPC@NAN?$CISNAN?$CJ?$AA@ 0000000180034f90     libucrt:cvt.obj
 0002:00001fa0       ??_C@_09IPFBKMDL@nan?$CIsnan?$CJ?$AA@ 0000000180034fa0     libucrt:cvt.obj
 0002:00001fb0       ??_C@_08IKHNHAJ@NAN?$CIIND?$CJ?$AA@ 0000000180034fb0     libucrt:cvt.obj
 0002:00001fc0       ??_C@_08OFCDMILK@nan?$CIind?$CJ?$AA@ 0000000180034fc0     libucrt:cvt.obj
 0002:00001fcc       ??_C@_05KLBDPFGC@e?$CL000?$AA@ 0000000180034fcc     libucrt:cvt.obj
 0002:00001fe0       __lc_time_c                0000000180034fe0     libucrt:nlsdata.obj
 0002:000022a0       ??_C@_03KOEHGMDN@Sun?$AA@  00000001800352a0     libucrt:nlsdata.obj
 0002:000022a4       ??_C@_03PDAGKDH@Mon?$AA@   00000001800352a4     libucrt:nlsdata.obj
 0002:000022a8       ??_C@_03NAGEINEP@Tue?$AA@  00000001800352a8     libucrt:nlsdata.obj
 0002:000022ac       ??_C@_03MHOMLAJA@Wed?$AA@  00000001800352ac     libucrt:nlsdata.obj
 0002:000022b0       ??_C@_03IOFIKPDN@Thu?$AA@  00000001800352b0     libucrt:nlsdata.obj
 0002:000022b4       ??_C@_03IDIOELNC@Fri?$AA@  00000001800352b4     libucrt:nlsdata.obj
 0002:000022b8       ??_C@_03FEFJNEK@Sat?$AA@   00000001800352b8     libucrt:nlsdata.obj
 0002:000022bc       ??_C@_06OOPIFAJ@Sunday?$AA@ 00000001800352bc     libucrt:nlsdata.obj
 0002:000022c4       ??_C@_06JLEDEDGH@Monday?$AA@ 00000001800352c4     libucrt:nlsdata.obj
 0002:000022d0       ??_C@_07BAAGCFCM@Tuesday?$AA@ 00000001800352d0     libucrt:nlsdata.obj
 0002:000022d8       ??_C@_09DLIGFAKA@Wednesday?$AA@ 00000001800352d8     libucrt:nlsdata.obj
 0002:000022e8       ??_C@_08HACCIKIA@Thursday?$AA@ 00000001800352e8     libucrt:nlsdata.obj
 0002:000022f4       ??_C@_06JECMNKMI@Friday?$AA@ 00000001800352f4     libucrt:nlsdata.obj
 0002:00002300       ??_C@_08INBOOONO@Saturday?$AA@ 0000000180035300     libucrt:nlsdata.obj
 0002:0000230c       ??_C@_03JIHJHPIE@Jan?$AA@  000000018003530c     libucrt:nlsdata.obj
 0002:00002310       ??_C@_03HJBDCHOM@Feb?$AA@  0000000180035310     libucrt:nlsdata.obj
 0002:00002314       ??_C@_03ODNJBKGA@Mar?$AA@  0000000180035314     libucrt:nlsdata.obj
 0002:00002318       ??_C@_03LEOLGMJP@Apr?$AA@  0000000180035318     libucrt:nlsdata.obj
 0002:0000231c       ??_C@_03CNMDKL@May?$AA@    000000018003531c     libucrt:nlsdata.obj
 0002:00002320       ??_C@_03IDFGHECI@Jun?$AA@  0000000180035320     libucrt:nlsdata.obj
 0002:00002324       ??_C@_03LBGABGKK@Jul?$AA@  0000000180035324     libucrt:nlsdata.obj
 0002:00002328       ??_C@_03IFJFEIGA@Aug?$AA@  0000000180035328     libucrt:nlsdata.obj
 0002:0000232c       ??_C@_03GGCAPAJC@Sep?$AA@  000000018003532c     libucrt:nlsdata.obj
 0002:00002330       ??_C@_03BMAOKBAD@Oct?$AA@  0000000180035330     libucrt:nlsdata.obj
 0002:00002334       ??_C@_03JPJOFNIA@Nov?$AA@  0000000180035334     libucrt:nlsdata.obj
 0002:00002338       ??_C@_03MKABNOCG@Dec?$AA@  0000000180035338     libucrt:nlsdata.obj
 0002:00002340       ??_C@_07CGJPFGJA@January?$AA@ 0000000180035340     libucrt:nlsdata.obj
 0002:00002348       ??_C@_08GNJGEPFN@February?$AA@ 0000000180035348     libucrt:nlsdata.obj
 0002:00002354       ??_C@_05HPCKOFNC@March?$AA@ 0000000180035354     libucrt:nlsdata.obj
 0002:0000235c       ??_C@_05DMJDNLEJ@April?$AA@ 000000018003535c     libucrt:nlsdata.obj
 0002:00002364       ??_C@_04CNLMGBGM@June?$AA@ 0000000180035364     libucrt:nlsdata.obj
 0002:0000236c       ??_C@_04MIEPOIFP@July?$AA@ 000000018003536c     libucrt:nlsdata.obj
 0002:00002374       ??_C@_06LBBHFDDG@August?$AA@ 0000000180035374     libucrt:nlsdata.obj
 0002:00002380       ??_C@_09BHHEALKD@September?$AA@ 0000000180035380     libucrt:nlsdata.obj
 0002:00002390       ??_C@_07JJNFCEND@October?$AA@ 0000000180035390     libucrt:nlsdata.obj
 0002:00002398       ??_C@_08HCHEGEOA@November?$AA@ 0000000180035398     libucrt:nlsdata.obj
 0002:000023a8       ??_C@_08EDHMEBNP@December?$AA@ 00000001800353a8     libucrt:nlsdata.obj
 0002:000023b4       ??_C@_02DEDBPAFC@AM?$AA@   00000001800353b4     libucrt:nlsdata.obj
 0002:000023b8       ??_C@_02CJNFDJBF@PM?$AA@   00000001800353b8     libucrt:nlsdata.obj
 0002:000023c0       ??_C@_08BPBNCDIB@MM?1dd?1yy?$AA@ 00000001800353c0     libucrt:nlsdata.obj
 0002:000023d0       ??_C@_0BE@CKGJFCPC@dddd?0?5MMMM?5dd?0?5yyyy?$AA@ 00000001800353d0     libucrt:nlsdata.obj
 0002:000023e8       ??_C@_08JCCMCCIL@HH?3mm?3ss?$AA@ 00000001800353e8     libucrt:nlsdata.obj
 0002:000023f8       ??_C@_17MBGCMIPB@?$AAS?$AAu?$AAn?$AA?$AA@ 00000001800353f8     libucrt:nlsdata.obj
 0002:00002400       ??_C@_17KBOMKBF@?$AAM?$AAo?$AAn?$AA?$AA@ 0000000180035400     libucrt:nlsdata.obj
 0002:00002408       ??_C@_17BMKGEGOJ@?$AAT?$AAu?$AAe?$AA?$AA@ 0000000180035408     libucrt:nlsdata.obj
 0002:00002410       ??_C@_17CJEDCEPE@?$AAW?$AAe?$AAd?$AA?$AA@ 0000000180035410     libucrt:nlsdata.obj
 0002:00002418       ??_C@_17PDPHAADD@?$AAT?$AAh?$AAu?$AA?$AA@ 0000000180035418     libucrt:nlsdata.obj
 0002:00002420       ??_C@_17HFOLPPLP@?$AAF?$AAr?$AAi?$AA?$AA@ 0000000180035420     libucrt:nlsdata.obj
 0002:00002428       ??_C@_17GGIBDPIH@?$AAS?$AAa?$AAt?$AA?$AA@ 0000000180035428     libucrt:nlsdata.obj
 0002:00002430       ??_C@_1O@IHNHDHPB@?$AAS?$AAu?$AAn?$AAd?$AAa?$AAy?$AA?$AA@ 0000000180035430     libucrt:nlsdata.obj
 0002:00002440       ??_C@_1O@MMNBFLIA@?$AAM?$AAo?$AAn?$AAd?$AAa?$AAy?$AA?$AA@ 0000000180035440     libucrt:nlsdata.obj
 0002:00002450       ??_C@_1BA@ENFBFFEK@?$AAT?$AAu?$AAe?$AAs?$AAd?$AAa?$AAy?$AA?$AA@ 0000000180035450     libucrt:nlsdata.obj
 0002:00002460       ??_C@_1BE@EBOGMDOH@?$AAW?$AAe?$AAd?$AAn?$AAe?$AAs?$AAd?$AAa?$AAy?$AA?$AA@ 0000000180035460     libucrt:nlsdata.obj
 0002:00002478       ??_C@_1BC@HHMNLIHE@?$AAT?$AAh?$AAu?$AAr?$AAs?$AAd?$AAa?$AAy?$AA?$AA@ 0000000180035478     libucrt:nlsdata.obj
 0002:00002490       ??_C@_1O@PDICJHAG@?$AAF?$AAr?$AAi?$AAd?$AAa?$AAy?$AA?$AA@ 0000000180035490     libucrt:nlsdata.obj
 0002:000024a0       ??_C@_1BC@ENMNNPAJ@?$AAS?$AAa?$AAt?$AAu?$AAr?$AAd?$AAa?$AAy?$AA?$AA@ 00000001800354a0     libucrt:nlsdata.obj
 0002:000024b8       ??_C@_17DKNBKCHM@?$AAJ?$AAa?$AAn?$AA?$AA@ 00000001800354b8     libucrt:nlsdata.obj
 0002:000024c0       ??_C@_17LMDJEKJN@?$AAF?$AAe?$AAb?$AA?$AA@ 00000001800354c0     libucrt:nlsdata.obj
 0002:000024c8       ??_C@_17CKNLEDEC@?$AAM?$AAa?$AAr?$AA?$AA@ 00000001800354c8     libucrt:nlsdata.obj
 0002:000024d0       ??_C@_17LFPOIHDD@?$AAA?$AAp?$AAr?$AA?$AA@ 00000001800354d0     libucrt:nlsdata.obj
 0002:000024d8       ??_C@_17PNNKMEED@?$AAM?$AAa?$AAy?$AA?$AA@ 00000001800354d8     libucrt:nlsdata.obj
 0002:000024e0       ??_C@_17KCJGOCPB@?$AAJ?$AAu?$AAn?$AA?$AA@ 00000001800354e0     libucrt:nlsdata.obj
 0002:000024e8       ??_C@_17IJPCKHK@?$AAJ?$AAu?$AAl?$AA?$AA@ 00000001800354e8     libucrt:nlsdata.obj
 0002:000024f0       ??_C@_17ICPELBCN@?$AAA?$AAu?$AAg?$AA?$AA@ 00000001800354f0     libucrt:nlsdata.obj
 0002:000024f8       ??_C@_17HCHCOKMG@?$AAS?$AAe?$AAp?$AA?$AA@ 00000001800354f8     libucrt:nlsdata.obj
 0002:00002500       ??_C@_17FNLKOI@?$AAO?$AAc?$AAt?$AA?$AA@ 0000000180035500     libucrt:nlsdata.obj
 0002:00002508       ??_C@_17BBDMLCIG@?$AAN?$AAo?$AAv?$AA?$AA@ 0000000180035508     libucrt:nlsdata.obj
 0002:00002510       ??_C@_17EGKACKIF@?$AAD?$AAe?$AAc?$AA?$AA@ 0000000180035510     libucrt:nlsdata.obj
 0002:00002518       ??_C@_1BA@EFMEIEBA@?$AAJ?$AAa?$AAn?$AAu?$AAa?$AAr?$AAy?$AA?$AA@ 0000000180035518     libucrt:nlsdata.obj
 0002:00002528       ??_C@_1BC@JGDDFFAM@?$AAF?$AAe?$AAb?$AAr?$AAu?$AAa?$AAr?$AAy?$AA?$AA@ 0000000180035528     libucrt:nlsdata.obj
 0002:00002540       ??_C@_1M@IKEENEDF@?$AAM?$AAa?$AAr?$AAc?$AAh?$AA?$AA@ 0000000180035540     libucrt:nlsdata.obj
 0002:00002550       ??_C@_1M@GJNLMHFD@?$AAA?$AAp?$AAr?$AAi?$AAl?$AA?$AA@ 0000000180035550     libucrt:nlsdata.obj
 0002:00002560       ??_C@_19EPFLPGAP@?$AAJ?$AAu?$AAn?$AAe?$AA?$AA@ 0000000180035560     libucrt:nlsdata.obj
 0002:00002570       ??_C@_19BIFMLPCD@?$AAJ?$AAu?$AAl?$AAy?$AA?$AA@ 0000000180035570     libucrt:nlsdata.obj
 0002:00002580       ??_C@_1O@PAHLKOAC@?$AAA?$AAu?$AAg?$AAu?$AAs?$AAt?$AA?$AA@ 0000000180035580     libucrt:nlsdata.obj
 0002:00002590       ??_C@_1BE@DKAAMBJL@?$AAS?$AAe?$AAp?$AAt?$AAe?$AAm?$AAb?$AAe?$AAr?$AA?$AA@ 0000000180035590     libucrt:nlsdata.obj
 0002:000025a8       ??_C@_1BA@EPANDLNG@?$AAO?$AAc?$AAt?$AAo?$AAb?$AAe?$AAr?$AA?$AA@ 00000001800355a8     libucrt:nlsdata.obj
 0002:000025b8       ??_C@_1BC@BGLIFPF@?$AAN?$AAo?$AAv?$AAe?$AAm?$AAb?$AAe?$AAr?$AA?$AA@ 00000001800355b8     libucrt:nlsdata.obj
 0002:000025d0       ??_C@_1BC@FEMKIFH@?$AAD?$AAe?$AAc?$AAe?$AAm?$AAb?$AAe?$AAr?$AA?$AA@ 00000001800355d0     libucrt:nlsdata.obj
 0002:000025e4       ??_C@_15ODEHAHHF@?$AAA?$AAM?$AA?$AA@ 00000001800355e4     libucrt:nlsdata.obj
 0002:000025ec       ??_C@_15CLMNNGEL@?$AAP?$AAM?$AA?$AA@ 00000001800355ec     libucrt:nlsdata.obj
 0002:000025f8       ??_C@_1BC@IEBCMHCM@?$AAM?$AAM?$AA?1?$AAd?$AAd?$AA?1?$AAy?$AAy?$AA?$AA@ 00000001800355f8     libucrt:nlsdata.obj
 0002:00002610       ??_C@_1CI@KNAKOEBC@?$AAd?$AAd?$AAd?$AAd?$AA?0?$AA?5?$AAM?$AAM?$AAM?$AAM?$AA?5?$AAd?$AAd?$AA?0?$AA?5?$AAy?$AAy?$AAy?$AAy?$AA?$AA@ 0000000180035610     libucrt:nlsdata.obj
 0002:00002638       ??_C@_1BC@GDGBMEMK@?$AAH?$AAH?$AA?3?$AAm?$AAm?$AA?3?$AAs?$AAs?$AA?$AA@ 0000000180035638     libucrt:nlsdata.obj
 0002:00002650       ??_C@_1M@BMHNFIME@?$AAe?$AAn?$AA?9?$AAU?$AAS?$AA?$AA@ 0000000180035650     libucrt:nlsdata.obj
 0002:00002680       ??_C@_1M@HPNHIDJI@?$AAj?$AAa?$AA?9?$AAJ?$AAP?$AA?$AA@ 0000000180035680     libucrt:mbctype.obj
 0002:00002690       ??_C@_1M@BIBDDEMK@?$AAz?$AAh?$AA?9?$AAC?$AAN?$AA?$AA@ 0000000180035690     libucrt:mbctype.obj
 0002:000026a0       ??_C@_1M@JLOOOEGK@?$AAk?$AAo?$AA?9?$AAK?$AAR?$AA?$AA@ 00000001800356a0     libucrt:mbctype.obj
 0002:000026b0       ??_C@_1M@CLNBBOPM@?$AAz?$AAh?$AA?9?$AAT?$AAW?$AA?$AA@ 00000001800356b0     libucrt:mbctype.obj
 0002:000026c0       __newctype                 00000001800356c0     libucrt:ctype.obj
 0002:000029c0       __newclmap                 00000001800359c0     libucrt:ctype.obj
 0002:00002b40       __newcumap                 0000000180035b40     libucrt:ctype.obj
 0002:00002cc0       _wctype                    0000000180035cc0     libucrt:ctype.obj
 0002:00003d10       ??_C@_15EMKDOKLE@?$AAa?$AAr?$AA?$AA@ 0000000180036d10     libucrt:lcidtoname_downlevel.obj
 0002:00003d18       ??_C@_15KNPADPLH@?$AAb?$AAg?$AA?$AA@ 0000000180036d18     libucrt:lcidtoname_downlevel.obj
 0002:00003d20       ??_C@_15EDMHLDMO@?$AAc?$AAa?$AA?$AA@ 0000000180036d20     libucrt:lcidtoname_downlevel.obj
 0002:00003d28       ??_C@_1O@BPEAJADD@?$AAz?$AAh?$AA?9?$AAC?$AAH?$AAS?$AA?$AA@ 0000000180036d28     libucrt:lcidtoname_downlevel.obj
 0002:00003d38       ??_C@_15LJNHCMNK@?$AAc?$AAs?$AA?$AA@ 0000000180036d38     libucrt:lcidtoname_downlevel.obj
 0002:00003d40       ??_C@_15FOMCIDHG@?$AAd?$AAa?$AA?$AA@ 0000000180036d40     libucrt:lcidtoname_downlevel.obj
 0002:00003d48       ??_C@_15NBKABECB@?$AAd?$AAe?$AA?$AA@ 0000000180036d48     libucrt:lcidtoname_downlevel.obj
 0002:00003d50       ??_C@_15GHPEIIAO@?$AAe?$AAl?$AA?$AA@ 0000000180036d50     libucrt:lcidtoname_downlevel.obj
 0002:00003d58       ??_C@_15MNPNEAIF@?$AAe?$AAn?$AA?$AA@ 0000000180036d58     libucrt:lcidtoname_downlevel.obj
 0002:00003d60       ??_C@_15GPIOMPMH@?$AAe?$AAs?$AA?$AA@ 0000000180036d60     libucrt:lcidtoname_downlevel.obj
 0002:00003d68       ??_C@_15NGLOAKJC@?$AAf?$AAi?$AA?$AA@ 0000000180036d68     libucrt:lcidtoname_downlevel.obj
 0002:00003d70       ??_C@_15FBKGNKAM@?$AAf?$AAr?$AA?$AA@ 0000000180036d70     libucrt:lcidtoname_downlevel.obj
 0002:00003d78       ??_C@_15KGGCNEFK@?$AAh?$AAe?$AA?$AA@ 0000000180036d78     libucrt:lcidtoname_downlevel.obj
 0002:00003d80       ??_C@_15PGHLIDMF@?$AAh?$AAu?$AA?$AA@ 0000000180036d80     libucrt:lcidtoname_downlevel.obj
 0002:00003d88       ??_C@_15BIEMAPLM@?$AAi?$AAs?$AA?$AA@ 0000000180036d88     libucrt:lcidtoname_downlevel.obj
 0002:00003d90       ??_C@_15IFJLDHAF@?$AAi?$AAt?$AA?$AA@ 0000000180036d90     libucrt:lcidtoname_downlevel.obj
 0002:00003d98       ??_C@_15GEMIOCAG@?$AAj?$AAa?$AA?$AA@ 0000000180036d98     libucrt:lcidtoname_downlevel.obj
 0002:00003da0       ??_C@_15EPELEGJA@?$AAk?$AAo?$AA?$AA@ 0000000180036da0     libucrt:lcidtoname_downlevel.obj
 0002:00003da8       ??_C@_15NDDHIMN@?$AAn?$AAl?$AA?$AA@ 0000000180036da8     libucrt:lcidtoname_downlevel.obj
 0002:00003db0       ??_C@_15BPIGNHCD@?$AAn?$AAo?$AA?$AA@ 0000000180036db0     libucrt:lcidtoname_downlevel.obj
 0002:00003db8       ??_C@_15DEOPBLCG@?$AAp?$AAl?$AA?$AA@ 0000000180036db8     libucrt:lcidtoname_downlevel.obj
 0002:00003dc0       ??_C@_15KBECGEFG@?$AAp?$AAt?$AA?$AA@ 0000000180036dc0     libucrt:lcidtoname_downlevel.obj
 0002:00003dc8       ??_C@_15GLJCBFMD@?$AAr?$AAo?$AA?$AA@ 0000000180036dc8     libucrt:lcidtoname_downlevel.obj
 0002:00003dd0       ??_C@_15FEDGKCDI@?$AAr?$AAu?$AA?$AA@ 0000000180036dd0     libucrt:lcidtoname_downlevel.obj
 0002:00003dd8       ??_C@_15GLKMLLHM@?$AAh?$AAr?$AA?$AA@ 0000000180036dd8     libucrt:lcidtoname_downlevel.obj
 0002:00003de0       ??_C@_15CPKMFBDB@?$AAs?$AAk?$AA?$AA@ 0000000180036de0     libucrt:lcidtoname_downlevel.obj
 0002:00003de8       ??_C@_15BAAIOGMK@?$AAs?$AAq?$AA?$AA@ 0000000180036de8     libucrt:lcidtoname_downlevel.obj
 0002:00003df0       ??_C@_15INNPNOHD@?$AAs?$AAv?$AA?$AA@ 0000000180036df0     libucrt:lcidtoname_downlevel.obj
 0002:00003df8       ??_C@_15CABMMOGH@?$AAt?$AAh?$AA?$AA@ 0000000180036df8     libucrt:lcidtoname_downlevel.obj
 0002:00003e00       ??_C@_15BPLIHJJM@?$AAt?$AAr?$AA?$AA@ 0000000180036e00     libucrt:lcidtoname_downlevel.obj
 0002:00003e08       ??_C@_15NEOEKKDJ@?$AAu?$AAr?$AA?$AA@ 0000000180036e08     libucrt:lcidtoname_downlevel.obj
 0002:00003e10       ??_C@_15NFICGAJK@?$AAi?$AAd?$AA?$AA@ 0000000180036e10     libucrt:lcidtoname_downlevel.obj
 0002:00003e18       ??_C@_15PJPFLCCM@?$AAu?$AAk?$AA?$AA@ 0000000180036e18     libucrt:lcidtoname_downlevel.obj
 0002:00003e20       ??_C@_15HPJPHDM@?$AAb?$AAe?$AA?$AA@ 0000000180036e20     libucrt:lcidtoname_downlevel.obj
 0002:00003e28       ??_C@_15LCHLGJII@?$AAs?$AAl?$AA?$AA@ 0000000180036e28     libucrt:lcidtoname_downlevel.obj
 0002:00003e30       ??_C@_15PCFJPHHO@?$AAe?$AAt?$AA?$AA@ 0000000180036e30     libucrt:lcidtoname_downlevel.obj
 0002:00003e38       ??_C@_15HPFPGODN@?$AAl?$AAv?$AA?$AA@ 0000000180036e38     libucrt:lcidtoname_downlevel.obj
 0002:00003e40       ??_C@_15NFFGKGLG@?$AAl?$AAt?$AA?$AA@ 0000000180036e40     libucrt:lcidtoname_downlevel.obj
 0002:00003e48       ??_C@_15BDAKCCHN@?$AAf?$AAa?$AA?$AA@ 0000000180036e48     libucrt:lcidtoname_downlevel.obj
 0002:00003e50       ??_C@_15NFGIAIAJ@?$AAv?$AAi?$AA?$AA@ 0000000180036e50     libucrt:lcidtoname_downlevel.obj
 0002:00003e58       ??_C@_15LMKNDMHN@?$AAh?$AAy?$AA?$AA@ 0000000180036e58     libucrt:lcidtoname_downlevel.obj
 0002:00003e60       ??_C@_15IJBHMCFL@?$AAa?$AAz?$AA?$AA@ 0000000180036e60     libucrt:lcidtoname_downlevel.obj
 0002:00003e68       ??_C@_15EKOFJABL@?$AAe?$AAu?$AA?$AA@ 0000000180036e68     libucrt:lcidtoname_downlevel.obj
 0002:00003e70       ??_C@_15BGHADCNK@?$AAm?$AAk?$AA?$AA@ 0000000180036e70     libucrt:lcidtoname_downlevel.obj
 0002:00003e78       ??_C@_15JDNICKHM@?$AAa?$AAf?$AA?$AA@ 0000000180036e78     libucrt:lcidtoname_downlevel.obj
 0002:00003e80       ??_C@_15KPJEDBKD@?$AAk?$AAa?$AA?$AA@ 0000000180036e80     libucrt:lcidtoname_downlevel.obj
 0002:00003e88       ??_C@_15PDNFFFEO@?$AAf?$AAo?$AA?$AA@ 0000000180036e88     libucrt:lcidtoname_downlevel.obj
 0002:00003e90       ??_C@_15OMLEGLOC@?$AAh?$AAi?$AA?$AA@ 0000000180036e90     libucrt:lcidtoname_downlevel.obj
 0002:00003e98       ??_C@_15IDNNENKK@?$AAm?$AAs?$AA?$AA@ 0000000180036e98     libucrt:lcidtoname_downlevel.obj
 0002:00003ea0       ??_C@_15MACJNBMH@?$AAk?$AAk?$AA?$AA@ 0000000180036ea0     libucrt:lcidtoname_downlevel.obj
 0002:00003ea8       ??_C@_15DKDJEOND@?$AAk?$AAy?$AA?$AA@ 0000000180036ea8     libucrt:lcidtoname_downlevel.obj
 0002:00003eb0       ??_C@_15DFGDLJBG@?$AAs?$AAw?$AA?$AA@ 0000000180036eb0     libucrt:lcidtoname_downlevel.obj
 0002:00003eb8       ??_C@_15BBFAICNG@?$AAu?$AAz?$AA?$AA@ 0000000180036eb8     libucrt:lcidtoname_downlevel.obj
 0002:00003ec0       ??_C@_15DKNDCGEA@?$AAt?$AAt?$AA?$AA@ 0000000180036ec0     libucrt:lcidtoname_downlevel.obj
 0002:00003ec8       ??_C@_15MGIFMDPL@?$AAp?$AAa?$AA?$AA@ 0000000180036ec8     libucrt:lcidtoname_downlevel.obj
 0002:00003ed0       ??_C@_15HCNDBBA@?$AAg?$AAu?$AA?$AA@ 0000000180036ed0     libucrt:lcidtoname_downlevel.obj
 0002:00003ed8       ??_C@_15FNBEIBON@?$AAt?$AAa?$AA?$AA@ 0000000180036ed8     libucrt:lcidtoname_downlevel.obj
 0002:00003ee0       ??_C@_15NCHGBGLK@?$AAt?$AAe?$AA?$AA@ 0000000180036ee0     libucrt:lcidtoname_downlevel.obj
 0002:00003ee8       ??_C@_15PHPHCBPF@?$AAk?$AAn?$AA?$AA@ 0000000180036ee8     libucrt:lcidtoname_downlevel.obj
 0002:00003ef0       ??_C@_15DLGBCKMP@?$AAm?$AAr?$AA?$AA@ 0000000180036ef0     libucrt:lcidtoname_downlevel.obj
 0002:00003ef8       ??_C@_15EABBLBFF@?$AAs?$AAa?$AA?$AA@ 0000000180036ef8     libucrt:lcidtoname_downlevel.obj
 0002:00003f00       ??_C@_15CBKOMCOI@?$AAm?$AAn?$AA?$AA@ 0000000180036f00     libucrt:lcidtoname_downlevel.obj
 0002:00003f08       ??_C@_15CKDMCJAF@?$AAg?$AAl?$AA?$AA@ 0000000180036f08     libucrt:lcidtoname_downlevel.obj
 0002:00003f10       ??_C@_17CNJFBPG@?$AAk?$AAo?$AAk?$AA?$AA@ 0000000180036f10     libucrt:lcidtoname_downlevel.obj
 0002:00003f18       ??_C@_17FFBJICPL@?$AAs?$AAy?$AAr?$AA?$AA@ 0000000180036f18     libucrt:lcidtoname_downlevel.obj
 0002:00003f20       ??_C@_17KPNDCPAF@?$AAd?$AAi?$AAv?$AA?$AA@ 0000000180036f20     libucrt:lcidtoname_downlevel.obj
 0002:00003f28       ??_C@_1M@OKAHONE@?$AAa?$AAr?$AA?9?$AAS?$AAA?$AA?$AA@ 0000000180036f28     libucrt:lcidtoname_downlevel.obj
 0002:00003f38       ??_C@_1M@FFFIGIGK@?$AAb?$AAg?$AA?9?$AAB?$AAG?$AA?$AA@ 0000000180036f38     libucrt:lcidtoname_downlevel.obj
 0002:00003f48       ??_C@_1M@BJNKEDC@?$AAc?$AAa?$AA?9?$AAE?$AAS?$AA?$AA@ 0000000180036f48     libucrt:lcidtoname_downlevel.obj
 0002:00003f58       ??_C@_1M@IJJHFJHA@?$AAc?$AAs?$AA?9?$AAC?$AAZ?$AA?$AA@ 0000000180036f58     libucrt:lcidtoname_downlevel.obj
 0002:00003f68       ??_C@_1M@CLPEOBGI@?$AAd?$AAa?$AA?9?$AAD?$AAK?$AA?$AA@ 0000000180036f68     libucrt:lcidtoname_downlevel.obj
 0002:00003f78       ??_C@_1M@MCMADGCB@?$AAd?$AAe?$AA?9?$AAD?$AAE?$AA?$AA@ 0000000180036f78     libucrt:lcidtoname_downlevel.obj
 0002:00003f88       ??_C@_1M@OOCKEMAM@?$AAe?$AAl?$AA?9?$AAG?$AAR?$AA?$AA@ 0000000180036f88     libucrt:lcidtoname_downlevel.obj
 0002:00003f98       ??_C@_1M@DDNJFGID@?$AAf?$AAi?$AA?9?$AAF?$AAI?$AA?$AA@ 0000000180036f98     libucrt:lcidtoname_downlevel.obj
 0002:00003fa8       ??_C@_1M@GLIPPMAC@?$AAf?$AAr?$AA?9?$AAF?$AAR?$AA?$AA@ 0000000180036fa8     libucrt:lcidtoname_downlevel.obj
 0002:00003fb8       ??_C@_1M@GFMCHPE@?$AAh?$AAe?$AA?9?$AAI?$AAL?$AA?$AA@ 0000000180036fb8     libucrt:lcidtoname_downlevel.obj
 0002:00003fc8       ??_C@_1M@MHLPGNKM@?$AAh?$AAu?$AA?9?$AAH?$AAU?$AA?$AA@ 0000000180036fc8     libucrt:lcidtoname_downlevel.obj
 0002:00003fd8       ??_C@_1M@LPDDNNPN@?$AAi?$AAs?$AA?9?$AAI?$AAS?$AA?$AA@ 0000000180036fd8     libucrt:lcidtoname_downlevel.obj
 0002:00003fe8       ??_C@_1M@MADIPODN@?$AAi?$AAt?$AA?9?$AAI?$AAT?$AA?$AA@ 0000000180036fe8     libucrt:lcidtoname_downlevel.obj
 0002:00003ff8       ??_C@_1M@IHBJJGG@?$AAn?$AAl?$AA?9?$AAN?$AAL?$AA?$AA@ 0000000180036ff8     libucrt:lcidtoname_downlevel.obj
 0002:00004008       ??_C@_1M@EANAGDL@?$AAn?$AAb?$AA?9?$AAN?$AAO?$AA?$AA@ 0000000180037008     libucrt:lcidtoname_downlevel.obj
 0002:00004018       ??_C@_1M@NEIEMEGP@?$AAp?$AAl?$AA?9?$AAP?$AAL?$AA?$AA@ 0000000180037018     libucrt:lcidtoname_downlevel.obj
 0002:00004028       ??_C@_1M@BOCFIGEP@?$AAp?$AAt?$AA?9?$AAB?$AAR?$AA?$AA@ 0000000180037028     libucrt:lcidtoname_downlevel.obj
 0002:00004038       ??_C@_1M@IMPFOPBG@?$AAr?$AAo?$AA?9?$AAR?$AAO?$AA?$AA@ 0000000180037038     libucrt:lcidtoname_downlevel.obj
 0002:00004048       ??_C@_1M@IDNNEJMM@?$AAr?$AAu?$AA?9?$AAR?$AAU?$AA?$AA@ 0000000180037048     libucrt:lcidtoname_downlevel.obj
 0002:00004058       ??_C@_1M@LILEEOGM@?$AAh?$AAr?$AA?9?$AAH?$AAR?$AA?$AA@ 0000000180037058     libucrt:lcidtoname_downlevel.obj
 0002:00004068       ??_C@_1M@FKIFEHPB@?$AAs?$AAk?$AA?9?$AAS?$AAK?$AA?$AA@ 0000000180037068     libucrt:lcidtoname_downlevel.obj
 0002:00004078       ??_C@_1M@LJMAMNPJ@?$AAs?$AAq?$AA?9?$AAA?$AAL?$AA?$AA@ 0000000180037078     libucrt:lcidtoname_downlevel.obj
 0002:00004088       ??_C@_1M@GIAKDKJK@?$AAs?$AAv?$AA?9?$AAS?$AAE?$AA?$AA@ 0000000180037088     libucrt:lcidtoname_downlevel.obj
 0002:00004098       ??_C@_1M@MKJKIKCL@?$AAt?$AAh?$AA?9?$AAT?$AAH?$AA?$AA@ 0000000180037098     libucrt:lcidtoname_downlevel.obj
 0002:000040a8       ??_C@_1M@MFLCCMPB@?$AAt?$AAr?$AA?9?$AAT?$AAR?$AA?$AA@ 00000001800370a8     libucrt:lcidtoname_downlevel.obj
 0002:000040b8       ??_C@_1M@OIJHDKJN@?$AAu?$AAr?$AA?9?$AAP?$AAK?$AA?$AA@ 00000001800370b8     libucrt:lcidtoname_downlevel.obj
 0002:000040c8       ??_C@_1M@LHIPCIEK@?$AAi?$AAd?$AA?9?$AAI?$AAD?$AA?$AA@ 00000001800370c8     libucrt:lcidtoname_downlevel.obj
 0002:000040d8       ??_C@_1M@MFMOBGI@?$AAu?$AAk?$AA?9?$AAU?$AAA?$AA?$AA@ 00000001800370d8     libucrt:lcidtoname_downlevel.obj
 0002:000040e8       ??_C@_1M@OBGLJIPL@?$AAb?$AAe?$AA?9?$AAB?$AAY?$AA?$AA@ 00000001800370e8     libucrt:lcidtoname_downlevel.obj
 0002:000040f8       ??_C@_1M@BCFAJEAD@?$AAs?$AAl?$AA?9?$AAS?$AAI?$AA?$AA@ 00000001800370f8     libucrt:lcidtoname_downlevel.obj
 0002:00004108       ??_C@_1M@FKFFEDDN@?$AAe?$AAt?$AA?9?$AAE?$AAE?$AA?$AA@ 0000000180037108     libucrt:lcidtoname_downlevel.obj
 0002:00004118       ??_C@_1M@KGKKAACI@?$AAl?$AAv?$AA?9?$AAL?$AAV?$AA?$AA@ 0000000180037118     libucrt:lcidtoname_downlevel.obj
 0002:00004128       ??_C@_1M@IFGBIJO@?$AAl?$AAt?$AA?9?$AAL?$AAT?$AA?$AA@ 0000000180037128     libucrt:lcidtoname_downlevel.obj
 0002:00004138       ??_C@_1M@FGEAHEDM@?$AAf?$AAa?$AA?9?$AAI?$AAR?$AA?$AA@ 0000000180037138     libucrt:lcidtoname_downlevel.obj
 0002:00004148       ??_C@_1M@KBMAIBFN@?$AAv?$AAi?$AA?9?$AAV?$AAN?$AA?$AA@ 0000000180037148     libucrt:lcidtoname_downlevel.obj
 0002:00004158       ??_C@_1M@GPCBKDJK@?$AAh?$AAy?$AA?9?$AAA?$AAM?$AA?$AA@ 0000000180037158     libucrt:lcidtoname_downlevel.obj
 0002:00004168       ??_C@_1BG@BECMDDJB@?$AAa?$AAz?$AA?9?$AAA?$AAZ?$AA?9?$AAL?$AAa?$AAt?$AAn?$AA?$AA@ 0000000180037168     libucrt:lcidtoname_downlevel.obj
 0002:00004180       ??_C@_1M@MAOFCAEA@?$AAe?$AAu?$AA?9?$AAE?$AAS?$AA?$AA@ 0000000180037180     libucrt:lcidtoname_downlevel.obj
 0002:00004190       ??_C@_1M@IGHABKPI@?$AAm?$AAk?$AA?9?$AAM?$AAK?$AA?$AA@ 0000000180037190     libucrt:lcidtoname_downlevel.obj
 0002:000041a0       ??_C@_1M@IAIGNEJG@?$AAt?$AAn?$AA?9?$AAZ?$AAA?$AA?$AA@ 00000001800371a0     libucrt:lcidtoname_downlevel.obj
 0002:000041b0       ??_C@_1M@IIJCOJFA@?$AAx?$AAh?$AA?9?$AAZ?$AAA?$AA?$AA@ 00000001800371b0     libucrt:lcidtoname_downlevel.obj
 0002:000041c0       ??_C@_1M@LGPJHNJH@?$AAz?$AAu?$AA?9?$AAZ?$AAA?$AA?$AA@ 00000001800371c0     libucrt:lcidtoname_downlevel.obj
 0002:000041d0       ??_C@_1M@HOKAOIO@?$AAa?$AAf?$AA?9?$AAZ?$AAA?$AA?$AA@ 00000001800371d0     libucrt:lcidtoname_downlevel.obj
 0002:000041e0       ??_C@_1M@DPCLHLIE@?$AAk?$AAa?$AA?9?$AAG?$AAE?$AA?$AA@ 00000001800371e0     libucrt:lcidtoname_downlevel.obj
 0002:000041f0       ??_C@_1M@BLKMHJBI@?$AAf?$AAo?$AA?9?$AAF?$AAO?$AA?$AA@ 00000001800371f0     libucrt:lcidtoname_downlevel.obj
 0002:00004200       ??_C@_1M@LGGJAPPB@?$AAh?$AAi?$AA?9?$AAI?$AAN?$AA?$AA@ 0000000180037200     libucrt:lcidtoname_downlevel.obj
 0002:00004210       ??_C@_1M@FIKPIHFE@?$AAm?$AAt?$AA?9?$AAM?$AAT?$AA?$AA@ 0000000180037210     libucrt:lcidtoname_downlevel.obj
 0002:00004220       ??_C@_1M@HEGGPBFA@?$AAs?$AAe?$AA?9?$AAN?$AAO?$AA?$AA@ 0000000180037220     libucrt:lcidtoname_downlevel.obj
 0002:00004230       ??_C@_1M@EIBJEEPA@?$AAm?$AAs?$AA?9?$AAM?$AAY?$AA?$AA@ 0000000180037230     libucrt:lcidtoname_downlevel.obj
 0002:00004240       ??_C@_1M@FHLBGMPP@?$AAk?$AAk?$AA?9?$AAK?$AAZ?$AA?$AA@ 0000000180037240     libucrt:lcidtoname_downlevel.obj
 0002:00004250       ??_C@_1M@NGJJLCGI@?$AAk?$AAy?$AA?9?$AAK?$AAG?$AA?$AA@ 0000000180037250     libucrt:lcidtoname_downlevel.obj
 0002:00004260       ??_C@_1M@GIENNBFC@?$AAs?$AAw?$AA?9?$AAK?$AAE?$AA?$AA@ 0000000180037260     libucrt:lcidtoname_downlevel.obj
 0002:00004270       ??_C@_1BG@NDGMJIMJ@?$AAu?$AAz?$AA?9?$AAU?$AAZ?$AA?9?$AAL?$AAa?$AAt?$AAn?$AA?$AA@ 0000000180037270     libucrt:lcidtoname_downlevel.obj
 0002:00004288       ??_C@_1M@IDCCIHBC@?$AAt?$AAt?$AA?9?$AAR?$AAU?$AA?$AA@ 0000000180037288     libucrt:lcidtoname_downlevel.obj
 0002:00004298       ??_C@_1M@LOICPMOJ@?$AAb?$AAn?$AA?9?$AAI?$AAN?$AA?$AA@ 0000000180037298     libucrt:lcidtoname_downlevel.obj
 0002:000042a8       ??_C@_1M@KPKKNEAH@?$AAp?$AAa?$AA?9?$AAI?$AAN?$AA?$AA@ 00000001800372a8     libucrt:lcidtoname_downlevel.obj
 0002:000042b8       ??_C@_1M@PJGPPBOG@?$AAg?$AAu?$AA?9?$AAI?$AAN?$AA?$AA@ 00000001800372b8     libucrt:lcidtoname_downlevel.obj
 0002:000042c8       ??_C@_1M@KMKMOPHI@?$AAt?$AAa?$AA?9?$AAI?$AAN?$AA?$AA@ 00000001800372c8     libucrt:lcidtoname_downlevel.obj
 0002:000042d8       ??_C@_1M@KFEHEPAC@?$AAt?$AAe?$AA?9?$AAI?$AAN?$AA?$AA@ 00000001800372d8     libucrt:lcidtoname_downlevel.obj
 0002:000042e8       ??_C@_1M@CDCLMGHI@?$AAk?$AAn?$AA?9?$AAI?$AAN?$AA?$AA@ 00000001800372e8     libucrt:lcidtoname_downlevel.obj
 0002:000042f8       ??_C@_1M@MIODLDKF@?$AAm?$AAl?$AA?9?$AAI?$AAN?$AA?$AA@ 00000001800372f8     libucrt:lcidtoname_downlevel.obj
 0002:00004308       ??_C@_1M@PBIEACPO@?$AAm?$AAr?$AA?9?$AAI?$AAN?$AA?$AA@ 0000000180037308     libucrt:lcidtoname_downlevel.obj
 0002:00004318       ??_C@_1M@NIDEAGPH@?$AAs?$AAa?$AA?9?$AAI?$AAN?$AA?$AA@ 0000000180037318     libucrt:lcidtoname_downlevel.obj
 0002:00004328       ??_C@_1M@FHIHCBIO@?$AAm?$AAn?$AA?9?$AAM?$AAN?$AA?$AA@ 0000000180037328     libucrt:lcidtoname_downlevel.obj
 0002:00004338       ??_C@_1M@JAIJPENP@?$AAc?$AAy?$AA?9?$AAG?$AAB?$AA?$AA@ 0000000180037338     libucrt:lcidtoname_downlevel.obj
 0002:00004348       ??_C@_1M@PHGFBEPN@?$AAg?$AAl?$AA?9?$AAE?$AAS?$AA?$AA@ 0000000180037348     libucrt:lcidtoname_downlevel.obj
 0002:00004358       ??_C@_1O@KPIPDNCP@?$AAk?$AAo?$AAk?$AA?9?$AAI?$AAN?$AA?$AA@ 0000000180037358     libucrt:lcidtoname_downlevel.obj
 0002:00004368       ??_C@_1O@KNHJLDJA@?$AAs?$AAy?$AAr?$AA?9?$AAS?$AAY?$AA?$AA@ 0000000180037368     libucrt:lcidtoname_downlevel.obj
 0002:00004378       ??_C@_1O@MKEKBLAH@?$AAd?$AAi?$AAv?$AA?9?$AAM?$AAV?$AA?$AA@ 0000000180037378     libucrt:lcidtoname_downlevel.obj
 0002:00004388       ??_C@_1O@OHDCKDDF@?$AAq?$AAu?$AAz?$AA?9?$AAB?$AAO?$AA?$AA@ 0000000180037388     libucrt:lcidtoname_downlevel.obj
 0002:00004398       ??_C@_1M@LEPJNLFD@?$AAn?$AAs?$AA?9?$AAZ?$AAA?$AA?$AA@ 0000000180037398     libucrt:lcidtoname_downlevel.obj
 0002:000043a8       ??_C@_1M@OMLEIIJB@?$AAm?$AAi?$AA?9?$AAN?$AAZ?$AA?$AA@ 00000001800373a8     libucrt:lcidtoname_downlevel.obj
 0002:000043b8       ??_C@_1M@PMPEAILG@?$AAa?$AAr?$AA?9?$AAI?$AAQ?$AA?$AA@ 00000001800373b8     libucrt:lcidtoname_downlevel.obj
 0002:000043c8       ??_C@_1M@CNKPNOEE@?$AAd?$AAe?$AA?9?$AAC?$AAH?$AA?$AA@ 00000001800373c8     libucrt:lcidtoname_downlevel.obj
 0002:000043d8       ??_C@_1M@LKMGMLKO@?$AAe?$AAn?$AA?9?$AAG?$AAB?$AA?$AA@ 00000001800373d8     libucrt:lcidtoname_downlevel.obj
 0002:000043e8       ??_C@_1M@PGKJFFGL@?$AAe?$AAs?$AA?9?$AAM?$AAX?$AA?$AA@ 00000001800373e8     libucrt:lcidtoname_downlevel.obj
 0002:000043f8       ??_C@_1M@DNNANBDC@?$AAf?$AAr?$AA?9?$AAB?$AAE?$AA?$AA@ 00000001800373f8     libucrt:lcidtoname_downlevel.obj
 0002:00004408       ??_C@_1M@HLGMDFHM@?$AAi?$AAt?$AA?9?$AAC?$AAH?$AA?$AA@ 0000000180037408     libucrt:lcidtoname_downlevel.obj
 0002:00004418       ??_C@_1M@CLLBGJH@?$AAn?$AAl?$AA?9?$AAB?$AAE?$AA?$AA@ 0000000180037418     libucrt:lcidtoname_downlevel.obj
 0002:00004428       ??_C@_1M@BODBOGLF@?$AAn?$AAn?$AA?9?$AAN?$AAO?$AA?$AA@ 0000000180037428     libucrt:lcidtoname_downlevel.obj
 0002:00004438       ??_C@_1M@HFFAHKAD@?$AAp?$AAt?$AA?9?$AAP?$AAT?$AA?$AA@ 0000000180037438     libucrt:lcidtoname_downlevel.obj
 0002:00004448       ??_C@_1BG@LNOAKHIE@?$AAs?$AAr?$AA?9?$AAS?$AAP?$AA?9?$AAL?$AAa?$AAt?$AAn?$AA?$AA@ 0000000180037448     libucrt:lcidtoname_downlevel.obj
 0002:00004460       ??_C@_1M@HBMHBGAK@?$AAs?$AAv?$AA?9?$AAF?$AAI?$AA?$AA@ 0000000180037460     libucrt:lcidtoname_downlevel.obj
 0002:00004470       ??_C@_1BG@DGCJGJBE@?$AAa?$AAz?$AA?9?$AAA?$AAZ?$AA?9?$AAC?$AAy?$AAr?$AAl?$AA?$AA@ 0000000180037470     libucrt:lcidtoname_downlevel.obj
 0002:00004488       ??_C@_1M@KEJDAAHB@?$AAs?$AAe?$AA?9?$AAS?$AAE?$AA?$AA@ 0000000180037488     libucrt:lcidtoname_downlevel.obj
 0002:00004498       ??_C@_1M@HEIBJJAD@?$AAm?$AAs?$AA?9?$AAB?$AAN?$AA?$AA@ 0000000180037498     libucrt:lcidtoname_downlevel.obj
 0002:000044a8       ??_C@_1BG@PBGJMCEM@?$AAu?$AAz?$AA?9?$AAU?$AAZ?$AA?9?$AAC?$AAy?$AAr?$AAl?$AA?$AA@ 00000001800374a8     libucrt:lcidtoname_downlevel.obj
 0002:000044c0       ??_C@_1O@LAOBCMDF@?$AAq?$AAu?$AAz?$AA?9?$AAE?$AAC?$AA?$AA@ 00000001800374c0     libucrt:lcidtoname_downlevel.obj
 0002:000044d0       ??_C@_1M@POEEMAIO@?$AAa?$AAr?$AA?9?$AAE?$AAG?$AA?$AA@ 00000001800374d0     libucrt:lcidtoname_downlevel.obj
 0002:000044e0       ??_C@_1M@EFAKDEDL@?$AAz?$AAh?$AA?9?$AAH?$AAK?$AA?$AA@ 00000001800374e0     libucrt:lcidtoname_downlevel.obj
 0002:000044f0       ??_C@_1M@HKKIJHGI@?$AAd?$AAe?$AA?9?$AAA?$AAT?$AA?$AA@ 00000001800374f0     libucrt:lcidtoname_downlevel.obj
 0002:00004500       ??_C@_1M@KBFBEHJF@?$AAe?$AAn?$AA?9?$AAA?$AAU?$AA?$AA@ 0000000180037500     libucrt:lcidtoname_downlevel.obj
 0002:00004510       ??_C@_1M@MNPLFAAH@?$AAe?$AAs?$AA?9?$AAE?$AAS?$AA?$AA@ 0000000180037510     libucrt:lcidtoname_downlevel.obj
 0002:00004520       ??_C@_1M@HJOOJFMA@?$AAf?$AAr?$AA?9?$AAC?$AAA?$AA?$AA@ 0000000180037520     libucrt:lcidtoname_downlevel.obj
 0002:00004530       ??_C@_1BG@JPOFPNAB@?$AAs?$AAr?$AA?9?$AAS?$AAP?$AA?9?$AAC?$AAy?$AAr?$AAl?$AA?$AA@ 0000000180037530     libucrt:lcidtoname_downlevel.obj
 0002:00004548       ??_C@_1M@LNFOCMOB@?$AAs?$AAe?$AA?9?$AAF?$AAI?$AA?$AA@ 0000000180037548     libucrt:lcidtoname_downlevel.obj
 0002:00004558       ??_C@_1O@MGJBOAMB@?$AAq?$AAu?$AAz?$AA?9?$AAP?$AAE?$AA?$AA@ 0000000180037558     libucrt:lcidtoname_downlevel.obj
 0002:00004568       ??_C@_1M@GJINLBOK@?$AAa?$AAr?$AA?9?$AAL?$AAY?$AA?$AA@ 0000000180037568     libucrt:lcidtoname_downlevel.obj
 0002:00004578       ??_C@_1M@GGMNHJNL@?$AAz?$AAh?$AA?9?$AAS?$AAG?$AA?$AA@ 0000000180037578     libucrt:lcidtoname_downlevel.obj
 0002:00004588       ??_C@_1M@HOIKODND@?$AAd?$AAe?$AA?9?$AAL?$AAU?$AA?$AA@ 0000000180037588     libucrt:lcidtoname_downlevel.obj
 0002:00004598       ??_C@_1M@DDOCCGFG@?$AAe?$AAn?$AA?9?$AAC?$AAA?$AA?$AA@ 0000000180037598     libucrt:lcidtoname_downlevel.obj
 0002:000045a8       ??_C@_1M@BNOEMJLF@?$AAe?$AAs?$AA?9?$AAG?$AAT?$AA?$AA@ 00000001800375a8     libucrt:lcidtoname_downlevel.obj
 0002:000045b8       ??_C@_1M@EOGNKEK@?$AAf?$AAr?$AA?9?$AAC?$AAH?$AA?$AA@ 00000001800375b8     libucrt:lcidtoname_downlevel.obj
 0002:000045c8       ??_C@_1M@FLIDJFHL@?$AAh?$AAr?$AA?9?$AAB?$AAA?$AA?$AA@ 00000001800375c8     libucrt:lcidtoname_downlevel.obj
 0002:000045d8       ??_C@_1O@FMCELNAJ@?$AAs?$AAm?$AAj?$AA?9?$AAN?$AAO?$AA?$AA@ 00000001800375d8     libucrt:lcidtoname_downlevel.obj
 0002:000045e8       ??_C@_1M@JHGLJMGJ@?$AAa?$AAr?$AA?9?$AAD?$AAZ?$AA?$AA@ 00000001800375e8     libucrt:lcidtoname_downlevel.obj
 0002:000045f8       ??_C@_1M@JKKFDCNP@?$AAz?$AAh?$AA?9?$AAM?$AAO?$AA?$AA@ 00000001800375f8     libucrt:lcidtoname_downlevel.obj
 0002:00004608       ??_C@_1M@GEEFALPE@?$AAd?$AAe?$AA?9?$AAL?$AAI?$AA?$AA@ 0000000180037608     libucrt:lcidtoname_downlevel.obj
 0002:00004618       ??_C@_1M@IGEOFBG@?$AAe?$AAn?$AA?9?$AAN?$AAZ?$AA?$AA@ 0000000180037618     libucrt:lcidtoname_downlevel.obj
 0002:00004628       ??_C@_1M@KDBONEHP@?$AAe?$AAs?$AA?9?$AAC?$AAR?$AA?$AA@ 0000000180037628     libucrt:lcidtoname_downlevel.obj
 0002:00004638       ??_C@_1M@FHMDOHNN@?$AAf?$AAr?$AA?9?$AAL?$AAU?$AA?$AA@ 0000000180037638     libucrt:lcidtoname_downlevel.obj
 0002:00004648       ??_C@_1BG@NFKKMAFG@?$AAb?$AAs?$AA?9?$AAB?$AAA?$AA?9?$AAL?$AAa?$AAt?$AAn?$AA?$AA@ 0000000180037648     libucrt:lcidtoname_downlevel.obj
 0002:00004660       ??_C@_1O@IMNBEMCI@?$AAs?$AAm?$AAj?$AA?9?$AAS?$AAE?$AA?$AA@ 0000000180037660     libucrt:lcidtoname_downlevel.obj
 0002:00004670       ??_C@_1M@DHHMBNDP@?$AAa?$AAr?$AA?9?$AAM?$AAA?$AA?$AA@ 0000000180037670     libucrt:lcidtoname_downlevel.obj
 0002:00004680       ??_C@_1M@BNBLJCGH@?$AAe?$AAn?$AA?9?$AAI?$AAE?$AA?$AA@ 0000000180037680     libucrt:lcidtoname_downlevel.obj
 0002:00004690       ??_C@_1M@GEPAFMDL@?$AAe?$AAs?$AA?9?$AAP?$AAA?$AA?$AA@ 0000000180037690     libucrt:lcidtoname_downlevel.obj
 0002:000046a0       ??_C@_1M@OJONDMDL@?$AAf?$AAr?$AA?9?$AAM?$AAC?$AA?$AA@ 00000001800376a0     libucrt:lcidtoname_downlevel.obj
 0002:000046b0       ??_C@_1BG@OBCNFJB@?$AAs?$AAr?$AA?9?$AAB?$AAA?$AA?9?$AAL?$AAa?$AAt?$AAn?$AA?$AA@ 00000001800376b0     libucrt:lcidtoname_downlevel.obj
 0002:000046c8       ??_C@_1O@KEMEEGPO@?$AAs?$AAm?$AAa?$AA?9?$AAN?$AAO?$AA?$AA@ 00000001800376c8     libucrt:lcidtoname_downlevel.obj
 0002:000046d8       ??_C@_1M@ELMGFODK@?$AAa?$AAr?$AA?9?$AAT?$AAN?$AA?$AA@ 00000001800376d8     libucrt:lcidtoname_downlevel.obj
 0002:000046e8       ??_C@_1M@BHDLHFAF@?$AAe?$AAn?$AA?9?$AAZ?$AAA?$AA?$AA@ 00000001800376e8     libucrt:lcidtoname_downlevel.obj
 0002:000046f8       ??_C@_1M@BMGIGLIF@?$AAe?$AAs?$AA?9?$AAD?$AAO?$AA?$AA@ 00000001800376f8     libucrt:lcidtoname_downlevel.obj
 0002:00004708       ??_C@_1BG@CMBHIPBE@?$AAs?$AAr?$AA?9?$AAB?$AAA?$AA?9?$AAC?$AAy?$AAr?$AAl?$AA?$AA@ 0000000180037708     libucrt:lcidtoname_downlevel.obj
 0002:00004720       ??_C@_1O@HEDBLHNP@?$AAs?$AAm?$AAa?$AA?9?$AAS?$AAE?$AA?$AA@ 0000000180037720     libucrt:lcidtoname_downlevel.obj
 0002:00004730       ??_C@_1M@DAGCADIM@?$AAa?$AAr?$AA?9?$AAO?$AAM?$AA?$AA@ 0000000180037730     libucrt:lcidtoname_downlevel.obj
 0002:00004740       ??_C@_1M@FODLMICG@?$AAe?$AAn?$AA?9?$AAJ?$AAM?$AA?$AA@ 0000000180037740     libucrt:lcidtoname_downlevel.obj
 0002:00004750       ??_C@_1M@DNMLCIHB@?$AAe?$AAs?$AA?9?$AAV?$AAE?$AA?$AA@ 0000000180037750     libucrt:lcidtoname_downlevel.obj
 0002:00004760       ??_C@_1O@EOKHMKJK@?$AAs?$AAm?$AAs?$AA?9?$AAF?$AAI?$AA?$AA@ 0000000180037760     libucrt:lcidtoname_downlevel.obj
 0002:00004770       ??_C@_1M@CAFJMKOF@?$AAa?$AAr?$AA?9?$AAY?$AAE?$AA?$AA@ 0000000180037770     libucrt:lcidtoname_downlevel.obj
 0002:00004780       ??_C@_1M@CBFHIJLI@?$AAe?$AAn?$AA?9?$AAC?$AAB?$AA?$AA@ 0000000180037780     libucrt:lcidtoname_downlevel.obj
 0002:00004790       ??_C@_1M@BGNFLDN@?$AAe?$AAs?$AA?9?$AAC?$AAO?$AA?$AA@ 0000000180037790     libucrt:lcidtoname_downlevel.obj
 0002:000047a0       ??_C@_1O@JMPHMAMC@?$AAs?$AAm?$AAn?$AA?9?$AAF?$AAI?$AA?$AA@ 00000001800377a0     libucrt:lcidtoname_downlevel.obj
 0002:000047b0       ??_C@_1M@JLANABKE@?$AAa?$AAr?$AA?9?$AAS?$AAY?$AA?$AA@ 00000001800377b0     libucrt:lcidtoname_downlevel.obj
 0002:000047c0       ??_C@_1M@HPKGCFGN@?$AAe?$AAn?$AA?9?$AAB?$AAZ?$AA?$AA@ 00000001800377c0     libucrt:lcidtoname_downlevel.obj
 0002:000047d0       ??_C@_1M@OLJCMLGM@?$AAe?$AAs?$AA?9?$AAP?$AAE?$AA?$AA@ 00000001800377d0     libucrt:lcidtoname_downlevel.obj
 0002:000047e0       ??_C@_1M@MKKGFKLE@?$AAa?$AAr?$AA?9?$AAJ?$AAO?$AA?$AA@ 00000001800377e0     libucrt:lcidtoname_downlevel.obj
 0002:000047f0       ??_C@_1M@EKPGLDNI@?$AAe?$AAn?$AA?9?$AAT?$AAT?$AA?$AA@ 00000001800377f0     libucrt:lcidtoname_downlevel.obj
 0002:00004800       ??_C@_1M@OONGHFHE@?$AAe?$AAs?$AA?9?$AAA?$AAR?$AA?$AA@ 0000000180037800     libucrt:lcidtoname_downlevel.obj
 0002:00004810       ??_C@_1M@OOJFGBHE@?$AAa?$AAr?$AA?9?$AAL?$AAB?$AA?$AA@ 0000000180037810     libucrt:lcidtoname_downlevel.obj
 0002:00004820       ??_C@_1M@GCEJHNEG@?$AAe?$AAn?$AA?9?$AAZ?$AAW?$AA?$AA@ 0000000180037820     libucrt:lcidtoname_downlevel.obj
 0002:00004830       ??_C@_1M@JNOCAHJI@?$AAe?$AAs?$AA?9?$AAE?$AAC?$AA?$AA@ 0000000180037830     libucrt:lcidtoname_downlevel.obj
 0002:00004840       ??_C@_1M@JEFHPGGB@?$AAa?$AAr?$AA?9?$AAK?$AAW?$AA?$AA@ 0000000180037840     libucrt:lcidtoname_downlevel.obj
 0002:00004850       ??_C@_1M@MLKIBJOJ@?$AAe?$AAn?$AA?9?$AAP?$AAH?$AA?$AA@ 0000000180037850     libucrt:lcidtoname_downlevel.obj
 0002:00004860       ??_C@_1M@BDNIPEND@?$AAe?$AAs?$AA?9?$AAC?$AAL?$AA?$AA@ 0000000180037860     libucrt:lcidtoname_downlevel.obj
 0002:00004870       ??_C@_1M@MPNMEKBD@?$AAa?$AAr?$AA?9?$AAA?$AAE?$AA?$AA@ 0000000180037870     libucrt:lcidtoname_downlevel.obj
 0002:00004880       ??_C@_1M@KBJALCPI@?$AAe?$AAs?$AA?9?$AAU?$AAY?$AA?$AA@ 0000000180037880     libucrt:lcidtoname_downlevel.obj
 0002:00004890       ??_C@_1M@LLCCOAGA@?$AAa?$AAr?$AA?9?$AAB?$AAH?$AA?$AA@ 0000000180037890     libucrt:lcidtoname_downlevel.obj
 0002:000048a0       ??_C@_1M@PBFNCDEL@?$AAe?$AAs?$AA?9?$AAP?$AAY?$AA?$AA@ 00000001800378a0     libucrt:lcidtoname_downlevel.obj
 0002:000048b0       ??_C@_1M@EDGINPNP@?$AAa?$AAr?$AA?9?$AAQ?$AAA?$AA?$AA@ 00000001800378b0     libucrt:lcidtoname_downlevel.obj
 0002:000048c0       ??_C@_1M@MKDBIIJI@?$AAe?$AAs?$AA?9?$AAB?$AAO?$AA?$AA@ 00000001800378c0     libucrt:lcidtoname_downlevel.obj
 0002:000048d0       ??_C@_1M@CPKKEBLD@?$AAe?$AAs?$AA?9?$AAS?$AAV?$AA?$AA@ 00000001800378d0     libucrt:lcidtoname_downlevel.obj
 0002:000048e0       ??_C@_1M@NDBGMMJL@?$AAe?$AAs?$AA?9?$AAH?$AAN?$AA?$AA@ 00000001800378e0     libucrt:lcidtoname_downlevel.obj
 0002:000048f0       ??_C@_1M@JIJIBHDP@?$AAe?$AAs?$AA?9?$AAN?$AAI?$AA?$AA@ 00000001800378f0     libucrt:lcidtoname_downlevel.obj
 0002:00004900       ??_C@_1M@CGFMKEEK@?$AAe?$AAs?$AA?9?$AAP?$AAR?$AA?$AA@ 0000000180037900     libucrt:lcidtoname_downlevel.obj
 0002:00004910       ??_C@_1O@ICJHKIIK@?$AAz?$AAh?$AA?9?$AAC?$AAH?$AAT?$AA?$AA@ 0000000180037910     libucrt:lcidtoname_downlevel.obj
 0002:00004920       ??_C@_15CLNEJCE@?$AAs?$AAr?$AA?$AA@ 0000000180037920     libucrt:lcidtoname_downlevel.obj
 0002:00005770       ??_C@_1M@KAHEKEIG@?$AAa?$AAf?$AA?9?$AAz?$AAa?$AA?$AA@ 0000000180038770     libucrt:lcidtoname_downlevel.obj
 0002:00005780       ??_C@_1M@GIECOABL@?$AAa?$AAr?$AA?9?$AAa?$AAe?$AA?$AA@ 0000000180038780     libucrt:lcidtoname_downlevel.obj
 0002:00005790       ??_C@_1M@BMLMEKGI@?$AAa?$AAr?$AA?9?$AAb?$AAh?$AA?$AA@ 0000000180038790     libucrt:lcidtoname_downlevel.obj
 0002:000057a0       ??_C@_1M@DAPFDGGB@?$AAa?$AAr?$AA?9?$AAd?$AAz?$AA?$AA@ 00000001800387a0     libucrt:lcidtoname_downlevel.obj
 0002:000057b0       ??_C@_1M@FJNKGKIG@?$AAa?$AAr?$AA?9?$AAe?$AAg?$AA?$AA@ 00000001800387b0     libucrt:lcidtoname_downlevel.obj
 0002:000057c0       ??_C@_1M@FLGKKCLO@?$AAa?$AAr?$AA?9?$AAi?$AAq?$AA?$AA@ 00000001800387c0     libucrt:lcidtoname_downlevel.obj
 0002:000057d0       ??_C@_1M@GNDIPALM@?$AAa?$AAr?$AA?9?$AAj?$AAo?$AA?$AA@ 00000001800387d0     libucrt:lcidtoname_downlevel.obj
 0002:000057e0       ??_C@_1M@DDMJFMGJ@?$AAa?$AAr?$AA?9?$AAk?$AAw?$AA?$AA@ 00000001800387e0     libucrt:lcidtoname_downlevel.obj
 0002:000057f0       ??_C@_1M@EJALMLHM@?$AAa?$AAr?$AA?9?$AAl?$AAb?$AA?$AA@ 00000001800387f0     libucrt:lcidtoname_downlevel.obj
 0002:00005800       ??_C@_1M@MOBDBLOC@?$AAa?$AAr?$AA?9?$AAl?$AAy?$AA?$AA@ 0000000180038800     libucrt:lcidtoname_downlevel.obj
 0002:00005810       ??_C@_1M@JAOCLHDH@?$AAa?$AAr?$AA?9?$AAm?$AAa?$AA?$AA@ 0000000180038810     libucrt:lcidtoname_downlevel.obj
 0002:00005820       ??_C@_1M@JHPMKJIE@?$AAa?$AAr?$AA?9?$AAo?$AAm?$AA?$AA@ 0000000180038820     libucrt:lcidtoname_downlevel.obj
 0002:00005830       ??_C@_1M@OEPGHFNH@?$AAa?$AAr?$AA?9?$AAq?$AAa?$AA?$AA@ 0000000180038830     libucrt:lcidtoname_downlevel.obj
 0002:00005840       ??_C@_1M@KJDONENM@?$AAa?$AAr?$AA?9?$AAs?$AAa?$AA?$AA@ 0000000180038840     libucrt:lcidtoname_downlevel.obj
 0002:00005850       ??_C@_1M@DMJDKLKM@?$AAa?$AAr?$AA?9?$AAs?$AAy?$AA?$AA@ 0000000180038850     libucrt:lcidtoname_downlevel.obj
 0002:00005860       ??_C@_1M@OMFIPEDC@?$AAa?$AAr?$AA?9?$AAt?$AAn?$AA?$AA@ 0000000180038860     libucrt:lcidtoname_downlevel.obj
 0002:00005870       ??_C@_1M@IHMHGAON@?$AAa?$AAr?$AA?9?$AAy?$AAe?$AA?$AA@ 0000000180038870     libucrt:lcidtoname_downlevel.obj
 0002:00005880       ??_C@_1BG@KDCPGJGB@?$AAa?$AAz?$AA?9?$AAa?$AAz?$AA?9?$AAc?$AAy?$AAr?$AAl?$AA?$AA@ 0000000180038880     libucrt:lcidtoname_downlevel.obj
 0002:00005898       ??_C@_1BG@IBCKDDOE@?$AAa?$AAz?$AA?9?$AAa?$AAz?$AA?9?$AAl?$AAa?$AAt?$AAn?$AA?$AA@ 0000000180038898     libucrt:lcidtoname_downlevel.obj
 0002:000058b0       ??_C@_1M@EGPFDCPD@?$AAb?$AAe?$AA?9?$AAb?$AAy?$AA?$AA@ 00000001800388b0     libucrt:lcidtoname_downlevel.obj
 0002:000058c0       ??_C@_1M@PCMGMCGC@?$AAb?$AAg?$AA?9?$AAb?$AAg?$AA?$AA@ 00000001800388c0     libucrt:lcidtoname_downlevel.obj
 0002:000058d0       ??_C@_1M@BJBMFGOB@?$AAb?$AAn?$AA?9?$AAi?$AAn?$AA?$AA@ 00000001800388d0     libucrt:lcidtoname_downlevel.obj
 0002:000058e0       ??_C@_1BG@EAKMMACD@?$AAb?$AAs?$AA?9?$AAb?$AAa?$AA?9?$AAl?$AAa?$AAt?$AAn?$AA?$AA@ 00000001800388e0     libucrt:lcidtoname_downlevel.obj
 0002:000058f8       ??_C@_1M@KGADAODK@?$AAc?$AAa?$AA?9?$AAe?$AAs?$AA?$AA@ 00000001800388f8     libucrt:lcidtoname_downlevel.obj
 0002:00005908       ??_C@_1M@COAJPDHI@?$AAc?$AAs?$AA?9?$AAc?$AAz?$AA?$AA@ 0000000180038908     libucrt:lcidtoname_downlevel.obj
 0002:00005918       ??_C@_1M@DHBHFONH@?$AAc?$AAy?$AA?9?$AAg?$AAb?$AA?$AA@ 0000000180038918     libucrt:lcidtoname_downlevel.obj
 0002:00005928       ??_C@_1M@IMGKELGA@?$AAd?$AAa?$AA?9?$AAd?$AAk?$AA?$AA@ 0000000180038928     libucrt:lcidtoname_downlevel.obj
 0002:00005938       ??_C@_1M@NNDGDNGA@?$AAd?$AAe?$AA?9?$AAa?$AAt?$AA?$AA@ 0000000180038938     libucrt:lcidtoname_downlevel.obj
 0002:00005948       ??_C@_1M@IKDBHEEM@?$AAd?$AAe?$AA?9?$AAc?$AAh?$AA?$AA@ 0000000180038948     libucrt:lcidtoname_downlevel.obj
 0002:00005958       ??_C@_1M@GFFOJMCJ@?$AAd?$AAe?$AA?9?$AAd?$AAe?$AA?$AA@ 0000000180038958     libucrt:lcidtoname_downlevel.obj
 0002:00005968       ??_C@_1M@MDNLKBPM@?$AAd?$AAe?$AA?9?$AAl?$AAi?$AA?$AA@ 0000000180038968     libucrt:lcidtoname_downlevel.obj
 0002:00005978       ??_C@_1M@NJBEEJNL@?$AAd?$AAe?$AA?9?$AAl?$AAu?$AA?$AA@ 0000000180038978     libucrt:lcidtoname_downlevel.obj
 0002:00005988       ??_C@_1O@GNNELBAP@?$AAd?$AAi?$AAv?$AA?9?$AAm?$AAv?$AA?$AA@ 0000000180038988     libucrt:lcidtoname_downlevel.obj
 0002:00005998       ??_C@_1M@EJLEOGAE@?$AAe?$AAl?$AA?9?$AAg?$AAr?$AA?$AA@ 0000000180038998     libucrt:lcidtoname_downlevel.obj
 0002:000059a8       ??_C@_1M@GMPONJN@?$AAe?$AAn?$AA?9?$AAa?$AAu?$AA?$AA@ 00000001800389a8     libucrt:lcidtoname_downlevel.obj
 0002:000059b8       ??_C@_1M@NIDIIPGF@?$AAe?$AAn?$AA?9?$AAb?$AAz?$AA?$AA@ 00000001800389b8     libucrt:lcidtoname_downlevel.obj
 0002:000059c8       ??_C@_1M@JEHMIMFO@?$AAe?$AAn?$AA?9?$AAc?$AAa?$AA?$AA@ 00000001800389c8     libucrt:lcidtoname_downlevel.obj
 0002:000059d8       ??_C@_1M@IGMJCDLA@?$AAe?$AAn?$AA?9?$AAc?$AAb?$AA?$AA@ 00000001800389d8     libucrt:lcidtoname_downlevel.obj
 0002:000059e8       ??_C@_1M@BNFIGBKG@?$AAe?$AAn?$AA?9?$AAg?$AAb?$AA?$AA@ 00000001800389e8     libucrt:lcidtoname_downlevel.obj
 0002:000059f8       ??_C@_1M@LKIFDIGP@?$AAe?$AAn?$AA?9?$AAi?$AAe?$AA?$AA@ 00000001800389f8     libucrt:lcidtoname_downlevel.obj
 0002:00005a08       ??_C@_1M@PJKFGCCO@?$AAe?$AAn?$AA?9?$AAj?$AAm?$AA?$AA@ 0000000180038a08     libucrt:lcidtoname_downlevel.obj
 0002:00005a18       ??_C@_1M@KPPKEPBO@?$AAe?$AAn?$AA?9?$AAn?$AAz?$AA?$AA@ 0000000180038a18     libucrt:lcidtoname_downlevel.obj
 0002:00005a28       ??_C@_1M@GMDGLDOB@?$AAe?$AAn?$AA?9?$AAp?$AAh?$AA?$AA@ 0000000180038a28     libucrt:lcidtoname_downlevel.obj
 0002:00005a38       ??_C@_1M@ONGIBJNA@?$AAe?$AAn?$AA?9?$AAt?$AAt?$AA?$AA@ 0000000180038a38     libucrt:lcidtoname_downlevel.obj
 0002:00005a48       ??_C@_1M@LLODPCMM@?$AAe?$AAn?$AA?9?$AAu?$AAs?$AA?$AA@ 0000000180038a48     libucrt:lcidtoname_downlevel.obj
 0002:00005a58       ??_C@_1M@LAKFNPAN@?$AAe?$AAn?$AA?9?$AAz?$AAa?$AA?$AA@ 0000000180038a58     libucrt:lcidtoname_downlevel.obj
 0002:00005a68       ??_C@_1M@MFNHNHEO@?$AAe?$AAn?$AA?9?$AAz?$AAw?$AA?$AA@ 0000000180038a68     libucrt:lcidtoname_downlevel.obj
 0002:00005a78       ??_C@_1M@EJEINPHM@?$AAe?$AAs?$AA?9?$AAa?$AAr?$AA?$AA@ 0000000180038a78     libucrt:lcidtoname_downlevel.obj
 0002:00005a88       ??_C@_1M@GNKPCCJA@?$AAe?$AAs?$AA?9?$AAb?$AAo?$AA?$AA@ 0000000180038a88     libucrt:lcidtoname_downlevel.obj
 0002:00005a98       ??_C@_1M@LEEGFONL@?$AAe?$AAs?$AA?9?$AAc?$AAl?$AA?$AA@ 0000000180038a98     libucrt:lcidtoname_downlevel.obj
 0002:00005aa8       ??_C@_1M@KGPDPBDF@?$AAe?$AAs?$AA?9?$AAc?$AAo?$AA?$AA@ 0000000180038aa8     libucrt:lcidtoname_downlevel.obj
 0002:00005ab8       ??_C@_1M@EIAHOHH@?$AAe?$AAs?$AA?9?$AAc?$AAr?$AA?$AA@ 0000000180038ab8     libucrt:lcidtoname_downlevel.obj
 0002:00005ac8       ??_C@_1M@LLPGMBIN@?$AAe?$AAs?$AA?9?$AAd?$AAo?$AA?$AA@ 0000000180038ac8     libucrt:lcidtoname_downlevel.obj
 0002:00005ad8       ??_C@_1M@DKHMKNJA@?$AAe?$AAs?$AA?9?$AAe?$AAc?$AA?$AA@ 0000000180038ad8     libucrt:lcidtoname_downlevel.obj
 0002:00005ae8       ??_C@_1M@GKGFPKAP@?$AAe?$AAs?$AA?9?$AAe?$AAs?$AA?$AA@ 0000000180038ae8     libucrt:lcidtoname_downlevel.obj
 0002:00005af8       ??_C@_1M@LKHKGDLN@?$AAe?$AAs?$AA?9?$AAg?$AAt?$AA?$AA@ 0000000180038af8     libucrt:lcidtoname_downlevel.obj
 0002:00005b08       ??_C@_1M@HEIIGGJD@?$AAe?$AAs?$AA?9?$AAh?$AAn?$AA?$AA@ 0000000180038b08     libucrt:lcidtoname_downlevel.obj
 0002:00005b18       ??_C@_1M@FBDHPPGD@?$AAe?$AAs?$AA?9?$AAm?$AAx?$AA?$AA@ 0000000180038b18     libucrt:lcidtoname_downlevel.obj
 0002:00005b28       ??_C@_1M@DPAGLNDH@?$AAe?$AAs?$AA?9?$AAn?$AAi?$AA?$AA@ 0000000180038b28     libucrt:lcidtoname_downlevel.obj
 0002:00005b38       ??_C@_1M@MDGOPGDD@?$AAe?$AAs?$AA?9?$AAp?$AAa?$AA?$AA@ 0000000180038b38     libucrt:lcidtoname_downlevel.obj
 0002:00005b48       ??_C@_1M@EMAMGBGE@?$AAe?$AAs?$AA?9?$AAp?$AAe?$AA?$AA@ 0000000180038b48     libucrt:lcidtoname_downlevel.obj
 0002:00005b58       ??_C@_1M@IBMCAOEC@?$AAe?$AAs?$AA?9?$AAp?$AAr?$AA?$AA@ 0000000180038b58     libucrt:lcidtoname_downlevel.obj
 0002:00005b68       ??_C@_1M@FGMDIJED@?$AAe?$AAs?$AA?9?$AAp?$AAy?$AA?$AA@ 0000000180038b68     libucrt:lcidtoname_downlevel.obj
 0002:00005b78       ??_C@_1M@IIDEOLLL@?$AAe?$AAs?$AA?9?$AAs?$AAv?$AA?$AA@ 0000000180038b78     libucrt:lcidtoname_downlevel.obj
 0002:00005b88       ??_C@_1M@GAOBIPA@?$AAe?$AAs?$AA?9?$AAu?$AAy?$AA?$AA@ 0000000180038b88     libucrt:lcidtoname_downlevel.obj
 0002:00005b98       ??_C@_1M@JKFFICHJ@?$AAe?$AAs?$AA?9?$AAv?$AAe?$AA?$AA@ 0000000180038b98     libucrt:lcidtoname_downlevel.obj
 0002:00005ba8       ??_C@_1M@PNMLOJDF@?$AAe?$AAt?$AA?9?$AAe?$AAe?$AA?$AA@ 0000000180038ba8     libucrt:lcidtoname_downlevel.obj
 0002:00005bb8       ??_C@_1M@GHHLIKEI@?$AAe?$AAu?$AA?9?$AAe?$AAs?$AA?$AA@ 0000000180038bb8     libucrt:lcidtoname_downlevel.obj
 0002:00005bc8       ??_C@_1M@PBNONODE@?$AAf?$AAa?$AA?9?$AAi?$AAr?$AA?$AA@ 0000000180038bc8     libucrt:lcidtoname_downlevel.obj
 0002:00005bd8       ??_C@_1M@JEEHPMIL@?$AAf?$AAi?$AA?9?$AAf?$AAi?$AA?$AA@ 0000000180038bd8     libucrt:lcidtoname_downlevel.obj
 0002:00005be8       ??_C@_1M@LMDCNDBA@?$AAf?$AAo?$AA?9?$AAf?$AAo?$AA?$AA@ 0000000180038be8     libucrt:lcidtoname_downlevel.obj
 0002:00005bf8       ??_C@_1M@JKEOHLDK@?$AAf?$AAr?$AA?9?$AAb?$AAe?$AA?$AA@ 0000000180038bf8     libucrt:lcidtoname_downlevel.obj
 0002:00005c08       ??_C@_1M@NOHADPMI@?$AAf?$AAr?$AA?9?$AAc?$AAa?$AA?$AA@ 0000000180038c08     libucrt:lcidtoname_downlevel.obj
 0002:00005c18       ??_C@_1M@KDHIHAEC@?$AAf?$AAr?$AA?9?$AAc?$AAh?$AA?$AA@ 0000000180038c18     libucrt:lcidtoname_downlevel.obj
 0002:00005c28       ??_C@_1M@MMBBFGAK@?$AAf?$AAr?$AA?9?$AAf?$AAr?$AA?$AA@ 0000000180038c28     libucrt:lcidtoname_downlevel.obj
 0002:00005c38       ??_C@_1M@PAFNENNF@?$AAf?$AAr?$AA?9?$AAl?$AAu?$AA?$AA@ 0000000180038c38     libucrt:lcidtoname_downlevel.obj
 0002:00005c48       ??_C@_1M@EOHDJGDD@?$AAf?$AAr?$AA?9?$AAm?$AAc?$AA?$AA@ 0000000180038c48     libucrt:lcidtoname_downlevel.obj
 0002:00005c58       ??_C@_1M@FAPLLOPF@?$AAg?$AAl?$AA?9?$AAe?$AAs?$AA?$AA@ 0000000180038c58     libucrt:lcidtoname_downlevel.obj
 0002:00005c68       ??_C@_1M@FOPBFLOO@?$AAg?$AAu?$AA?9?$AAi?$AAn?$AA?$AA@ 0000000180038c68     libucrt:lcidtoname_downlevel.obj
 0002:00005c78       ??_C@_1M@KBMCINPM@?$AAh?$AAe?$AA?9?$AAi?$AAl?$AA?$AA@ 0000000180038c78     libucrt:lcidtoname_downlevel.obj
 0002:00005c88       ??_C@_1M@BBPHKFPJ@?$AAh?$AAi?$AA?9?$AAi?$AAn?$AA?$AA@ 0000000180038c88     libucrt:lcidtoname_downlevel.obj
 0002:00005c98       ??_C@_1M@PMBNDPHD@?$AAh?$AAr?$AA?9?$AAb?$AAa?$AA?$AA@ 0000000180038c98     libucrt:lcidtoname_downlevel.obj
 0002:00005ca8       ??_C@_1M@BPCKOEGE@?$AAh?$AAr?$AA?9?$AAh?$AAr?$AA?$AA@ 0000000180038ca8     libucrt:lcidtoname_downlevel.obj
 0002:00005cb8       ??_C@_1M@GACBMHKE@?$AAh?$AAu?$AA?9?$AAh?$AAu?$AA?$AA@ 0000000180038cb8     libucrt:lcidtoname_downlevel.obj
 0002:00005cc8       ??_C@_1M@MILPAJJC@?$AAh?$AAy?$AA?9?$AAa?$AAm?$AA?$AA@ 0000000180038cc8     libucrt:lcidtoname_downlevel.obj
 0002:00005cd8       ??_C@_1M@BABBICEC@?$AAi?$AAd?$AA?9?$AAi?$AAd?$AA?$AA@ 0000000180038cd8     libucrt:lcidtoname_downlevel.obj
 0002:00005ce8       ??_C@_1M@BIKNHHPF@?$AAi?$AAs?$AA?9?$AAi?$AAs?$AA?$AA@ 0000000180038ce8     libucrt:lcidtoname_downlevel.obj
 0002:00005cf8       ??_C@_1M@NMPCJPHE@?$AAi?$AAt?$AA?9?$AAc?$AAh?$AA?$AA@ 0000000180038cf8     libucrt:lcidtoname_downlevel.obj
 0002:00005d08       ??_C@_1M@GHKGFEDF@?$AAi?$AAt?$AA?9?$AAi?$AAt?$AA?$AA@ 0000000180038d08     libucrt:lcidtoname_downlevel.obj
 0002:00005d18       ??_C@_1M@NIEJCJJA@?$AAj?$AAa?$AA?9?$AAj?$AAp?$AA?$AA@ 0000000180038d18     libucrt:lcidtoname_downlevel.obj
 0002:00005d28       ??_C@_1M@JILFNBIM@?$AAk?$AAa?$AA?9?$AAg?$AAe?$AA?$AA@ 0000000180038d28     libucrt:lcidtoname_downlevel.obj
 0002:00005d38       ??_C@_1M@PACPMGPH@?$AAk?$AAk?$AA?9?$AAk?$AAz?$AA?$AA@ 0000000180038d38     libucrt:lcidtoname_downlevel.obj
 0002:00005d48       ??_C@_1M@IELFGMHA@?$AAk?$AAn?$AA?9?$AAi?$AAn?$AA?$AA@ 0000000180038d48     libucrt:lcidtoname_downlevel.obj
 0002:00005d58       ??_C@_1O@IBBJHCH@?$AAk?$AAo?$AAk?$AA?9?$AAi?$AAn?$AA?$AA@ 0000000180038d58     libucrt:lcidtoname_downlevel.obj
 0002:00005d68       ??_C@_1M@DMHAEOGC@?$AAk?$AAo?$AA?9?$AAk?$AAr?$AA?$AA@ 0000000180038d68     libucrt:lcidtoname_downlevel.obj
 0002:00005d78       ??_C@_1M@HBAHBIGA@?$AAk?$AAy?$AA?9?$AAk?$AAg?$AA?$AA@ 0000000180038d78     libucrt:lcidtoname_downlevel.obj
 0002:00005d88       ??_C@_1M@KPMILCJG@?$AAl?$AAt?$AA?9?$AAl?$AAt?$AA?$AA@ 0000000180038d88     libucrt:lcidtoname_downlevel.obj
 0002:00005d98       ??_C@_1M@BDEKKCA@?$AAl?$AAv?$AA?9?$AAl?$AAv?$AA?$AA@ 0000000180038d98     libucrt:lcidtoname_downlevel.obj
 0002:00005da8       ??_C@_1M@ELCKCCJJ@?$AAm?$AAi?$AA?9?$AAn?$AAz?$AA?$AA@ 0000000180038da8     libucrt:lcidtoname_downlevel.obj
 0002:00005db8       ??_C@_1M@CBOOLAPA@?$AAm?$AAk?$AA?9?$AAm?$AAk?$AA?$AA@ 0000000180038db8     libucrt:lcidtoname_downlevel.obj
 0002:00005dc8       ??_C@_1M@GPHNBJKN@?$AAm?$AAl?$AA?9?$AAi?$AAn?$AA?$AA@ 0000000180038dc8     libucrt:lcidtoname_downlevel.obj
 0002:00005dd8       ??_C@_1M@PABJILIG@?$AAm?$AAn?$AA?9?$AAm?$AAn?$AA?$AA@ 0000000180038dd8     libucrt:lcidtoname_downlevel.obj
 0002:00005de8       ??_C@_1M@FGBKKIPG@?$AAm?$AAr?$AA?9?$AAi?$AAn?$AA?$AA@ 0000000180038de8     libucrt:lcidtoname_downlevel.obj
 0002:00005df8       ??_C@_1M@NDBPDDAL@?$AAm?$AAs?$AA?9?$AAb?$AAn?$AA?$AA@ 0000000180038df8     libucrt:lcidtoname_downlevel.obj
 0002:00005e08       ??_C@_1M@OPIHOOPI@?$AAm?$AAs?$AA?9?$AAm?$AAy?$AA?$AA@ 0000000180038e08     libucrt:lcidtoname_downlevel.obj
 0002:00005e18       ??_C@_1M@PPDBCNFM@?$AAm?$AAt?$AA?9?$AAm?$AAt?$AA?$AA@ 0000000180038e18     libucrt:lcidtoname_downlevel.obj
 0002:00005e28       ??_C@_1M@KDJDKMDD@?$AAn?$AAb?$AA?9?$AAn?$AAo?$AA?$AA@ 0000000180038e28     libucrt:lcidtoname_downlevel.obj
 0002:00005e38       ??_C@_1M@KFCFLMJP@?$AAn?$AAl?$AA?9?$AAb?$AAe?$AA?$AA@ 0000000180038e38     libucrt:lcidtoname_downlevel.obj
 0002:00005e48       ??_C@_1M@KPOPDDGO@?$AAn?$AAl?$AA?9?$AAn?$AAl?$AA?$AA@ 0000000180038e48     libucrt:lcidtoname_downlevel.obj
 0002:00005e58       ??_C@_1M@LJKPEMLN@?$AAn?$AAn?$AA?9?$AAn?$AAo?$AA?$AA@ 0000000180038e58     libucrt:lcidtoname_downlevel.obj
 0002:00005e68       ??_C@_1M@BDGHHBFL@?$AAn?$AAs?$AA?9?$AAz?$AAa?$AA?$AA@ 0000000180038e68     libucrt:lcidtoname_downlevel.obj
 0002:00005e78       ??_C@_1M@IDEHOAP@?$AAp?$AAa?$AA?9?$AAi?$AAn?$AA?$AA@ 0000000180038e78     libucrt:lcidtoname_downlevel.obj
 0002:00005e88       ??_C@_1M@HDBKGOGH@?$AAp?$AAl?$AA?9?$AAp?$AAl?$AA?$AA@ 0000000180038e88     libucrt:lcidtoname_downlevel.obj
 0002:00005e98       ??_C@_1M@LJLLCMEH@?$AAp?$AAt?$AA?9?$AAb?$AAr?$AA?$AA@ 0000000180038e98     libucrt:lcidtoname_downlevel.obj
 0002:00005ea8       ??_C@_1M@NCMONAAL@?$AAp?$AAt?$AA?9?$AAp?$AAt?$AA?$AA@ 0000000180038ea8     libucrt:lcidtoname_downlevel.obj
 0002:00005eb8       ??_C@_1O@EAKMAJDN@?$AAq?$AAu?$AAz?$AA?9?$AAb?$AAo?$AA?$AA@ 0000000180038eb8     libucrt:lcidtoname_downlevel.obj
 0002:00005ec8       ??_C@_1O@BHHPIGDN@?$AAq?$AAu?$AAz?$AA?9?$AAe?$AAc?$AA?$AA@ 0000000180038ec8     libucrt:lcidtoname_downlevel.obj
 0002:00005ed8       ??_C@_1O@GBAPEKMJ@?$AAq?$AAu?$AAz?$AA?9?$AAp?$AAe?$AA?$AA@ 0000000180038ed8     libucrt:lcidtoname_downlevel.obj
 0002:00005ee8       ??_C@_1M@CLGLEFBO@?$AAr?$AAo?$AA?9?$AAr?$AAo?$AA?$AA@ 0000000180038ee8     libucrt:lcidtoname_downlevel.obj
 0002:00005ef8       ??_C@_1M@CEEDODME@?$AAr?$AAu?$AA?9?$AAr?$AAu?$AA?$AA@ 0000000180038ef8     libucrt:lcidtoname_downlevel.obj
 0002:00005f08       ??_C@_1M@HPKKKMPP@?$AAs?$AAa?$AA?9?$AAi?$AAn?$AA?$AA@ 0000000180038f08     libucrt:lcidtoname_downlevel.obj
 0002:00005f18       ??_C@_1M@BKMAIGOJ@?$AAs?$AAe?$AA?9?$AAf?$AAi?$AA?$AA@ 0000000180038f18     libucrt:lcidtoname_downlevel.obj
 0002:00005f28       ??_C@_1M@NDPIFLFI@?$AAs?$AAe?$AA?9?$AAn?$AAo?$AA?$AA@ 0000000180038f28     libucrt:lcidtoname_downlevel.obj
 0002:00005f38       ??_C@_1M@DANKKHJ@?$AAs?$AAe?$AA?9?$AAs?$AAe?$AA?$AA@ 0000000180038f38     libucrt:lcidtoname_downlevel.obj
 0002:00005f48       ??_C@_1M@PNBLONPJ@?$AAs?$AAk?$AA?9?$AAs?$AAk?$AA?$AA@ 0000000180038f48     libucrt:lcidtoname_downlevel.obj
 0002:00005f58       ??_C@_1M@LFMODOAL@?$AAs?$AAl?$AA?9?$AAs?$AAi?$AA?$AA@ 0000000180038f58     libucrt:lcidtoname_downlevel.obj
 0002:00005f68       ??_C@_1O@DFKOMPG@?$AAs?$AAm?$AAa?$AA?9?$AAn?$AAo?$AA?$AA@ 0000000180038f68     libucrt:lcidtoname_downlevel.obj
 0002:00005f78       ??_C@_1O@NDKPBNNH@?$AAs?$AAm?$AAa?$AA?9?$AAs?$AAe?$AA?$AA@ 0000000180038f78     libucrt:lcidtoname_downlevel.obj
 0002:00005f88       ??_C@_1O@PLLKBHAB@?$AAs?$AAm?$AAj?$AA?9?$AAn?$AAo?$AA?$AA@ 0000000180038f88     libucrt:lcidtoname_downlevel.obj
 0002:00005f98       ??_C@_1O@CLEPOGCA@?$AAs?$AAm?$AAj?$AA?9?$AAs?$AAe?$AA?$AA@ 0000000180038f98     libucrt:lcidtoname_downlevel.obj
 0002:00005fa8       ??_C@_1O@DLGJGKMK@?$AAs?$AAm?$AAn?$AA?9?$AAf?$AAi?$AA?$AA@ 0000000180038fa8     libucrt:lcidtoname_downlevel.obj
 0002:00005fb8       ??_C@_1O@OJDJGAJC@?$AAs?$AAm?$AAs?$AA?9?$AAf?$AAi?$AA?$AA@ 0000000180038fb8     libucrt:lcidtoname_downlevel.obj
 0002:00005fc8       ??_C@_1M@BOFOGHPB@?$AAs?$AAq?$AA?9?$AAa?$AAl?$AA?$AA@ 0000000180038fc8     libucrt:lcidtoname_downlevel.obj
 0002:00005fd8       ??_C@_1BG@LJBBIPGB@?$AAs?$AAr?$AA?9?$AAb?$AAa?$AA?9?$AAc?$AAy?$AAr?$AAl?$AA?$AA@ 0000000180038fd8     libucrt:lcidtoname_downlevel.obj
 0002:00005ff0       ??_C@_1BG@JLBENFOE@?$AAs?$AAr?$AA?9?$AAb?$AAa?$AA?9?$AAl?$AAa?$AAt?$AAn?$AA?$AA@ 0000000180038ff0     libucrt:lcidtoname_downlevel.obj
 0002:00006008       ??_C@_1BG@KODPNHE@?$AAs?$AAr?$AA?9?$AAs?$AAp?$AA?9?$AAc?$AAy?$AAr?$AAl?$AA?$AA@ 0000000180039008     libucrt:lcidtoname_downlevel.obj
 0002:00006020       ??_C@_1BG@CIOGKHPB@?$AAs?$AAr?$AA?9?$AAs?$AAp?$AA?9?$AAl?$AAa?$AAt?$AAn?$AA?$AA@ 0000000180039020     libucrt:lcidtoname_downlevel.obj
 0002:00006038       ??_C@_1M@NGFJLMAC@?$AAs?$AAv?$AA?9?$AAf?$AAi?$AA?$AA@ 0000000180039038     libucrt:lcidtoname_downlevel.obj
 0002:00006048       ??_C@_1M@MPJEJAJC@?$AAs?$AAv?$AA?9?$AAs?$AAe?$AA?$AA@ 0000000180039048     libucrt:lcidtoname_downlevel.obj
 0002:00006058       ??_C@_1M@MPNDHLFK@?$AAs?$AAw?$AA?9?$AAk?$AAe?$AA?$AA@ 0000000180039058     libucrt:lcidtoname_downlevel.obj
 0002:00006068       ??_C@_1O@KOHBJJI@?$AAs?$AAy?$AAr?$AA?9?$AAs?$AAy?$AA?$AA@ 0000000180039068     libucrt:lcidtoname_downlevel.obj
 0002:00006078       ??_C@_1M@LDCEFHA@?$AAt?$AAa?$AA?9?$AAi?$AAn?$AA?$AA@ 0000000180039078     libucrt:lcidtoname_downlevel.obj
 0002:00006088       ??_C@_1M@CNJOFAK@?$AAt?$AAe?$AA?9?$AAi?$AAn?$AA?$AA@ 0000000180039088     libucrt:lcidtoname_downlevel.obj
 0002:00006098       ??_C@_1M@GNAECACD@?$AAt?$AAh?$AA?9?$AAt?$AAh?$AA?$AA@ 0000000180039098     libucrt:lcidtoname_downlevel.obj
 0002:000060a8       ??_C@_1M@CHBIHOJO@?$AAt?$AAn?$AA?9?$AAz?$AAa?$AA?$AA@ 00000001800390a8     libucrt:lcidtoname_downlevel.obj
 0002:000060b8       ??_C@_1M@GCCMIGPJ@?$AAt?$AAr?$AA?9?$AAt?$AAr?$AA?$AA@ 00000001800390b8     libucrt:lcidtoname_downlevel.obj
 0002:000060c8       ??_C@_1M@CELMCNBK@?$AAt?$AAt?$AA?9?$AAr?$AAu?$AA?$AA@ 00000001800390c8     libucrt:lcidtoname_downlevel.obj
 0002:000060d8       ??_C@_1M@KLMCELGA@?$AAu?$AAk?$AA?9?$AAu?$AAa?$AA?$AA@ 00000001800390d8     libucrt:lcidtoname_downlevel.obj
 0002:000060e8       ??_C@_1M@EPAJJAJF@?$AAu?$AAr?$AA?9?$AAp?$AAk?$AA?$AA@ 00000001800390e8     libucrt:lcidtoname_downlevel.obj
 0002:000060f8       ??_C@_1BG@GEGPMCDJ@?$AAu?$AAz?$AA?9?$AAu?$AAz?$AA?9?$AAc?$AAy?$AAr?$AAl?$AA?$AA@ 00000001800390f8     libucrt:lcidtoname_downlevel.obj
 0002:00006110       ??_C@_1BG@EGGKJILM@?$AAu?$AAz?$AA?9?$AAu?$AAz?$AA?9?$AAl?$AAa?$AAt?$AAn?$AA?$AA@ 0000000180039110     libucrt:lcidtoname_downlevel.obj
 0002:00006128       ??_C@_1M@GFOCLFF@?$AAv?$AAi?$AA?9?$AAv?$AAn?$AA?$AA@ 0000000180039128     libucrt:lcidtoname_downlevel.obj
 0002:00006138       ??_C@_1M@CPAMEDFI@?$AAx?$AAh?$AA?9?$AAz?$AAa?$AA?$AA@ 0000000180039138     libucrt:lcidtoname_downlevel.obj
 0002:00006148       ??_C@_1O@EBKIFIGN@?$AAz?$AAh?$AA?9?$AAc?$AAh?$AAs?$AA?$AA@ 0000000180039148     libucrt:lcidtoname_downlevel.obj
 0002:00006158       ??_C@_1O@NMHPGANE@?$AAz?$AAh?$AA?9?$AAc?$AAh?$AAt?$AA?$AA@ 0000000180039158     libucrt:lcidtoname_downlevel.obj
 0002:00006168       ??_C@_1M@LPINJOMC@?$AAz?$AAh?$AA?9?$AAc?$AAn?$AA?$AA@ 0000000180039168     libucrt:lcidtoname_downlevel.obj
 0002:00006178       ??_C@_1M@OCJEJODD@?$AAz?$AAh?$AA?9?$AAh?$AAk?$AA?$AA@ 0000000180039178     libucrt:lcidtoname_downlevel.obj
 0002:00006188       ??_C@_1M@DNDLJINH@?$AAz?$AAh?$AA?9?$AAm?$AAo?$AA?$AA@ 0000000180039188     libucrt:lcidtoname_downlevel.obj
 0002:00006198       ??_C@_1M@MBFDNDND@?$AAz?$AAh?$AA?9?$AAs?$AAg?$AA?$AA@ 0000000180039198     libucrt:lcidtoname_downlevel.obj
 0002:000061a8       ??_C@_1M@IMEPLEPE@?$AAz?$AAh?$AA?9?$AAt?$AAw?$AA?$AA@ 00000001800391a8     libucrt:lcidtoname_downlevel.obj
 0002:000061b8       ??_C@_1M@BBGHNHJP@?$AAz?$AAu?$AA?9?$AAz?$AAa?$AA?$AA@ 00000001800391b8     libucrt:lcidtoname_downlevel.obj
 0002:000061d0       ?large_power_data@?1??multiply_by_power_of_ten@__crt_strtox@@YA_NAEAUbig_integer@2@I@Z@4QBIB 00000001800391d0     libucrt:cfout.obj
 0002:00006ae0       ?large_power_indices@?1??multiply_by_power_of_ten@__crt_strtox@@YA_NAEAUbig_integer@2@I@Z@4QBUunpack_index@?1??12@YA_N0I@Z@B 0000000180039ae0     libucrt:cfout.obj
 0002:00006b78       ?small_powers_of_ten@?6??multiply_by_power_of_ten@__crt_strtox@@YA_NAEAUbig_integer@2@I@Z@4QBIB 0000000180039b78     libucrt:cfout.obj
 0002:00006b9c       ??_C@_01GBGANLPD@0?$AA@    0000000180039b9c     libucrt:cfout.obj
 0002:00006ba0       ??_C@_05DNEBIAHO@1?$CDINF?$AA@ 0000000180039ba0     libucrt:cfout.obj
 0002:00006ba8       ??_C@_06IMKFLFPG@1?$CDQNAN?$AA@ 0000000180039ba8     libucrt:cfout.obj
 0002:00006bb0       ??_C@_06PGGFOGJG@1?$CDSNAN?$AA@ 0000000180039bb0     libucrt:cfout.obj
 0002:00006bb8       ??_C@_05PHHOCPM@1?$CDIND?$AA@ 0000000180039bb8     libucrt:cfout.obj
 0002:00006e10       ??_C@_1BA@BALFACEM@?$AAC?$AAO?$AAN?$AAO?$AAU?$AAT?$AA$?$AA?$AA@ 0000000180039e10     libucrt:initcon.obj
 0002:00006e20       __log10_256_lead           0000000180039e20     libucrt:log10_256_lead_tail_table.obj
 0002:00007630       __log10_256_tail           000000018003a630     libucrt:log10_256_lead_tail_table.obj
 0002:00007e40       __log_F_inv_qword          000000018003ae40     libucrt:log_f_inv_qword_table.obj
 0002:00008650       ??_C@_05HGHHAHAP@log10?$AA@ 000000018003b650     libucrt:log_special.obj
 0002:00008670       ??_C@_03BLEJJJBH@sin?$AA@  000000018003b670     libucrt:fpexcept.obj
 0002:00008674       ??_C@_03LALBNOCG@cos?$AA@  000000018003b674     libucrt:fpexcept.obj
 0002:00008678       ??_C@_1BK@DBDEIDLH@?$AAK?$AAE?$AAR?$AAN?$AAE?$AAL?$AA3?$AA2?$AA?4?$AAD?$AAL?$AAL?$AA?$AA@ 000000018003b678     DelayImp:delayhlp.obj
 0002:00008698       ??_C@_0BI@OMNLIJDB@AcquireSRWLockExclusive?$AA@ 000000018003b698     DelayImp:delayhlp.obj
 0002:000086b0       ??_C@_0BI@HMIEPCNJ@ReleaseSRWLockExclusive?$AA@ 000000018003b6b0     DelayImp:delayhlp.obj
 0002:000086d0       _load_config_used          000000018003b6d0     LIBCMT:loadcfg.obj
 0002:00008768       ??_C@_0BG@JLCLBMDJ@?4?4?2src?2image?2init?4cpp?$AA@ 000000018003b768     init.obj
 0002:00008780       ??_C@_0L@MLPPNEHD@lwip_image?$AA@ 000000018003b780     init.obj
 0002:000170c0       ??_C@_0BC@BDKFLDHL@unknown?5exception?$AA@ 000000018004a0c0     image.obj
 0002:000170d2       ??_C@_00CNPNBAHC@?$AA@     000000018004a0d2     image.obj
 0002:000170e0       ??_C@_1IO@EOPPFHBM@?$AAC?$AA?3?$AA?2?$AAU?$AAs?$AAe?$AAr?$AAs?$AA?2?$AAw?$AAi?$AAn?$AAa?$AAs?$AAf?$AAo?$AAr?$AAc?$AAe?$AAp?$AAt?$AAa?$AA?2?$AA?4?$AAn?$AAo?$AAd?$AAe?$AA?9?$AAg?$AAy?$AAp@ 000000018004a0e0     image.obj
 0002:00017170       ??_C@_1DG@OKCGPKIB@?$AAp?$AAe?$AAr?$AAs?$AAi?$AAs?$AAt?$AAe?$AAn?$AAt?$AA?$CI?$AA?$CJ?$AA?4?$AAI?$AAs?$AAN?$AAe?$AAa?$AAr?$AAD?$AAe?$AAa?$AAt?$AAh?$AA?$CI?$AA?$CJ?$AA?$AA@ 000000018004a170     image.obj
 0002:000171a8       ??_C@_1CO@EGNPJLKI@?$AAp?$AAe?$AAr?$AAs?$AAi?$AAs?$AAt?$AAe?$AAn?$AAt?$AA?$CI?$AA?$CJ?$AA?4?$AAI?$AAs?$AAE?$AAm?$AAp?$AAt?$AAy?$AA?$CI?$AA?$CJ?$AA?$AA@ 000000018004a1a8     image.obj
 0002:000171e0       ??_C@_1EC@NOLNIHNJ@?$AAh?$AAa?$AAn?$AAd?$AAl?$AAe?$AA?9?$AA?$DO?$AAI?$AAn?$AAt?$AAe?$AAr?$AAn?$AAa?$AAl?$AAF?$AAi?$AAe?$AAl?$AAd?$AAC?$AAo?$AAu?$AAn?$AAt?$AA?$CI?$AA?$CJ?$AA?5?$AA?$DO?$AA?5?$AA0@ 000000018004a1e0     image.obj
 0002:00017228       ??_C@_1DA@FBGAEOIO@?$AA?$CB?$AAp?$AAe?$AAr?$AAs?$AAi?$AAs?$AAt?$AAe?$AAn?$AAt?$AA?$CI?$AA?$CJ?$AA?4?$AAI?$AAs?$AAE?$AAm?$AAp?$AAt?$AAy?$AA?$CI?$AA?$CJ?$AA?$AA@ 000000018004a228     image.obj
 0002:00017258       ??_C@_1CO@JCKLEFMA@?$AA?$CB?$AAp?$AAe?$AAr?$AAs?$AAi?$AAs?$AAt?$AAe?$AAn?$AAt?$AA?$CI?$AA?$CJ?$AA?4?$AAI?$AAs?$AAW?$AAe?$AAa?$AAk?$AA?$CI?$AA?$CJ?$AA?$AA@ 000000018004a258     image.obj
 0002:00017288       ??_C@_1BE@GMLLOIPJ@?$AAr?$AAe?$AAf?$AAs?$AA_?$AA?5?$AA?$DO?$AA?5?$AA0?$AA?$AA@ 000000018004a288     image.obj
 0002:000172a0       ??_C@_1CC@GBFLAAPF@?$AAw?$AAr?$AAa?$AAp?$AA?9?$AA?$DO?$AAr?$AAe?$AAf?$AAs?$AA_?$AA?5?$AA?$DN?$AA?$DN?$AA?5?$AA0?$AA?$AA@ 000000018004a2a0     image.obj
 0002:000172c8       ??_C@_1DI@ELDBKNAK@?$AAw?$AAr?$AAa?$AAp?$AA?9?$AA?$DO?$AAh?$AAa?$AAn?$AAd?$AAl?$AAe?$AA_?$AA?4?$AAI?$AAs?$AAN?$AAe?$AAa?$AAr?$AAD?$AAe?$AAa?$AAt?$AAh?$AA?$CI?$AA?$CJ?$AA?$AA@ 000000018004a2c8     image.obj
 0002:00017300       ??_C@_1IM@GACIBGHJ@?$AAd?$AAa?$AAt?$AAa?$AA?4?$AAG?$AAe?$AAt?$AAV?$AAa?$AAl?$AAu?$AAe?$AA?$CI?$AA?$CJ?$AA?5?$AA?$DN?$AA?$DN?$AA?5?$AAv?$AA8?$AA?3?$AA?3?$AAL?$AAo?$AAc?$AAa?$AAl?$AA?$DM?$AAv?$AA8?$AA?3@ 000000018004a300     image.obj
 0002:00017390       ??_C@_1KK@OIHKHLAE@?$AAD?$AA?3?$AA?2?$AAk?$AAu?$AAl?$AAi?$AAa?$AAh?$AA?2?$AAS?$AAe?$AAm?$AAe?$AAs?$AAt?$AAe?$AAr?$AA?5?$AA6?$AA?2?$AAP?$AAC?$AAD?$AA?2?$AAF?$AAP?$AA?2?$AAi?$AAm?$AAa?$AAg@ 000000018004a390     image.obj
 0002:00017440       ??_C@_1FM@LOELJOFK@?$AAs?$AAi?$AAz?$AAe?$AA?5?$AA?$DM?$AA?$DN?$AA?5?$AAi?$AAm?$AAp?$AA?3?$AA?3?$AAk?$AAM?$AAa?$AAx?$AAL?$AAe?$AAn?$AAg?$AAt?$AAh?$AA?5?$AA?$CG?$AA?$CG?$AA?5?$AA?$CC?$AAt?$AAo?$AAo?$AA?5@ 000000018004a440     image.obj
 0002:000174a0       ??_C@_07CIFAGBMG@unknown?$AA@ 000000018004a4a0     image.obj
 0002:000174a8       ??_C@_0BL@EAGPGGJL@?6?$CFs?$FLCImg?$FN?5?$CK?$CK?$CK?5?$CFs?5?$CK?$CK?$CK?$CFs?5?$CFs?6?$AA@ 000000018004a4a8     image.obj
 0002:000174c8       ??_C@_0BG@KMDADBLO@CImgArgumentException?$AA@ 000000018004a4c8     image.obj
 0002:000174e0       ??_C@_0BG@IOCOPDAE@CImgInstanceException?$AA@ 000000018004a4e0     image.obj
 0002:000174f8       ??_C@_0BA@EFAPIJMM@CImgIOException?$AA@ 000000018004a4f8     image.obj
 0002:00017508       ??_C@_02DKCKIIND@?$CFs?$AA@ 000000018004a508     image.obj
 0002:00017510       ??_C@_0O@PPAIJIHF@unsigned?5char?$AA@ 000000018004a510     image.obj
 0002:00017520       ??_C@_04ENMBGAPA@char?$AA@ 000000018004a520     image.obj
 0002:00017528       ??_C@_0BO@KMOFCCNE@?6?$CFs?$FLCImg?$FN?5?$CK?$CK?$CK?5Warning?5?$CK?$CK?$CK?$CFs?$CFs?$AA@ 000000018004a528     image.obj
 0002:00017548       ??_C@_07LDLFNPGN@Windows?$AA@ 000000018004a548     image.obj
 0002:00017550       ??_C@_0CK@NEJGLCGN@cimg?3?3fclose?$CI?$CJ?3?5Specified?5file?5i@ 000000018004a550     image.obj
 0002:00017580       ??_C@_0DM@IBNMJMCA@cimg?3?3fclose?$CI?$CJ?3?5Error?5code?5?$CFd?5re@ 000000018004a580     image.obj
 0002:000175bc       ??_C@_02GMLFBBN@wb?$AA@    000000018004a5bc     image.obj
 0002:000175c0       ??_C@_08NMEFHJHK@22?312?325?$AA@ 000000018004a5c0     image.obj
 0002:000175d0       ??_C@_0M@JHGBCKBL@May?517?52016?$AA@ 000000018004a5d0     image.obj
 0002:000175e0       ??_C@_0EO@PPEPCMLA@?6?5?$CFs?$CFsCImg?5Library?5?$CFu?4?$CFu?4?$CFu?$CFs?0?5c@ 000000018004a5e0     image.obj
 0002:00017630       ??_C@_0DK@CAOOHPPH@?5?5?$DO?5Operating?5System?3?5?5?5?5?5?5?5?$CFs?$CF?9@ 000000018004a630     image.obj
 0002:0001766c       ??_C@_06HPILLNHM@Little?$AA@ 000000018004a66c     image.obj
 0002:00017678       ??_C@_0CL@MALEOICL@?5?5?$DO?5CPU?5endianness?3?5?5?5?5?5?5?5?5?5?$CFs?$CFs@ 000000018004a678     image.obj
 0002:000176a4       ??_C@_05PLLMOHAB@Quiet?$AA@ 000000018004a6a4     image.obj
 0002:000176b0       ??_C@_0EB@IDKGNHGM@?5?5?$DO?5Verbosity?5mode?3?5?5?5?5?5?5?5?5?5?$CFs?$CF?9@ 000000018004a6b0     image.obj
 0002:000176f8       ??_C@_09MLGAJAED@undefined?$AA@ 000000018004a6f8     image.obj
 0002:00017704       ??_C@_02JINPPBEP@No?$AA@   000000018004a704     image.obj
 0002:00017710       ??_C@_0EH@LAGENLPE@?5?5?$DO?5Stricts?5warnings?3?5?5?5?5?5?5?5?$CFs?$CF?9@ 000000018004a710     image.obj
 0002:00017760       ??_C@_0EB@JAEOMHJH@?5?5?$DO?5Using?5VT100?5messages?3?5?5?5?$CFs?$CF?9@ 000000018004a760     image.obj
 0002:000177a8       ??_C@_0L@EKKILCGA@No?5display?$AA@ 000000018004a7a8     image.obj
 0002:000177b8       ??_C@_0DP@CBALMADN@?5?5?$DO?5Display?5type?3?5?5?5?5?5?5?5?5?5?5?5?$CFs?$CF?9@ 000000018004a7b8     image.obj
 0002:00017800       ??_C@_0EC@DJMNKPJN@?5?5?$DO?5Using?5OpenMP?3?5?5?5?5?5?5?5?5?5?5?5?$CFs?$CF?9@ 000000018004a800     image.obj
 0002:00017848       ??_C@_0DP@ELDHPPAH@?5?5?$DO?5Using?5PNG?5library?3?5?5?5?5?5?5?$CFs?$CF?9@ 000000018004a848     image.obj
 0002:00017890       ??_C@_0EA@BIPAABKJ@?5?5?$DO?5Using?5JPEG?5library?3?5?5?5?5?5?$CFs?$CF?9@ 000000018004a890     image.obj
 0002:000178d0       ??_C@_0EA@GNPBIGKO@?5?5?$DO?5Using?5TIFF?5library?3?5?5?5?5?5?$CFs?$CF?9@ 000000018004a8d0     image.obj
 0002:00017910       ??_C@_0EC@LHFPOJJ@?5?5?$DO?5Using?5Magick?$CL?$CL?5library?3?5?$CFs?$CF?9@ 000000018004a910     image.obj
 0002:00017960       ??_C@_0EB@IMBGEGC@?5?5?$DO?5Using?5FFTW3?5library?3?5?5?5?5?$CFs?$CF?9@ 000000018004a960     image.obj
 0002:000179b0       ??_C@_0EC@EDAJEHKG@?5?5?$DO?5Using?5LAPACK?5library?3?5?5?5?$CFs?$CF?9@ 000000018004a9b0     image.obj
 0002:000179f8       ??_C@_09KDOGNJMJ@?$CC?$CF?41020s?$CC?$AA@ 000000018004a9f8     image.obj
 0002:00017a08       ??_C@_0CH@JOMNENBJ@?5?5?$DO?5Path?5of?5ImageMagick?3?5?5?5?5?$CFs?$CF?9@ 000000018004aa08     image.obj
 0002:00017a30       ??_C@_0CH@GJHENCAJ@?5?5?$DO?5Path?5of?5GraphicsMagick?3?5?$CFs?$CF?9@ 000000018004aa30     image.obj
 0002:00017a58       ??_C@_0CH@DIFINHOM@?5?5?$DO?5Path?5of?5?8medcon?8?3?5?5?5?5?5?5?5?$CFs?$CF?9@ 000000018004aa58     image.obj
 0002:00017a80       ??_C@_0CH@NBHEOCD@?5?5?$DO?5Temporary?5path?3?5?5?5?5?5?5?5?5?5?$CFs?$CF?9@ 000000018004aa80     image.obj
 0002:00017aa8       ??_C@_01EEMJAFIK@?6?$AA@   000000018004aaa8     image.obj
 0002:00017aac       ??_C@_06IHDMMOPO@?$CFs?4tmp?$AA@ 000000018004aaac     image.obj
 0002:00017ab4       ??_C@_03FICNPLNB@TMP?$AA@  000000018004aab4     image.obj
 0002:00017ab8       ??_C@_04JKHNIKCB@TEMP?$AA@ 000000018004aab8     image.obj
 0002:00017ac0       ??_C@_06GIIGBPHC@?$CFs?$CFc?$CFs?$AA@ 000000018004aac0     image.obj
 0002:00017ac8       ??_C@_0O@MCLGOIG@C?3?2WINNT?2Temp?$AA@ 000000018004aac8     image.obj
 0002:00017ad8       ??_C@_0BA@OBBKBLLO@C?3?2WINDOWS?2Temp?$AA@ 000000018004aad8     image.obj
 0002:00017ae8       ??_C@_07OEMLJILH@C?3?2Temp?$AA@ 000000018004aae8     image.obj
 0002:00017af0       ??_C@_02FHMLMLAN@C?3?$AA@  000000018004aaf0     image.obj
 0002:00017af8       ??_C@_0O@GJOGMEEG@D?3?2WINNT?2Temp?$AA@ 000000018004aaf8     image.obj
 0002:00017b08       ??_C@_0BA@BMODODML@D?3?2WINDOWS?2Temp?$AA@ 000000018004ab08     image.obj
 0002:00017b18       ??_C@_07OOAOJBKO@D?3?2Temp?$AA@ 000000018004ab18     image.obj
 0002:00017b20       ??_C@_02FCIENNII@D?3?$AA@  000000018004ab20     image.obj
 0002:00017b30       ??_C@_0EM@MFNNFKJO@cimg?3?3temporary_path?$CI?$CJ?3?5Failed?5t@ 000000018004ab30     image.obj
 0002:00017b80       ??_C@_0N@DGDPHBCF@PROGRAMFILES?$AA@ 000000018004ab80     image.obj
 0002:00017b90       ??_C@_0M@JGDMECFM@C?3?2PROGRA?$HO1?$AA@ 000000018004ab90     image.obj
 0002:00017ba0       ??_C@_0O@CINCGHCE@?4?2convert?4exe?$AA@ 000000018004aba0     image.obj
 0002:00017bb0       ??_C@_01KDCPPGHE@r?$AA@    000000018004abb0     image.obj
 0002:00017bb8       ??_C@_0BO@BEENKDDB@?$CFs?2IMAGEM?$HO1?4?$CF?42d?9?2convert?4exe?$AA@ 000000018004abb8     image.obj
 0002:00017bd8       ??_C@_0BN@DEFKOHAO@?$CFs?2IMAGEM?$HO1?4?$CFd?9Q?2convert?4exe?$AA@ 000000018004abd8     image.obj
 0002:00017bf8       ??_C@_0BL@MJEIJKFG@?$CFs?2IMAGEM?$HO1?4?$CFd?2convert?4exe?$AA@ 000000018004abf8     image.obj
 0002:00017c18       ??_C@_0CK@IDDGABKN@?$CFs?2IMAGEM?$HO1?4?$CF?42d?9?2VISUA?$HO1?2BIN?2co@ 000000018004ac18     image.obj
 0002:00017c48       ??_C@_0CJ@MEJJNKIH@?$CFs?2IMAGEM?$HO1?4?$CFd?9Q?2VISUA?$HO1?2BIN?2con@ 000000018004ac48     image.obj
 0002:00017c78       ??_C@_0CH@IPLKJMJJ@?$CFs?2IMAGEM?$HO1?4?$CFd?2VISUA?$HO1?2BIN?2conve@ 000000018004ac78     image.obj
 0002:00017ca0       ??_C@_0BO@NPHMEFBN@C?3?2IMAGEM?$HO1?4?$CF?42d?9?2convert?4exe?$AA@ 000000018004aca0     image.obj
 0002:00017cc0       ??_C@_0BN@GEAPEHLO@C?3?2IMAGEM?$HO1?4?$CFd?9Q?2convert?4exe?$AA@ 000000018004acc0     image.obj
 0002:00017ce0       ??_C@_0BL@BNLFNGCG@C?3?2IMAGEM?$HO1?4?$CFd?2convert?4exe?$AA@ 000000018004ace0     image.obj
 0002:00017d00       ??_C@_0CK@OMCOIKKD@C?3?2IMAGEM?$HO1?4?$CF?42d?9?2VISUA?$HO1?2BIN?2co@ 000000018004ad00     image.obj
 0002:00017d30       ??_C@_0CJ@GMGFDFFB@C?3?2IMAGEM?$HO1?4?$CFd?9Q?2VISUA?$HO1?2BIN?2con@ 000000018004ad30     image.obj
 0002:00017d60       ??_C@_0CH@NLPLIBFJ@C?3?2IMAGEM?$HO1?4?$CFd?2VISUA?$HO1?2BIN?2conve@ 000000018004ad60     image.obj
 0002:00017d88       ??_C@_0BO@GKFOOMCF@D?3?2IMAGEM?$HO1?4?$CF?42d?9?2convert?4exe?$AA@ 000000018004ad88     image.obj
 0002:00017da8       ??_C@_0BN@JGGJEOAD@D?3?2IMAGEM?$HO1?4?$CFd?9Q?2convert?4exe?$AA@ 000000018004ada8     image.obj
 0002:00017dc8       ??_C@_0BL@MPGAJAKA@D?3?2IMAGEM?$HO1?4?$CFd?2convert?4exe?$AA@ 000000018004adc8     image.obj
 0002:00017de8       ??_C@_0CK@DNGABIKL@D?3?2IMAGEM?$HO1?4?$CF?42d?9?2VISUA?$HO1?2BIN?2co@ 000000018004ade8     image.obj
 0002:00017e18       ??_C@_0CJ@JJJAMMPF@D?3?2IMAGEM?$HO1?4?$CFd?9Q?2VISUA?$HO1?2BIN?2con@ 000000018004ae18     image.obj
 0002:00017e48       ??_C@_0CH@OJDFLFEH@D?3?2IMAGEM?$HO1?4?$CFd?2VISUA?$HO1?2BIN?2conve@ 000000018004ae48     image.obj
 0002:00017e70       ??_C@_0M@BHHDHLFO@convert?4exe?$AA@ 000000018004ae70     image.obj
 0002:00017e80       ??_C@_08JLFGAKFI@?4?2gm?4exe?$AA@ 000000018004ae80     image.obj
 0002:00017e90       ??_C@_0BJ@KIJEJDFC@?$CFs?2GRAPHI?$HO1?4?$CF?42d?9?2gm?4exe?$AA@ 000000018004ae90     image.obj
 0002:00017eb0       ??_C@_0BI@JLKBGOLD@?$CFs?2GRAPHI?$HO1?4?$CFd?9Q?2gm?4exe?$AA@ 000000018004aeb0     image.obj
 0002:00017ec8       ??_C@_0BG@NEOPBCGI@?$CFs?2GRAPHI?$HO1?4?$CFd?2gm?4exe?$AA@ 000000018004aec8     image.obj
 0002:00017ee0       ??_C@_0CF@HGNIKPKC@?$CFs?2GRAPHI?$HO1?4?$CF?42d?9?2VISUA?$HO1?2BIN?2gm@ 000000018004aee0     image.obj
 0002:00017f08       ??_C@_0CE@HONJHPCF@?$CFs?2GRAPHI?$HO1?4?$CFd?9Q?2VISUA?$HO1?2BIN?2gm?4@ 000000018004af08     image.obj
 0002:00017f30       ??_C@_0CC@CGJHNFDG@?$CFs?2GRAPHI?$HO1?4?$CFd?2VISUA?$HO1?2BIN?2gm?4ex@ 000000018004af30     image.obj
 0002:00017f58       ??_C@_0BJ@LNLIIJPN@C?3?2GRAPHI?$HO1?4?$CF?42d?9?2gm?4exe?$AA@ 000000018004af58     image.obj
 0002:00017f78       ??_C@_0BI@GNJGIIOO@C?3?2GRAPHI?$HO1?4?$CFd?9Q?2gm?4exe?$AA@ 000000018004af78     image.obj
 0002:00017f90       ??_C@_0BG@KKAGDOPF@C?3?2GRAPHI?$HO1?4?$CFd?2gm?4exe?$AA@ 000000018004af90     image.obj
 0002:00017fa8       ??_C@_0CF@IDNFPMOE@C?3?2GRAPHI?$HO1?4?$CF?42d?9?2VISUA?$HO1?2BIN?2gm@ 000000018004afa8     image.obj
 0002:00017fd0       ??_C@_0CE@HMEOGOHC@C?3?2GRAPHI?$HO1?4?$CFd?9Q?2VISUA?$HO1?2BIN?2gm?4@ 000000018004afd0     image.obj
 0002:00017ff8       ??_C@_0CC@KLPHHFCI@C?3?2GRAPHI?$HO1?4?$CFd?2VISUA?$HO1?2BIN?2gm?4ex@ 000000018004aff8     image.obj
 0002:00018020       ??_C@_0BJ@HDOIHFFF@D?3?2GRAPHI?$HO1?4?$CF?42d?9?2gm?4exe?$AA@ 000000018004b020     image.obj
 0002:00018040       ??_C@_0BI@FMIOLPJJ@D?3?2GRAPHI?$HO1?4?$CFd?9Q?2gm?4exe?$AA@ 000000018004b040     image.obj
 0002:00018058       ??_C@_0BG@MPNPAALF@D?3?2GRAPHI?$HO1?4?$CFd?2gm?4exe?$AA@ 000000018004b058     image.obj
 0002:00018070       ??_C@_0CF@LHOHJFDL@D?3?2GRAPHI?$HO1?4?$CF?42d?9?2VISUA?$HO1?2BIN?2gm@ 000000018004b070     image.obj
 0002:00018098       ??_C@_0CE@CAPOENBL@D?3?2GRAPHI?$HO1?4?$CFd?9Q?2VISUA?$HO1?2BIN?2gm?4@ 000000018004b098     image.obj
 0002:000180c0       ??_C@_0CC@FEHIMCKK@D?3?2GRAPHI?$HO1?4?$CFd?2VISUA?$HO1?2BIN?2gm?4ex@ 000000018004b0c0     image.obj
 0002:000180e4       ??_C@_06KIIJHODA@gm?4exe?$AA@ 000000018004b0e4     image.obj
 0002:000180f0       ??_C@_0N@MGGOIDG@?4?2medcon?4exe?$AA@ 000000018004b0f0     image.obj
 0002:00018100       ??_C@_0BK@NDJGANHB@?$CFs?2XMedCon?2bin?2medcon?4bat?$AA@ 000000018004b100     image.obj
 0002:00018120       ??_C@_0BK@OGPIOCH@?$CFs?2XMedCon?2bin?2medcon?4exe?$AA@ 000000018004b120     image.obj
 0002:00018140       ??_C@_0BK@EIBDBMEE@C?3?2XMedCon?2bin?2medcon?4exe?$AA@ 000000018004b140     image.obj
 0002:00018160       ??_C@_0L@BIHMEPJA@medcon?4exe?$AA@ 000000018004b160     image.obj
 0002:0001816c       ??_C@_01LKDEMHDF@s?$AA@    000000018004b16c     image.obj
 0002:00018170       ??_C@_0L@OBBAIDHB@?$CFlu?5byte?$CFs?$AA@ 000000018004b170     image.obj
 0002:00018180       ??_C@_08MFGCGJIH@?$CF?41f?5Kio?$AA@ 000000018004b180     image.obj
 0002:00018190       ??_C@_08OAAJDGFL@?$CF?41f?5Mio?$AA@ 000000018004b190     image.obj
 0002:000181a0       ??_C@_08IPLENGDP@?$CF?41f?5Gio?$AA@ 000000018004b1a0     image.obj
 0002:000181b0       ??_C@_09LAIAIPHJ@LwipImage?$AA@ 000000018004b1b0     image.obj
 0002:000181bc       ??_C@_05IGKADHGO@width?$AA@ 000000018004b1bc     image.obj
 0002:000181c4       ??_C@_06LNLHEAAG@height?$AA@ 000000018004b1c4     image.obj
 0002:000181d0       ??_C@_08BAKLOFAD@getPixel?$AA@ 000000018004b1d0     image.obj
 0002:000181dc       ??_C@_06HOHPNJLC@buffer?$AA@ 000000018004b1dc     image.obj
 0002:000181e4       ??_C@_06PIONCPJI@resize?$AA@ 000000018004b1e4     image.obj
 0002:000181ec       ??_C@_06CEHMNFAL@rotate?$AA@ 000000018004b1ec     image.obj
 0002:000181f4       ??_C@_04OEOMNFLL@blur?$AA@ 000000018004b1f4     image.obj
 0002:000181fc       ??_C@_04EKMNJIID@crop?$AA@ 000000018004b1fc     image.obj
 0002:00018204       ??_C@_06LLKPBPOH@mirror?$AA@ 000000018004b204     image.obj
 0002:0001820c       ??_C@_03PNAAIPML@pad?$AA@  000000018004b20c     image.obj
 0002:00018210       ??_C@_07JOLMDEEJ@sharpen?$AA@ 000000018004b210     image.obj
 0002:00018218       ??_C@_07GMFDBPHL@hslaAdj?$AA@ 000000018004b218     image.obj
 0002:00018220       ??_C@_07JGMNFOGM@opacify?$AA@ 000000018004b220     image.obj
 0002:00018228       ??_C@_05NDLFFNHM@paste?$AA@ 000000018004b228     image.obj
 0002:00018230       ??_C@_08OBIHPGHO@setPixel?$AA@ 000000018004b230     image.obj
 0002:0001823c       ??_C@_04BOPJJKFO@non?9?$AA@ 000000018004b23c     image.obj
 0002:00018250       ??_C@_0GO@IJKBBBF@?$FLinstance?$CI?$CFu?0?$CFu?0?$CFu?0?$CFu?0?$CFp?0?$CFsshare@ 000000018004b250     image.obj
 0002:000182c0       ??_C@_0IL@FBEMFEEL@?$FLinstance?$CI?$CFu?0?$CFu?0?$CFu?0?$CFu?0?$CFp?0?$CFsshare@ 000000018004b2c0     image.obj
 0002:00018350       ??_C@_0HA@LNIOEEDA@?$FLinstance?$CI?$CFu?0?$CFu?0?$CFu?0?$CFu?0?$CFp?0?$CFsshare@ 000000018004b350     image.obj
 0002:000183c0       ??_C@_1CE@IAEMMFJ@?$AA?$CB?$AAh?$AAa?$AAn?$AAd?$AAl?$AAe?$AA?4?$AAI?$AAs?$AAE?$AAm?$AAp?$AAt?$AAy?$AA?$CI?$AA?$CJ?$AA?$AA@ 000000018004b3c0     image.obj
 0002:000183e8       ??_7ObjectWrap@node@@6B@   000000018004b3e8     image.obj
 0002:00018400       ??_7exception@stdext@@6B@  000000018004b400     image.obj
 0002:00018418       ??_7CImgException@cimg_library@@6B@ 000000018004b418     image.obj
 0002:00018418       ??_7CImgIOException@cimg_library@@6B@ 000000018004b418     image.obj
 0002:00018418       ??_7CImgArgumentException@cimg_library@@6B@ 000000018004b418     image.obj
 0002:00018418       ??_7CImgInstanceException@cimg_library@@6B@ 000000018004b418     image.obj
 0002:00018430       ??_7LwipImage@@6B@         000000018004b430     image.obj
 0002:00018448       ??_C@_0N@OFHMGPAL@unsigned?5int?$AA@ 000000018004b448     resize_worker.obj
 0002:00018458       ??_C@_0O@NMGGJGDE@unsigned?5long?$AA@ 000000018004b458     resize_worker.obj
 0002:00018468       ??_C@_05KNFBNCOH@float?$AA@ 000000018004b468     resize_worker.obj
 0002:00018470       ??_C@_0BH@HOEBJHNE@Unable?5to?5resize?5image?$AA@ 000000018004b470     resize_worker.obj
 0002:00018490       ??_C@_0HN@LNNNGPDL@?$FLinstance?$CI?$CFu?0?$CFu?0?$CFu?0?$CFu?0?$CFp?0?$CFsshare@ 000000018004b490     resize_worker.obj
 0002:00018510       ??_C@_0LO@CIICCCPG@?$FLinstance?$CI?$CFu?0?$CFu?0?$CFu?0?$CFu?0?$CFp?0?$CFsshare@ 000000018004b510     resize_worker.obj
 0002:000185d0       ??_C@_0EG@MMNHNNC@?$FLinstance?$CI?$CFu?0?$CFu?0?$CFu?0?$CFu?0?$CFp?0?$CFsshare@ 000000018004b5d0     resize_worker.obj
 0002:00018620       ??_C@_0GG@IFNNPGGA@?$FLinstance?$CI?$CFu?0?$CFu?0?$CFu?0?$CFu?0?$CFp?0?$CFsshare@ 000000018004b620     resize_worker.obj
 0002:00018688       ??_7AsyncWorker@Nan@@6B@   000000018004b688     resize_worker.obj
 0002:000186b8       ??_7ResizeWorker@@6B@      000000018004b6b8     resize_worker.obj
 0002:000186e8       ??_C@_0O@NALGGDJF@Out?5of?5memory?$AA@ 000000018004b6e8     rotate_worker.obj
 0002:000186f8       ??_C@_0BH@GGFIPBFA@Unable?5to?5rotate?5image?$AA@ 000000018004b6f8     rotate_worker.obj
 0002:00018710       ??_7RotateWorker@@6B@      000000018004b710     rotate_worker.obj
 0002:00018740       ??_7BlurWorker@@6B@        000000018004b740     blur_worker.obj
 0002:00018770       ??_C@_0BF@EIGNCFLG@Unable?5to?5crop?5image?$AA@ 000000018004b770     crop_worker.obj
 0002:00018788       ??_7CropWorker@@6B@        000000018004b788     crop_worker.obj
 0002:000187b8       ??_C@_0BA@JFNIOLAK@string?5too?5long?$AA@ 000000018004b7b8     mirror_worker.obj
 0002:000187c8       ??_C@_01FJMABOPO@x?$AA@    000000018004b7c8     mirror_worker.obj
 0002:000187cc       ??_C@_01EANLCPLP@y?$AA@    000000018004b7cc     mirror_worker.obj
 0002:000187d0       ??_C@_0BH@GGNFDDGJ@Unable?5to?5mirror?5image?$AA@ 000000018004b7d0     mirror_worker.obj
 0002:000187f0       ??_C@_0FF@BEMAOOFG@?$FLinstance?$CI?$CFu?0?$CFu?0?$CFu?0?$CFu?0?$CFp?0?$CFsshare@ 000000018004b7f0     mirror_worker.obj
 0002:00018848       ??_C@_0BI@CFPLBAOH@invalid?5string?5position?$AA@ 000000018004b848     mirror_worker.obj
 0002:00018860       ??_7MirrorWorker@@6B@      000000018004b860     mirror_worker.obj
 0002:00018890       ??_7PadWorker@@6B@         000000018004b890     pad_worker.obj
 0002:000188c0       ??_C@_0BI@KMLFCNEF@Unable?5to?5sharpen?5image?$AA@ 000000018004b8c0     sharpen_worker.obj
 0002:000188e0       ??_C@_0EF@BOBPDEID@?$FLinstance?$CI?$CFu?0?$CFu?0?$CFu?0?$CFu?0?$CFp?0?$CFsshare@ 000000018004b8e0     sharpen_worker.obj
 0002:00018928       ??_7SharpenWorker@@6B@     000000018004b928     sharpen_worker.obj
 0002:00018958       ??_7HSLAWorker@@6B@        000000018004b958     hsla_worker.obj
 0002:00018988       ??_7OpacifyWorker@@6B@     000000018004b988     opacify_worker.obj
 0002:000189b8       ??_C@_06JIBAFMCE@pixbuf?$AA@ 000000018004b9b8     paste_worker.obj
 0002:000189c0       ??_C@_0BG@NOEMJBFE@Unable?5to?5paste?5image?$AA@ 000000018004b9c0     paste_worker.obj
 0002:000189d8       ??_7PasteWorker@@6B@       000000018004b9d8     paste_worker.obj
 0002:00018a08       ??_7SetPixelWorker@@6B@    000000018004ba08     setpixel_worker.obj
 0002:00018a38       ??_C@_08HCOMDCCD@iojs?4exe?$AA@ 000000018004ba38     win_delay_load_hook.obj
 0002:00018a48       ??_C@_08JDDNMFDB@node?4exe?$AA@ 000000018004ba48     win_delay_load_hook.obj
 0002:00018a54       __real@30800000            000000018004ba54     image.obj
 0002:00018a58       __real@35800000            000000018004ba58     image.obj
 0002:00018a5c       __real@3a800000            000000018004ba5c     image.obj
 0002:00018a60       __real@3eaaaaab            000000018004ba60     hsla_worker.obj
 0002:00018a64       __real@3f000000            000000018004ba64     hsla_worker.obj
 0002:00018a68       __real@3f2aaaab            000000018004ba68     hsla_worker.obj
 0002:00018a6c       __real@3f800000            000000018004ba6c     hsla_worker.obj
 0002:00018a70       __real@3facb923a29c779a    000000018004ba70     sharpen_worker.obj
 0002:00018a78       __real@3fd06f694467381d    000000018004ba78     sharpen_worker.obj
 0002:00018a80       __real@3fe28240b780346e    000000018004ba80     sharpen_worker.obj
 0002:00018a88       __real@3fef5f6fd21ff2e5    000000018004ba88     sharpen_worker.obj
 0002:00018a90       __real@3ff0000000000000    000000018004ba90     sharpen_worker.obj
 0002:00018a98       __real@3ff2ab367a0f9097    000000018004ba98     sharpen_worker.obj
 0002:00018aa0       __real@40000000            000000018004baa0     hsla_worker.obj
 0002:00018aa8       __real@4001b9abf3387161    000000018004baa8     sharpen_worker.obj
 0002:00018ab0       __real@400412a305532618    000000018004bab0     sharpen_worker.obj
 0002:00018ab8       __real@4008000000000000    000000018004bab8     sharpen_worker.obj
 0002:00018ac0       __real@400921fb54442d18    000000018004bac0     rotate_worker.obj
 0002:00018ac8       __real@4009a13d028c43be    000000018004bac8     sharpen_worker.obj
 0002:00018ad0       __real@400b0f47304039ac    000000018004bad0     sharpen_worker.obj
 0002:00018ad8       __real@400c72b020c49ba6    000000018004bad8     sharpen_worker.obj
 0002:00018ae0       __real@400de7a7229d4fdd    000000018004bae0     sharpen_worker.obj
 0002:00018ae8       __real@401727e595e04062    000000018004bae8     sharpen_worker.obj
 0002:00018af0       __real@401b0f47304039ac    000000018004baf0     sharpen_worker.obj
 0002:00018af8       __real@40400000            000000018004baf8     hsla_worker.obj
 0002:00018afc       __real@40490fdb            000000018004bafc     resize_worker.obj
 0002:00018b00       __real@4056800000000000    000000018004bb00     rotate_worker.obj
 0002:00018b08       __real@4059000000000000    000000018004bb08     paste_worker.obj
 0002:00018b10       __real@4066800000000000    000000018004bb10     rotate_worker.obj
 0002:00018b18       __real@406fe00000000000    000000018004bb18     hsla_worker.obj
 0002:00018b20       __real@4076800000000000    000000018004bb20     hsla_worker.obj
 0002:00018b28       __real@40800000            000000018004bb28     rotate_worker.obj
 0002:00018b2c       __real@40a00000            000000018004bb2c     hsla_worker.obj
 0002:00018b30       __real@40c00000            000000018004bb30     hsla_worker.obj
 0002:00018b34       __real@42700000            000000018004bb34     hsla_worker.obj
 0002:00018b38       __real@42c80000            000000018004bb38     hsla_worker.obj
 0002:00018b3c       __real@437f0000            000000018004bb3c     hsla_worker.obj
 0002:00018b40       __real@43b40000            000000018004bb40     hsla_worker.obj
 0002:00018b48       __real@43e0000000000000    000000018004bb48     image.obj
 0002:00018b50       __real@c0000000            000000018004bb50     resize_worker.obj
 0002:00018b54       __real@c2c80000            000000018004bb54     sharpen_worker.obj
 0002:00018b60       __xmm@7fffffffffffffff7fffffffffffffff 000000018004bb60     sharpen_worker.obj
 0002:00018b70       __xmm@80000000000000008000000000000000 000000018004bb70     sharpen_worker.obj
 0002:00018b80       __xmm@80000000800000008000000080000000 000000018004bb80     sharpen_worker.obj
 0002:000197a8       __real@bff0000000000000    000000018004c7a8     libucrt:floor.obj
 0002:0001a2c0       __Lcosarray                000000018004d2c0     libucrt:lsincos_array.obj
 0002:0001a320       __Lsinarray                000000018004d320     libucrt:lsincos_array.obj
 0002:0001a6a0       ??_C@_04LAGPAAHP@sinf?$AA@ 000000018004d6a0     libucrt:sincos_special.obj
 0002:0001a6a8       ??_C@_04OBBKPIAC@cosf?$AA@ 000000018004d6a8     libucrt:sincos_special.obj
 0002:0001a6c0       __Lcosfarray               000000018004d6c0     libucrt:lsincosf_array.obj
 0002:0001a6f0       __Lsinfarray               000000018004d6f0     libucrt:lsincosf_array.obj
 0002:0001a710       __two_to_jby64_table       000000018004d710     libucrt:two_to_jby64_table.obj
 0002:0001a910       ??_C@_04KBNCNMNN@expf?$AA@ 000000018004d910     libucrt:exp_special.obj
 0002:0001a918       ??_C@_04MBFDLNIM@powf?$AA@ 000000018004d918     libucrt:pow_special.obj
 0002:0001a920       __L_2_by_pi_bits           000000018004d920     libucrt:l2_by_pi_bits.obj
 0002:0001aac8       _tls_used                  000000018004dac8     LIBCMT:tlssup.obj
 0002:0001aaf0       ??_R4exception@std@@6B@    000000018004daf0     libcpmt:xthrow.obj
 0002:0001ab18       ??_R3exception@std@@8      000000018004db18     libcpmt:xthrow.obj
 0002:0001ab30       ??_R2exception@std@@8      000000018004db30     libcpmt:xthrow.obj
 0002:0001ab40       ??_R1A@?0A@EA@exception@std@@8 000000018004db40     libcpmt:xthrow.obj
 0002:0001ab68       ??_R4bad_alloc@std@@6B@    000000018004db68     libcpmt:xthrow.obj
 0002:0001ab90       ??_R3bad_alloc@std@@8      000000018004db90     libcpmt:xthrow.obj
 0002:0001aba8       ??_R2bad_alloc@std@@8      000000018004dba8     libcpmt:xthrow.obj
 0002:0001abc0       ??_R1A@?0A@EA@bad_alloc@std@@8 000000018004dbc0     libcpmt:xthrow.obj
 0002:0001abe8       ??_R4logic_error@std@@6B@  000000018004dbe8     libcpmt:xthrow.obj
 0002:0001ac10       ??_R3logic_error@std@@8    000000018004dc10     libcpmt:xthrow.obj
 0002:0001ac28       ??_R2logic_error@std@@8    000000018004dc28     libcpmt:xthrow.obj
 0002:0001ac40       ??_R1A@?0A@EA@logic_error@std@@8 000000018004dc40     libcpmt:xthrow.obj
 0002:0001ac68       ??_R4length_error@std@@6B@ 000000018004dc68     libcpmt:xthrow.obj
 0002:0001ac90       ??_R3length_error@std@@8   000000018004dc90     libcpmt:xthrow.obj
 0002:0001aca8       ??_R2length_error@std@@8   000000018004dca8     libcpmt:xthrow.obj
 0002:0001acc8       ??_R1A@?0A@EA@length_error@std@@8 000000018004dcc8     libcpmt:xthrow.obj
 0002:0001acf0       ??_R4out_of_range@std@@6B@ 000000018004dcf0     libcpmt:xthrow.obj
 0002:0001ad18       ??_R3out_of_range@std@@8   000000018004dd18     libcpmt:xthrow.obj
 0002:0001ad30       ??_R2out_of_range@std@@8   000000018004dd30     libcpmt:xthrow.obj
 0002:0001ad50       ??_R1A@?0A@EA@out_of_range@std@@8 000000018004dd50     libcpmt:xthrow.obj
 0002:0001ad78       ??_R4type_info@@6B@        000000018004dd78     LIBCMT:std_type_info_static.obj
 0002:0001ada0       ??_R3type_info@@8          000000018004dda0     LIBCMT:std_type_info_static.obj
 0002:0001adb8       ??_R2type_info@@8          000000018004ddb8     LIBCMT:std_type_info_static.obj
 0002:0001adc8       ??_R1A@?0A@EA@type_info@@8 000000018004ddc8     LIBCMT:std_type_info_static.obj
 0002:0001adf0       ??_R4bad_array_new_length@std@@6B@ 000000018004ddf0     LIBCMT:throw_bad_alloc.obj
 0002:0001ae18       ??_R3bad_array_new_length@std@@8 000000018004de18     LIBCMT:throw_bad_alloc.obj
 0002:0001ae30       ??_R2bad_array_new_length@std@@8 000000018004de30     LIBCMT:throw_bad_alloc.obj
 0002:0001ae50       ??_R1A@?0A@EA@bad_array_new_length@std@@8 000000018004de50     LIBCMT:throw_bad_alloc.obj
 0002:0001ae78       ??_R4bad_exception@std@@6B@ 000000018004de78     libvcruntime:frame.obj
 0002:0001aea0       ??_R3bad_exception@std@@8  000000018004dea0     libvcruntime:frame.obj
 0002:0001aeb8       ??_R2bad_exception@std@@8  000000018004deb8     libvcruntime:frame.obj
 0002:0001aed0       ??_R1A@?0A@EA@bad_exception@std@@8 000000018004ded0     libvcruntime:frame.obj
 0002:0001aef8       ?_TraceLoggingMetadata@?1??_TlgWrite@__vcrt_trace_logging_provider@@YAJPEBU_TlgProvider_t@2@PEFBXPEBU_GUID@@2IPEAU_EVENT_DATA_DESCRIPTOR@@@Z@4U_TraceLoggingMetadata_t@2@B 000000018004def8     libvcruntime:telemetry.obj
 0002:0001afab       ?_TraceLoggingMetadataEnd@?1??_TlgWrite@__vcrt_trace_logging_provider@@YAJPEBU_TlgProvider_t@2@PEFBXPEBU_GUID@@2IPEAU_EVENT_DATA_DESCRIPTOR@@@Z@4EB 000000018004dfab     libvcruntime:telemetry.obj
 0002:0001b4a8       __rtc_iaa                  000000018004e4a8     LIBCMT:_initsect_.obj
 0002:0001b4b0       __rtc_izz                  000000018004e4b0     LIBCMT:_initsect_.obj
 0002:0001b4b8       __rtc_taa                  000000018004e4b8     LIBCMT:_initsect_.obj
 0002:0001b4c0       __rtc_tzz                  000000018004e4c0     LIBCMT:_initsect_.obj
 0002:0001f0e8       _TI2?AVbad_alloc@std@@     00000001800520e8     libcpmt:xthrow.obj
 0002:0001f108       _CTA2?AVbad_alloc@std@@    0000000180052108     libcpmt:xthrow.obj
 0002:0001f120       _CT??_R0?AVbad_alloc@std@@@8??0bad_alloc@std@@QEAA@AEBV01@@Z24 0000000180052120     libcpmt:xthrow.obj
 0002:0001f148       _CT??_R0?AVexception@std@@@8??0exception@std@@QEAA@AEBV01@@Z24 0000000180052148     libcpmt:xthrow.obj
 0002:0001f170       _CT??_R0?AVlogic_error@std@@@8??0logic_error@std@@QEAA@AEBV01@@Z24 0000000180052170     libcpmt:xthrow.obj
 0002:0001f198       _TI3?AVlength_error@std@@  0000000180052198     libcpmt:xthrow.obj
 0002:0001f1b8       _CTA3?AVlength_error@std@@ 00000001800521b8     libcpmt:xthrow.obj
 0002:0001f1d8       _CT??_R0?AVlength_error@std@@@8??0length_error@std@@QEAA@AEBV01@@Z24 00000001800521d8     libcpmt:xthrow.obj
 0002:0001f200       _TI3?AVout_of_range@std@@  0000000180052200     libcpmt:xthrow.obj
 0002:0001f220       _CTA3?AVout_of_range@std@@ 0000000180052220     libcpmt:xthrow.obj
 0002:0001f240       _CT??_R0?AVout_of_range@std@@@8??0out_of_range@std@@QEAA@AEBV01@@Z24 0000000180052240     libcpmt:xthrow.obj
 0002:0001f268       _TI3?AVbad_array_new_length@std@@ 0000000180052268     LIBCMT:throw_bad_alloc.obj
 0002:0001f288       _CTA3?AVbad_array_new_length@std@@ 0000000180052288     LIBCMT:throw_bad_alloc.obj
 0002:0001f2a8       _CT??_R0?AVbad_array_new_length@std@@@8??0bad_array_new_length@std@@QEAA@AEBV01@@Z24 00000001800522a8     LIBCMT:throw_bad_alloc.obj
 0002:0001f2d0       _TI2?AVbad_exception@std@@ 00000001800522d0     libvcruntime:frame.obj
 0002:0001f2f0       _CTA2?AVbad_exception@std@@ 00000001800522f0     libvcruntime:frame.obj
 0002:0001f308       _CT??_R0?AVbad_exception@std@@@8??0bad_exception@std@@QEAA@AEBV01@@Z24 0000000180052308     libvcruntime:frame.obj
 0002:0001f330       _CT??_R0?AUCImgInstanceException@cimg_library@@@824 0000000180052330     image.obj
 0002:0001f358       _TI3?AUCImgInstanceException@cimg_library@@ 0000000180052358     image.obj
 0002:0001f378       _TI3?AUCImgIOException@cimg_library@@ 0000000180052378     image.obj
 0002:0001f398       _CTA3?AUCImgIOException@cimg_library@@ 0000000180052398     image.obj
 0002:0001f3b8       _CTA3?AUCImgArgumentException@cimg_library@@ 00000001800523b8     image.obj
 0002:0001f3d8       _CT??_R0?AUCImgArgumentException@cimg_library@@@824 00000001800523d8     image.obj
 0002:0001f400       _CT??_R0?AUCImgException@cimg_library@@@824 0000000180052400     image.obj
 0002:0001f428       _CT??_R0?AUCImgIOException@cimg_library@@@824 0000000180052428     image.obj
 0002:0001f450       _CTA3?AUCImgInstanceException@cimg_library@@ 0000000180052450     image.obj
 0002:0001f470       _CT??_R0?AVexception@stdext@@@816 0000000180052470     image.obj
 0002:0001f498       _TI3?AUCImgArgumentException@cimg_library@@ 0000000180052498     image.obj
 0002:0001f4b4       __DELAY_IMPORT_DESCRIPTOR_node_exe 00000001800524b4     node:node.exe
 0002:0001f4d4       __NULL_DELAY_IMPORT_DESCRIPTOR 00000001800524d4     node:node.exe
 0002:0001f6b0       \177node_NULL_THUNK_DATA_DLN 00000001800526b0     node:node.exe
 0002:000204f0       \177node_NULL_THUNK_DATA_DLB 00000001800534f0     node:node.exe
 0002:00020708       __IMPORT_DESCRIPTOR_KERNEL32 0000000180053708     kernel32:KERNEL32.dll
 0002:0002071c       __IMPORT_DESCRIPTOR_SHELL32 000000018005371c     shell32:SHELL32.dll
 0002:00020730       __IMPORT_DESCRIPTOR_ADVAPI32 0000000180053730     advapi32:ADVAPI32.dll
 0002:00020744       __NULL_IMPORT_DESCRIPTOR   0000000180053744     kernel32:KERNEL32.dll
 0003:00000000       _Init_global_epoch         0000000180055000     LIBCMT:thread_safe_statics.obj
 0003:00000004       __scrt_native_dllmain_reason 0000000180055004     LIBCMT:utility.obj
 0003:00000008       __security_cookie          0000000180055008     LIBCMT:gs_cookie.obj
 0003:00000010       __security_cookie_complement 0000000180055010     LIBCMT:gs_cookie.obj
 0003:00000018       __isa_available            0000000180055018     LIBCMT:_cpu_disp_.obj
 0003:0000001c       __isa_enabled              000000018005501c     LIBCMT:_cpu_disp_.obj
 0003:00000020       __memcpy_nt_iters          0000000180055020     LIBCMT:_cpu_disp_.obj
 0003:00000090       _iob                       0000000180055090     libucrt:_file.obj
 0003:000001a0       __abort_behavior           00000001800551a0     libucrt:abort.obj
 0003:000001b0       __badioinfo                00000001800551b0     libucrt:ioinit.obj
 0003:000001f0       __acrt_initial_locale_data 00000001800551f0     libucrt:nlsdata.obj
 0003:00000348       __acrt_initial_locale_pointers 0000000180055348     libucrt:nlsdata.obj
 0003:00000358       __acrt_wide_c_locale_string 0000000180055358     libucrt:nlsdata.obj
 0003:00000360       __acrt_initial_multibyte_data 0000000180055360     libucrt:mbctype.obj
 0003:00000588       __acrt_current_multibyte_data 0000000180055588     libucrt:mbctype.obj
 0003:00000690       _mbctype                   0000000180055690     libucrt:mbctype.obj
 0003:000007a0       _mbcasemap                 00000001800557a0     libucrt:mbctype.obj
 0003:000008a0       _pwctype                   00000001800558a0     libucrt:ctype.obj
 0003:000008b0       __globallocalestatus       00000001800558b0     libucrt:glstatus.obj
 0003:000008c0       __acrt_lconv_c             00000001800558c0     libucrt:localeconv.obj
 0003:00000958       __acrt_lconv_static_decimal 0000000180055958     libucrt:localeconv.obj
 0003:0000095c       __acrt_lconv_static_W_decimal 000000018005595c     libucrt:localeconv.obj
 0003:00000960       _lookuptrailbytes          0000000180055960     libucrt:read.obj
 0003:00000a60       __dcrt_lowio_console_output_handle 0000000180055a60     libucrt:initcon.obj
 0003:00000a80       _fltused                   0000000180055a80     LIBCMT:fltused.obj
 0003:00000ad0       __pfnDliNotifyHook2        0000000180055ad0     win_delay_load_hook.obj
 0003:00000ae0       ??_R0?AVbad_alloc@std@@@8  0000000180055ae0     libcpmt:xthrow.obj
 0003:00000b08       ??_R0?AVexception@std@@@8  0000000180055b08     libcpmt:xthrow.obj
 0003:00000b30       ??_R0?AVlogic_error@std@@@8 0000000180055b30     libcpmt:xthrow.obj
 0003:00000b58       ??_R0?AVlength_error@std@@@8 0000000180055b58     libcpmt:xthrow.obj
 0003:00000b80       ??_R0?AVout_of_range@std@@@8 0000000180055b80     libcpmt:xthrow.obj
 0003:00000ba8       ??_R0?AVtype_info@@@8      0000000180055ba8     LIBCMT:std_type_info_static.obj
 0003:00000bc8       ??_R0?AVbad_array_new_length@std@@@8 0000000180055bc8     LIBCMT:throw_bad_alloc.obj
 0003:00000bf8       ??_R0?AVbad_exception@std@@@8 0000000180055bf8     libvcruntime:frame.obj
 0003:00000c20       ??_R0?AVexception@stdext@@@8 0000000180055c20     image.obj
 0003:00000c48       ??_R0?AUCImgIOException@cimg_library@@@8 0000000180055c48     image.obj
 0003:00000c80       ??_R0?AUCImgArgumentException@cimg_library@@@8 0000000180055c80     image.obj
 0003:00000cc0       ??_R0?AUCImgException@cimg_library@@@8 0000000180055cc0     image.obj
 0003:00000cf8       ??_R0?AUCImgInstanceException@cimg_library@@@8 0000000180055cf8     image.obj
 0003:00000d38       __imp_node_module_register 0000000180055d38     node:node.exe
 0003:00000d40       __imp_uv_queue_work        0000000180055d40     node:node.exe
 0003:00000d48       __imp_?Value@External@v8@@QEBAPEAXXZ 0000000180055d48     node:node.exe
 0003:00000d50       __imp_?New@External@v8@@SA?AV?$Local@VExternal@v8@@@2@PEAVIsolate@2@PEAX@Z 0000000180055d50     node:node.exe
 0003:00000d58       __imp_?Value@Integer@v8@@QEBA_JXZ 0000000180055d58     node:node.exe
 0003:00000d60       __imp_?New@Integer@v8@@SA?AV?$Local@VInteger@v8@@@2@PEAVIsolate@2@H@Z 0000000180055d60     node:node.exe
 0003:00000d68       __imp_?New@Signature@v8@@SA?AV?$Local@VSignature@v8@@@2@PEAVIsolate@2@V?$Local@VFunctionTemplate@v8@@@2@@Z 0000000180055d68     node:node.exe
 0003:00000d70       __imp_?GetCurrentContext@Isolate@v8@@QEAA?AV?$Local@VContext@v8@@@2@XZ 0000000180055d70     node:node.exe
 0003:00000d78       __imp_?GetCurrent@Isolate@v8@@SAPEAV12@XZ 0000000180055d78     node:node.exe
 0003:00000d80       __imp_?CreateHandle@HandleScope@v8@@KAPEAPEAVObject@internal@2@PEAVIsolate@42@PEAV342@@Z 0000000180055d80     node:node.exe
 0003:00000d88       __imp_?CreateHandle@HandleScope@v8@@CAPEAPEAVObject@internal@2@PEAVHeapObject@42@PEAV342@@Z 0000000180055d88     node:node.exe
 0003:00000d90       __imp_??1HandleScope@v8@@QEAA@XZ 0000000180055d90     node:node.exe
 0003:00000d98       __imp_??0HandleScope@v8@@QEAA@PEAVIsolate@1@@Z 0000000180055d98     node:node.exe
 0003:00000da0       __imp_?Set@Template@v8@@QEAAXV?$Local@VName@v8@@@2@V?$Local@VData@v8@@@2@W4PropertyAttribute@2@@Z 0000000180055da0     node:node.exe
 0003:00000da8       __imp_?New@Array@v8@@SA?AV?$Local@VArray@v8@@@2@PEAVIsolate@2@H@Z 0000000180055da8     node:node.exe
 0003:00000db0       __imp_?SetClassName@FunctionTemplate@v8@@QEAAXV?$Local@VString@v8@@@2@@Z 0000000180055db0     node:node.exe
 0003:00000db8       __imp_?PrototypeTemplate@FunctionTemplate@v8@@QEAA?AV?$Local@VObjectTemplate@v8@@@2@XZ 0000000180055db8     node:node.exe
 0003:00000dc0       __imp_?InstanceTemplate@FunctionTemplate@v8@@QEAA?AV?$Local@VObjectTemplate@v8@@@2@XZ 0000000180055dc0     node:node.exe
 0003:00000dc8       __imp_?GetFunction@FunctionTemplate@v8@@QEAA?AV?$Local@VFunction@v8@@@2@XZ 0000000180055dc8     node:node.exe
 0003:00000dd0       __imp_?GetFunction@FunctionTemplate@v8@@QEAA?AV?$MaybeLocal@VFunction@v8@@@2@V?$Local@VContext@v8@@@2@@Z 0000000180055dd0     node:node.exe
 0003:00000dd8       __imp_?New@FunctionTemplate@v8@@SA?AV?$Local@VFunctionTemplate@v8@@@2@PEAVIsolate@2@P6AXAEBV?$FunctionCallbackInfo@VValue@v8@@@2@@ZV?$Local@VValue@v8@@@2@V?$Local@VSignature@v8@@@2@H@Z 0000000180055dd8     node:node.exe
 0003:00000de0       __imp_?ToLocalEmpty@V8@v8@@CAXXZ 0000000180055de0     node:node.exe
 0003:00000de8       __imp_?ClearWeak@V8@v8@@CAPEAXPEAPEAVObject@internal@2@@Z 0000000180055de8     node:node.exe
 0003:00000df0       __imp_?MakeWeak@V8@v8@@CAXPEAPEAVObject@internal@2@PEAXP6AXAEBV?$WeakCallbackData@VValue@v8@@X@2@@Z@Z 0000000180055df0     node:node.exe
 0003:00000df8       __imp_?DisposeGlobal@V8@v8@@CAXPEAPEAVObject@internal@2@@Z 0000000180055df8     node:node.exe
 0003:00000e00       __imp_?GlobalizeReference@V8@v8@@CAPEAPEAVObject@internal@2@PEAVIsolate@42@PEAPEAV342@@Z 0000000180055e00     node:node.exe
 0003:00000e08       __imp_?NumberValue@Value@v8@@QEBANXZ 0000000180055e08     node:node.exe
 0003:00000e10       __imp_?BooleanValue@Value@v8@@QEBA_NXZ 0000000180055e10     node:node.exe
 0003:00000e18       __imp_?ToInt32@Value@v8@@QEBA?AV?$MaybeLocal@VInt32@v8@@@2@V?$Local@VContext@v8@@@2@@Z 0000000180055e18     node:node.exe
 0003:00000e20       __imp_?Escape@EscapableHandleScope@v8@@AEAAPEAPEAVObject@internal@2@PEAPEAV342@@Z 0000000180055e20     node:node.exe
 0003:00000e28       __imp_??0EscapableHandleScope@v8@@QEAA@PEAVIsolate@1@@Z 0000000180055e28     node:node.exe
 0003:00000e30       __imp_?NewFromUtf8@String@v8@@SA?AV?$MaybeLocal@VString@v8@@@2@PEAVIsolate@2@PEBDW4NewStringType@2@H@Z 0000000180055e30     node:node.exe
 0003:00000e38       __imp_?New@Number@v8@@SA?AV?$Local@VNumber@v8@@@2@PEAVIsolate@2@N@Z 0000000180055e38     node:node.exe
 0003:00000e40       __imp_?Value@Number@v8@@QEBANXZ 0000000180055e40     node:node.exe
 0003:00000e48       __imp_?SlowGetAlignedPointerFromInternalField@Object@v8@@AEAAPEAXH@Z 0000000180055e48     node:node.exe
 0003:00000e50       __imp_?SlowGetInternalField@Object@v8@@AEAA?AV?$Local@VValue@v8@@@2@H@Z 0000000180055e50     node:node.exe
 0003:00000e58       __imp_?New@Object@v8@@SA?AV?$Local@VObject@v8@@@2@PEAVIsolate@2@@Z 0000000180055e58     node:node.exe
 0003:00000e60       __imp_?SetAlignedPointerInInternalField@Object@v8@@QEAAXHPEAX@Z 0000000180055e60     node:node.exe
 0003:00000e68       __imp_?SetInternalField@Object@v8@@QEAAXHV?$Local@VValue@v8@@@2@@Z 0000000180055e68     node:node.exe
 0003:00000e70       __imp_?InternalFieldCount@Object@v8@@QEAAHXZ 0000000180055e70     node:node.exe
 0003:00000e78       __imp_?Set@Object@v8@@QEAA_NV?$Local@VValue@v8@@@2@0@Z 0000000180055e78     node:node.exe
 0003:00000e80       __imp_?Set@Object@v8@@QEAA_NIV?$Local@VValue@v8@@@2@@Z 0000000180055e80     node:node.exe
 0003:00000e88       __imp_?Set@Object@v8@@QEAA?AV?$Maybe@_N@2@V?$Local@VContext@v8@@@2@IV?$Local@VValue@v8@@@2@@Z 0000000180055e88     node:node.exe
 0003:00000e90       __imp_?SetName@Function@v8@@QEAAXV?$Local@VString@v8@@@2@@Z 0000000180055e90     node:node.exe
 0003:00000e98       __imp_?SetInternalFieldCount@ObjectTemplate@v8@@QEAAXH@Z 0000000180055e98     node:node.exe
 0003:00000ea0       __imp_?NewInstance@ObjectTemplate@v8@@QEAA?AV?$MaybeLocal@VObject@v8@@@2@V?$Local@VContext@v8@@@2@@Z 0000000180055ea0     node:node.exe
 0003:00000ea8       __imp_?New@ObjectTemplate@v8@@SA?AV?$Local@VObjectTemplate@v8@@@2@PEAVIsolate@2@V?$Local@VFunctionTemplate@v8@@@2@@Z 0000000180055ea8     node:node.exe
 0003:00000eb0       __imp_?Data@Buffer@node@@YAPEADV?$Local@VObject@v8@@@v8@@@Z 0000000180055eb0     node:node.exe
 0003:00000eb8       __imp_?Copy@Buffer@node@@YA?AV?$MaybeLocal@VObject@v8@@@v8@@PEAVIsolate@4@PEBD_K@Z 0000000180055eb8     node:node.exe
 0003:00000ec0       __imp_uv_default_loop      0000000180055ec0     node:node.exe
 0003:00000ec8       __imp_??1EscapableHandleScope@v8@@QEAA@XZ 0000000180055ec8     node:node.exe
 0003:00000ed0       __imp_?Global@Context@v8@@QEAA?AV?$Local@VObject@v8@@@2@XZ 0000000180055ed0     node:node.exe
 0003:00000ed8       __imp_?Error@Exception@v8@@SA?AV?$Local@VValue@v8@@@2@V?$Local@VString@v8@@@2@@Z 0000000180055ed8     node:node.exe
 0003:00000ee0       __imp_?Get@Object@v8@@QEAA?AV?$Local@VValue@v8@@@2@I@Z 0000000180055ee0     node:node.exe
 0003:00000ee8       __imp_?MakeCallback@node@@YA?AV?$Local@VValue@v8@@@v8@@PEAVIsolate@3@V?$Local@VObject@v8@@@3@V?$Local@VFunction@v8@@@3@HPEAV23@@Z 0000000180055ee8     node:node.exe
 0003:00000ef0       \177node_NULL_THUNK_DATA_DLA 0000000180055ef0     node:node.exe
 0003:00000f00       __hmod__node_exe           0000000180055f00     node:node.exe
 0003:00000f50       __scrt_current_native_startup_state 0000000180055f50     LIBCMT:utility.obj
 0003:00000f58       __scrt_native_startup_lock 0000000180055f58     LIBCMT:utility.obj
 0003:00001510       __scrt_debugger_hook_flag  0000000180056510     LIBCMT:utility_desktop.obj
 0003:00001514       _tls_index                 0000000180056514     LIBCMT:tlssup.obj
 0003:00001518       __favor                    0000000180056518     LIBCMT:_cpu_disp_.obj
 0003:00001520       ?__type_info_root_node@@3U__type_info_node@@A 0000000180056520     LIBCMT:tncleanup.obj
 0003:00001530       ?_OptionsStorage@?1??__local_stdio_scanf_options@@9@4_KA 0000000180056530     LIBCMT:default_local_stdio_options.obj
 0003:00001538       ?g_OutOfMemoryExceptionCallback@@3P6APEAXXZEA 0000000180056538     libvcruntime:frame.obj
 0003:00001628       __pPurecall                0000000180056628     libvcruntime:purevirt_data.obj
 0003:00001660       ?pArgList@UnDecorator@@0PEAVReplicator@@EA 0000000180056660     libvcruntime:undname.obj
 0003:00001668       ?pZNameList@UnDecorator@@0PEAVReplicator@@EA 0000000180056668     libvcruntime:undname.obj
 0003:00001670       ?pTemplateArgList@UnDecorator@@0PEAVReplicator@@EA 0000000180056670     libvcruntime:undname.obj
 0003:00001678       ?gName@UnDecorator@@0PEBDEB 0000000180056678     libvcruntime:undname.obj
 0003:00001680       ?name@UnDecorator@@0PEBDEB 0000000180056680     libvcruntime:undname.obj
 0003:00001688       ?outputString@UnDecorator@@0PEADEA 0000000180056688     libvcruntime:undname.obj
 0003:00001690       ?maxStringLength@UnDecorator@@0HA 0000000180056690     libvcruntime:undname.obj
 0003:00001694       ?disableFlags@UnDecorator@@0KA 0000000180056694     libvcruntime:undname.obj
 0003:00001698       ?fExplicitTemplateParams@UnDecorator@@0_NA 0000000180056698     libvcruntime:undname.obj
 0003:00001699       ?fGetTemplateArgumentList@UnDecorator@@0_NA 0000000180056699     libvcruntime:undname.obj
 0003:000016a0       ?m_pGetParameter@UnDecorator@@0P6APEADJ@ZEA 00000001800566a0     libvcruntime:undname.obj
 0003:000016d0       _nstream                   00000001800566d0     libucrt:_file.obj
 0003:000016d8       __piob                     00000001800566d8     libucrt:_file.obj
 0003:000016e0       _cflush                    00000001800566e0     libucrt:_file.obj
 0003:00001818       _environ_table             0000000180056818     libucrt:environment_initialization.obj
 0003:00001820       _wenviron_table            0000000180056820     libucrt:environment_initialization.obj
 0003:00001828       __dcrt_initial_wide_environment 0000000180056828     libucrt:environment_initialization.obj
 0003:00001830       __dcrt_initial_narrow_environment 0000000180056830     libucrt:environment_initialization.obj
 0003:00001838       __acrt_atexit_table        0000000180056838     libucrt:onexit.obj
 0003:00001850       __acrt_at_quick_exit_table 0000000180056850     libucrt:onexit.obj
 0003:00001a20       __pioinfo                  0000000180056a20     libucrt:ioinit.obj
 0003:00001e20       _nhandle                   0000000180056e20     libucrt:ioinit.obj
 0003:00001e30       __acrt_stdout_buffer       0000000180056e30     libucrt:_sftbuf.obj
 0003:00001e38       __acrt_stderr_buffer       0000000180056e38     libucrt:_sftbuf.obj
 0003:00001e40       __acrt_locale_changed_data 0000000180056e40     libucrt:wsetlocale.obj
 0003:00001e48       __acrt_current_locale_data 0000000180056e48     libucrt:nlsdata.obj
 0003:0000208c       __mbcodepage               000000018005708c     libucrt:mbctype.obj
 0003:00002090       __ismbcodepage             0000000180057090     libucrt:mbctype.obj
 0003:00002098       __mbulinfo                 0000000180057098     libucrt:mbctype.obj
 0003:000020a8       __mblocalename             00000001800570a8     libucrt:mbctype.obj
 0003:000020b4       __argc                     00000001800570b4     libucrt:argv_data.obj
 0003:000020b8       __argv                     00000001800570b8     libucrt:argv_data.obj
 0003:000020c0       __wargv                    00000001800570c0     libucrt:argv_data.obj
 0003:000020c8       _acmdln                    00000001800570c8     libucrt:argv_data.obj
 0003:000020d0       _wcmdln                    00000001800570d0     libucrt:argv_data.obj
 0003:000020d8       _pgmptr                    00000001800570d8     libucrt:argv_data.obj
 0003:000020e0       __acrt_heap                00000001800570e0     libucrt:heap_handle.obj
 0003:000020f4       _commode                   00000001800570f4     libucrt:ncommode.obj
 0003:000020f8       __acrt_lconv_static_null   00000001800570f8     libucrt:localeconv.obj
 0003:000020fc       __acrt_lconv_static_W_null 00000001800570fc     libucrt:localeconv.obj
 0003:00002100       _umaskval                  0000000180057100     libucrt:umask.obj
 0003:00002104       _fmode                     0000000180057104     libucrt:txtmode.obj
 0003:00002108       __fma3_is_available        0000000180057108     libucrt:fma3_available.obj
 0003:0000210c       __use_fma3_lib             000000018005710c     libucrt:fma3_available.obj
 0003:00002110       ?DloadKernel32@@3PEAUHINSTANCE__@@EA 0000000180057110     DelayImp:delayhlp.obj
 0003:00002118       ?DloadAcquireSRWLockExclusive@@3P6AXPEA_K@ZEA 0000000180057118     DelayImp:delayhlp.obj
 0003:00002120       ?DloadReleaseSRWLockExclusive@@3P6AXPEA_K@ZEA 0000000180057120     DelayImp:delayhlp.obj
 0003:00002128       ?DloadSrwLock@@3_KA        0000000180057128     DelayImp:delayhlp.obj
 0003:00002130       ?DloadSectionLockCount@@3KA 0000000180057130     DelayImp:delayhlp.obj
 0003:00002134       ?DloadSectionOldProtection@@3KA 0000000180057134     DelayImp:delayhlp.obj
 0003:00002138       ?DloadSectionCommitPermanent@@3KA 0000000180057138     DelayImp:delayhlp.obj
 0003:00002140       __pfnDliFailureHook2       0000000180057140     DelayImp:delayhk1.obj
 0003:00002148       ?mode@?1??_exception_mode@cimg@cimg_library@@YAAEAII_N@Z@4IA 0000000180057148     image.obj
 0003:0000214c       ?$TSS0@?1??Mutex_attr@cimg@cimg_library@@YAAEAUMutex_info@23@XZ@4HA 000000018005714c     image.obj
 0003:00002150       ?$TSS0@?1??output@cimg@cimg_library@@YAPEAU_iobuf@@PEAU4@@Z@4HA 0000000180057150     image.obj
 0003:00002158       ?s_path@?1??temporary_path@cimg@cimg_library@@YAPEBDQEBD_N@Z@4U?$CImg@D@3@A 0000000180057158     image.obj
 0003:00002180       ?val@?1??Mutex_attr@cimg@cimg_library@@YAAEAUMutex_info@23@XZ@4U423@A 0000000180057180     image.obj
 0003:00002280       ?$TSS0@?1??medcon_path@cimg@cimg_library@@YAPEBDQEBD_N@Z@4HA 0000000180057280     image.obj
 0003:00002284       ?$TSS0@?1??imagemagick_path@cimg@cimg_library@@YAPEBDQEBD_N@Z@4HA 0000000180057284     image.obj
 0003:00002288       ?_OptionsStorage@?1??__local_stdio_printf_options@@9@4_KA 0000000180057288     image.obj
 0003:00002290       ?s_path@?1??graphicsmagick_path@cimg@cimg_library@@YAPEBDQEBD_N@Z@4U?$CImg@D@3@A 0000000180057290     image.obj
 0003:000022b0       ?randomid@?1??filenamerand@cimg@cimg_library@@YAPEBDXZ@4PADA 00000001800572b0     image.obj
 0003:000022bc       ?$TSS0@?1??temporary_path@cimg@cimg_library@@YAPEBDQEBD_N@Z@4HA 00000001800572bc     image.obj
 0003:000022c0       ?$TSS0@?1??graphicsmagick_path@cimg@cimg_library@@YAPEBDQEBD_N@Z@4HA 00000001800572c0     image.obj
 0003:000022c8       ?res@?1??strbuffersize@cimg@cimg_library@@YAPEBDK@Z@4U?$CImg@D@3@A 00000001800572c8     image.obj
 0003:000022e8       ?$TSS0@?1??strbuffersize@cimg@cimg_library@@YAPEBDK@Z@4HA 00000001800572e8     image.obj
 0003:000022f0       ?s_path@?1??imagemagick_path@cimg@cimg_library@@YAPEBDQEBD_N@Z@4U?$CImg@D@3@A 00000001800572f0     image.obj
 0003:00002310       ?$TSS0@?1??programfiles_path@cimg@cimg_library@@YAPEBDQEBD_N@Z@4HA 0000000180057310     image.obj
 0003:00002318       ?s_path@?1??programfiles_path@cimg@cimg_library@@YAPEBDQEBD_N@Z@4U?$CImg@D@3@A 0000000180057318     image.obj
 0003:00002338       ?s_path@?1??medcon_path@cimg@cimg_library@@YAPEBDQEBD_N@Z@4U?$CImg@D@3@A 0000000180057338     image.obj
 0003:00002358       ?res@?1??output@cimg@cimg_library@@YAPEAU_iobuf@@PEAU4@@Z@4PEAU4@EA 0000000180057358     image.obj
 0003:00002360       ?constructor@LwipImage@@0V?$Persistent@VFunctionTemplate@v8@@V?$NonCopyablePersistentTraits@VFunctionTemplate@v8@@@2@@Nan@@A 0000000180057360     image.obj
 0003:00002368       __dyn_tls_init_callback    0000000180057368     <common>
 0003:00002370       __scrt_ucrt_dll_is_in_use  0000000180057370     <common>
 0006:00000000       _tls_start                 000000018005c000     LIBCMT:tlssup.obj
 0006:00000004       _Init_thread_epoch         000000018005c004     LIBCMT:thread_safe_statics.obj
 0006:00000008       _tls_end                   000000018005c008     LIBCMT:tlssup.obj

 entry point at        0001:00013174

 Static symbols

 0000:fffa1000       .debug$S                   0000000180000000     kernel32:KERNEL32.dll
 0000:fffa1000       .debug$S                   0000000180000000     lwip_image.exp
 0000:fffa1000       .debug$S                   0000000180000000     kernel32:KERNEL32.dll
 0000:fffa1000       .debug$S                   0000000180000000     kernel32:KERNEL32.dll
 0000:fffa1000       .debug$S                   0000000180000000     kernel32:KERNEL32.dll
 0000:fffa1000       .debug$S                   0000000180000000     kernel32:KERNEL32.dll
 0000:fffa1000       .debug$S                   0000000180000000     kernel32:KERNEL32.dll
 0000:fffa1000       .debug$S                   0000000180000000     kernel32:KERNEL32.dll
 0000:fffa1000       .debug$S                   0000000180000000     kernel32:KERNEL32.dll
 0000:fffa1000       .debug$S                   0000000180000000     kernel32:KERNEL32.dll
 0000:fffa1000       .debug$S                   0000000180000000     kernel32:KERNEL32.dll
 0000:fffa1000       .debug$S                   0000000180000000     kernel32:KERNEL32.dll
 0000:fffa1000       .debug$S                   0000000180000000     kernel32:KERNEL32.dll
 0000:fffa1000       .debug$S                   0000000180000000     kernel32:KERNEL32.dll
 0000:fffa1000       .debug$S                   0000000180000000     kernel32:KERNEL32.dll
 0000:fffa1000       .debug$S                   0000000180000000     kernel32:KERNEL32.dll
 0000:fffa1000       .debug$S                   0000000180000000     kernel32:KERNEL32.dll
 0000:fffa1000       .debug$S                   0000000180000000     kernel32:KERNEL32.dll
 0000:fffa1000       .debug$S                   0000000180000000     kernel32:KERNEL32.dll
 0000:fffa1000       .debug$S                   0000000180000000     kernel32:KERNEL32.dll
 0000:fffa1000       .debug$S                   0000000180000000     kernel32:KERNEL32.dll
 0000:fffa1000       .debug$S                   0000000180000000     kernel32:KERNEL32.dll
 0000:fffa1000       .debug$S                   0000000180000000     kernel32:KERNEL32.dll
 0000:fffa1000       .debug$S                   0000000180000000     kernel32:KERNEL32.dll
 0000:fffa1000       .debug$S                   0000000180000000     kernel32:KERNEL32.dll
 0000:fffa1000       .debug$S                   0000000180000000     kernel32:KERNEL32.dll
 0000:fffa1000       .debug$S                   0000000180000000     kernel32:KERNEL32.dll
 0000:fffa1000       .debug$S                   0000000180000000     kernel32:KERNEL32.dll
 0000:fffa1000       .debug$S                   0000000180000000     kernel32:KERNEL32.dll
 0000:fffa1000       .debug$S                   0000000180000000     kernel32:KERNEL32.dll
 0000:fffa1000       .debug$S                   0000000180000000     kernel32:KERNEL32.dll
 0000:fffa1000       .debug$S                   0000000180000000     kernel32:KERNEL32.dll
 0000:fffa1000       .debug$S                   0000000180000000     kernel32:KERNEL32.dll
 0000:fffa1000       .debug$S                   0000000180000000     kernel32:KERNEL32.dll
 0000:fffa1000       .debug$S                   0000000180000000     kernel32:KERNEL32.dll
 0000:fffa1000       .debug$S                   0000000180000000     kernel32:KERNEL32.dll
 0000:fffa1000       .debug$S                   0000000180000000     kernel32:KERNEL32.dll
 0000:fffa1000       .debug$S                   0000000180000000     kernel32:KERNEL32.dll
 0000:fffa1000       .debug$S                   0000000180000000     kernel32:KERNEL32.dll
 0000:fffa1000       .debug$S                   0000000180000000     kernel32:KERNEL32.dll
 0000:fffa1000       .debug$S                   0000000180000000     kernel32:KERNEL32.dll
 0000:fffa1000       .debug$S                   0000000180000000     kernel32:KERNEL32.dll
 0000:fffa1000       .debug$S                   0000000180000000     kernel32:KERNEL32.dll
 0000:fffa1000       .debug$S                   0000000180000000     kernel32:KERNEL32.dll
 0000:fffa1000       .debug$S                   0000000180000000     kernel32:KERNEL32.dll
 0000:fffa1000       .debug$S                   0000000180000000     kernel32:KERNEL32.dll
 0000:fffa1000       .debug$S                   0000000180000000     kernel32:KERNEL32.dll
 0000:fffa1000       .debug$S                   0000000180000000     kernel32:KERNEL32.dll
 0000:fffa1000       .debug$S                   0000000180000000     kernel32:KERNEL32.dll
 0000:fffa1000       .debug$S                   0000000180000000     kernel32:KERNEL32.dll
 0000:fffa1000       .debug$S                   0000000180000000     kernel32:KERNEL32.dll
 0000:fffa1000       .debug$S                   0000000180000000     kernel32:KERNEL32.dll
 0000:fffa1000       .debug$S                   0000000180000000     kernel32:KERNEL32.dll
 0000:fffa1000       .debug$S                   0000000180000000     kernel32:KERNEL32.dll
 0000:fffa1000       .debug$S                   0000000180000000     kernel32:KERNEL32.dll
 0000:fffa1000       .debug$S                   0000000180000000     kernel32:KERNEL32.dll
 0000:fffa1000       .debug$S                   0000000180000000     kernel32:KERNEL32.dll
 0000:fffa1000       .debug$S                   0000000180000000     kernel32:KERNEL32.dll
 0000:fffa1000       .debug$S                   0000000180000000     kernel32:KERNEL32.dll
 0000:fffa1000       .debug$S                   0000000180000000     kernel32:KERNEL32.dll
 0000:fffa1000       .debug$S                   0000000180000000     kernel32:KERNEL32.dll
 0000:fffa1000       .debug$S                   0000000180000000     kernel32:KERNEL32.dll
 0000:fffa1000       .debug$S                   0000000180000000     kernel32:KERNEL32.dll
 0000:fffa1000       .debug$S                   0000000180000000     kernel32:KERNEL32.dll
 0000:fffa1000       .debug$S                   0000000180000000     kernel32:KERNEL32.dll
 0000:fffa1000       .debug$S                   0000000180000000     kernel32:KERNEL32.dll
 0000:fffa1000       .debug$S                   0000000180000000     kernel32:KERNEL32.dll
 0000:fffa1000       .debug$S                   0000000180000000     kernel32:KERNEL32.dll
 0000:fffa1000       .debug$S                   0000000180000000     kernel32:KERNEL32.dll
 0000:fffa1000       .debug$S                   0000000180000000     kernel32:KERNEL32.dll
 0000:fffa1000       .debug$S                   0000000180000000     kernel32:KERNEL32.dll
 0000:fffa1000       .debug$S                   0000000180000000     kernel32:KERNEL32.dll
 0000:fffa1000       .debug$S                   0000000180000000     kernel32:KERNEL32.dll
 0000:fffa1000       .debug$S                   0000000180000000     kernel32:KERNEL32.dll
 0000:fffa1000       .debug$S                   0000000180000000     kernel32:KERNEL32.dll
 0000:fffa1000       .debug$S                   0000000180000000     kernel32:KERNEL32.dll
 0000:fffa1000       .debug$S                   0000000180000000     kernel32:KERNEL32.dll
 0000:fffa1000       .debug$S                   0000000180000000     kernel32:KERNEL32.dll
 0000:fffa1000       .debug$S                   0000000180000000     kernel32:KERNEL32.dll
 0000:fffa1000       .debug$S                   0000000180000000     kernel32:KERNEL32.dll
 0000:fffa1000       .debug$S                   0000000180000000     kernel32:KERNEL32.dll
 0000:fffa1000       .debug$S                   0000000180000000     kernel32:KERNEL32.dll
 0000:fffa1000       .debug$S                   0000000180000000     kernel32:KERNEL32.dll
 0000:fffa1000       .debug$S                   0000000180000000     kernel32:KERNEL32.dll
 0000:fffa1000       .debug$S                   0000000180000000     kernel32:KERNEL32.dll
 0000:fffa1000       .debug$S                   0000000180000000     kernel32:KERNEL32.dll
 0000:fffa1000       .debug$S                   0000000180000000     kernel32:KERNEL32.dll
 0000:fffa1000       .debug$S                   0000000180000000     kernel32:KERNEL32.dll
 0000:fffa1000       .debug$S                   0000000180000000     kernel32:KERNEL32.dll
 0000:fffa1000       .debug$S                   0000000180000000     kernel32:KERNEL32.dll
 0000:fffa1000       .debug$S                   0000000180000000     kernel32:KERNEL32.dll
 0000:fffa1000       .debug$S                   0000000180000000     kernel32:KERNEL32.dll
 0000:fffa1000       .debug$S                   0000000180000000     kernel32:KERNEL32.dll
 0000:fffa1000       .debug$S                   0000000180000000     kernel32:KERNEL32.dll
 0000:fffa1000       .debug$S                   0000000180000000     kernel32:KERNEL32.dll
 0000:fffa1000       .debug$S                   0000000180000000     kernel32:KERNEL32.dll
 0000:fffa1000       .debug$S                   0000000180000000     kernel32:KERNEL32.dll
 0000:fffa1000       .debug$S                   0000000180000000     kernel32:KERNEL32.dll
 0000:fffa1000       .debug$S                   0000000180000000     kernel32:KERNEL32.dll
 0000:fffa1000       .debug$S                   0000000180000000     kernel32:KERNEL32.dll
 0000:fffa1000       .debug$S                   0000000180000000     kernel32:KERNEL32.dll
 0000:fffa1000       .debug$S                   0000000180000000     kernel32:KERNEL32.dll
 0000:fffa1000       .debug$S                   0000000180000000     kernel32:KERNEL32.dll
 0000:fffa1000       .debug$S                   0000000180000000     kernel32:KERNEL32.dll
 0000:fffa1000       .debug$S                   0000000180000000     kernel32:KERNEL32.dll
 0000:fffa1000       .debug$S                   0000000180000000     advapi32:ADVAPI32.dll
 0000:fffa1000       .debug$S                   0000000180000000     shell32:SHELL32.dll
 0000:fffa1000       .debug$S                   0000000180000000     node:node.exe
 0000:fffa1000       .debug$S                   0000000180000000     node:node.exe
 0000:fffa1000       .debug$S                   0000000180000000     node:node.exe
 0000:fffa1000       .debug$S                   0000000180000000     node:node.exe
 0000:fffa1000       .debug$S                   0000000180000000     node:node.exe
 0000:fffa1000       .debug$S                   0000000180000000     node:node.exe
 0000:fffa1000       .debug$S                   0000000180000000     node:node.exe
 0000:fffa1000       .debug$S                   0000000180000000     node:node.exe
 0000:fffa1000       .debug$S                   0000000180000000     node:node.exe
 0000:fffa1000       .debug$S                   0000000180000000     node:node.exe
 0000:fffa1000       .debug$S                   0000000180000000     node:node.exe
 0000:fffa1000       .debug$S                   0000000180000000     node:node.exe
 0000:fffa1000       .debug$S                   0000000180000000     node:node.exe
 0000:fffa1000       .debug$S                   0000000180000000     node:node.exe
 0000:fffa1000       .debug$S                   0000000180000000     node:node.exe
 0000:fffa1000       .debug$S                   0000000180000000     node:node.exe
 0000:fffa1000       .debug$S                   0000000180000000     node:node.exe
 0000:fffa1000       .debug$S                   0000000180000000     node:node.exe
 0000:fffa1000       .debug$S                   0000000180000000     node:node.exe
 0000:fffa1000       .debug$S                   0000000180000000     node:node.exe
 0000:fffa1000       .debug$S                   0000000180000000     node:node.exe
 0000:fffa1000       .debug$S                   0000000180000000     node:node.exe
 0000:fffa1000       .debug$S                   0000000180000000     node:node.exe
 0000:fffa1000       .debug$S                   0000000180000000     node:node.exe
 0000:fffa1000       .debug$S                   0000000180000000     node:node.exe
 0000:fffa1000       .debug$S                   0000000180000000     node:node.exe
 0000:fffa1000       .debug$S                   0000000180000000     node:node.exe
 0000:fffa1000       .debug$S                   0000000180000000     node:node.exe
 0000:fffa1000       .debug$S                   0000000180000000     node:node.exe
 0000:fffa1000       .debug$S                   0000000180000000     node:node.exe
 0000:fffa1000       .debug$S                   0000000180000000     node:node.exe
 0000:fffa1000       .debug$S                   0000000180000000     node:node.exe
 0000:fffa1000       .debug$S                   0000000180000000     node:node.exe
 0000:fffa1000       .debug$S                   0000000180000000     node:node.exe
 0000:fffa1000       .debug$S                   0000000180000000     node:node.exe
 0000:fffa1000       .debug$S                   0000000180000000     node:node.exe
 0000:fffa1000       .debug$S                   0000000180000000     node:node.exe
 0000:fffa1000       .debug$S                   0000000180000000     node:node.exe
 0000:fffa1000       .debug$S                   0000000180000000     node:node.exe
 0000:fffa1000       .debug$S                   0000000180000000     node:node.exe
 0000:fffa1000       .debug$S                   0000000180000000     node:node.exe
 0000:fffa1000       .debug$S                   0000000180000000     node:node.exe
 0000:fffa1000       .debug$S                   0000000180000000     node:node.exe
 0000:fffa1000       .debug$S                   0000000180000000     node:node.exe
 0000:fffa1000       .debug$S                   0000000180000000     node:node.exe
 0000:fffa1000       .debug$S                   0000000180000000     node:node.exe
 0000:fffa1000       .debug$S                   0000000180000000     node:node.exe
 0000:fffa1000       .debug$S                   0000000180000000     node:node.exe
 0000:fffa1000       .debug$S                   0000000180000000     node:node.exe
 0000:fffa1000       .debug$S                   0000000180000000     node:node.exe
 0000:fffa1000       .debug$S                   0000000180000000     node:node.exe
 0000:fffa1000       .debug$S                   0000000180000000     node:node.exe
 0000:fffa1000       .debug$S                   0000000180000000     node:node.exe
 0000:fffa1000       .debug$S                   0000000180000000     node:node.exe
 0000:fffa1000       .debug$S                   0000000180000000     node:node.exe
 0000:fffa1000       .debug$S                   0000000180000000     node:node.exe
 0000:fffa1000       .debug$S                   0000000180000000     node:node.exe
 0000:fffa1000       .debug$S                   0000000180000000     node:node.exe
 0000:fffa1000       .debug$S                   0000000180000000     node:node.exe
 0000:fffa1000       .debug$S                   0000000180000000     node:node.exe
 0000:fffa1000       .debug$S                   0000000180000000     node:node.exe
 0000:fffa1000       .debug$S                   0000000180000000     node:node.exe
 0000:fffa1000       .debug$S                   0000000180000000     node:node.exe
 0001:000001e0       ??__E?constructor@LwipImage@@0V?$Persistent@VFunctionTemplate@v8@@V?$NonCopyablePersistentTraits@VFunctionTemplate@v8@@@2@@Nan@@A@@YAXXZ 00000001800011e0 f   image.obj
 0001:00000210       _register_lwip_image       0000000180001210 f   init.obj
 0001:000006c0       ?FunctionCallbackWrapper@imp@Nan@@YAXAEBV?$FunctionCallbackInfo@VValue@v8@@@v8@@@Z 00000001800016c0 f   image.obj
 0001:0000cdd4       $LN2521                    000000018000ddd4     resize_worker.obj
 0001:00012030       load_exe_hook              0000000180013030 f   win_delay_load_hook.obj
 0001:00012640       $$000000                   0000000180013640     LIBCMT:_amdsecgs_.obj
 0001:0001267c       ?__scrt_initialize_thread_safe_statics@@YAHXZ 000000018001367c f   LIBCMT:thread_safe_statics.obj
 0001:0001279c       ?__scrt_uninitialize_thread_safe_statics@@YAXXZ 000000018001379c f   LIBCMT:thread_safe_statics.obj
 0001:00012e04       ?dllmain_crt_dispatch@@YAHQEAUHINSTANCE__@@KQEAX@Z 0000000180013e04 f   LIBCMT:dll_dllmain.obj
 0001:00012e54       ?dllmain_crt_process_attach@@YAHQEAUHINSTANCE__@@QEAX@Z 0000000180013e54 f   LIBCMT:dll_dllmain.obj
 0001:00012f80       ?dllmain_crt_process_detach@@YAH_N@Z 0000000180013f80 f   LIBCMT:dll_dllmain.obj
 0001:00013004       ?dllmain_dispatch@@YAHQEAUHINSTANCE__@@KQEAX@Z 0000000180014004 f   LIBCMT:dll_dllmain.obj
 0001:00013120       ?dllmain_raw@@YAHQEAUHINSTANCE__@@KQEAX@Z 0000000180014120 f   LIBCMT:dll_dllmain.obj
 0001:0001336c       capture_current_context    000000018001436c f   LIBCMT:gs_report.obj
 0001:000133dc       capture_previous_context   00000001800143dc f   LIBCMT:gs_report.obj
 0001:00013a8c       ?CatchIt@@YAXPEAUEHExceptionRecord@@PEA_KPEAU_CONTEXT@@PEAU_xDISPATCHER_CONTEXT@@PEBU_s_FuncInfo@@PEBU_s_HandlerType@@PEBU_s_CatchableType@@PEBU_s_TryBlockMapEntry@@H1EE@Z 0000000180014a8c f   libvcruntime:frame.obj
 0001:00013b50       ?ExFilterRethrow@@YAHPEAU_EXCEPTION_POINTERS@@PEAUEHExceptionRecord@@PEAH@Z 0000000180014b50 f   libvcruntime:frame.obj
 0001:00013bd8       ?FindHandler@@YAXPEAUEHExceptionRecord@@PEA_KPEAU_CONTEXT@@PEAU_xDISPATCHER_CONTEXT@@PEBU_s_FuncInfo@@EH1@Z 0000000180014bd8 f   libvcruntime:frame.obj
 0001:0001408c       ?FindHandlerForForeignException@@YAXPEAUEHExceptionRecord@@PEA_KPEAU_CONTEXT@@PEAU_xDISPATCHER_CONTEXT@@PEBU_s_FuncInfo@@HH1@Z 000000018001508c f   libvcruntime:frame.obj
 0001:000142f8       ?IsInExceptionSpec@@YAEPEAUEHExceptionRecord@@PEBU_s_ESTypeList@@@Z 00000001800152f8 f   libvcruntime:frame.obj
 0001:00014e30       $$000000                   0000000180015e30     libvcruntime:memcpy.obj
 0001:00014ed7       MoveSmall                  0000000180015ed7     libvcruntime:memcpy.obj
 0001:00015640       ?try_get_function@@YAPEAXW4function_id@?A0x49c8dc86@@QEBDQEBW4module_id@2@2@Z 0000000180016640 f   libvcruntime:winapi_downlevel.obj
 0001:00015cec       _TlgDefineProvider_annotation__Tlg_Microsoft_CRTProviderProv 0000000180016cec f   libvcruntime:telemetry.obj
 0001:00015f60       $$000000                   0000000180016f60     libvcruntime:memset.obj
 0001:0001604c       MsetTab                    000000018001704c     libvcruntime:memset.obj
 0001:00016420       $$000000                   0000000180017420     libvcruntime:handlers.obj
 0001:00016ab0       $$000000                   0000000180017ab0     libvcruntime:_jmpuwind_.obj
 0001:00016c0c       ??$common_fsopen@D@@YAPEAU_iobuf@@QEBD0H@Z 0000000180017c0c f   libucrt:fopen.obj
 0001:00017054       ??$common_vsprintf@Vformat_validation_base@__crt_stdio_output@@D@@YAH_KQEAD0QEBDQEAU__crt_locale_pointers@@1@Z 0000000180018054 f   libucrt:output.obj
 0001:000177c0       ??R<lambda_0a64b6a4deda75c01876f29c44fc5eb3>@@QEBAHXZ 00000001800187c0 f   libucrt:output.obj
 0001:000178b0       ??R<lambda_dd75445284c072d0bd3768540cc698fa>@@QEBAHXZ 00000001800188b0 f   libucrt:output.obj
 0001:0001b220       $$000000                   000000018001c220     libucrt:strncpy.obj
 0001:0001b394       ??$common_assert_to_message_box@_W@@YAXQEB_W0IQEAX@Z 000000018001c394 f   libucrt:assert.obj
 0001:0001b458       ??$common_assert_to_message_box_build_string@_W@@YAXQEA_W_KQEB_W2IQEAX@Z 000000018001c458 f   libucrt:assert.obj
 0001:0001bc2c       ??$common_assert_to_stderr@_W@@YAXQEB_W0I@Z 000000018001cc2c f   libucrt:assert.obj
 0001:0001bd9c       ?get_assert_format@@YAPEB_W_W@Z 000000018001cd9c f   libucrt:assert.obj
 0001:0001bec0       ??$common_getenv@D@@YAPEADQEBD@Z 000000018001cec0 f   libucrt:getenv.obj
 0001:0001bf2c       ??$common_getenv_nolock@D@@YAPEADQEBD@Z 000000018001cf2c f   libucrt:getenv.obj
 0001:0001c5e8       ?atexit_exception_filter@@YAHK@Z 000000018001d5e8 f   libucrt:exit.obj
 0001:0001c5f4       ?common_exit@@YAXHW4_crt_exit_cleanup_mode@@W4_crt_exit_return_mode@@@Z 000000018001d5f4 f   libucrt:exit.obj
 0001:0001c760       ?exit_or_terminate_process@@YAXI@Z 000000018001d760 f   libucrt:exit.obj
 0001:0001c7ac       ?try_cor_exit_process@@YAXI@Z 000000018001d7ac f   libucrt:exit.obj
 0001:0001c844       ??$parse_command_line@D@@YAXPEADPEAPEAD0PEA_K2@Z 000000018001d844 f   libucrt:argv_parsing.obj
 0001:0001cbdc       ??$common_get_or_create_environment_nolock@D@@YAPEAPEADXZ 000000018001dbdc f   libucrt:environment_initialization.obj
 0001:0001cc24       ??$common_initialize_environment_nolock@D@@YAHXZ 000000018001dc24 f   libucrt:environment_initialization.obj
 0001:0001cc90       ??$create_environment@D@@YAQEAPEADQEAD@Z 000000018001dc90 f   libucrt:environment_initialization.obj
 0001:0001cd8c       ??$free_environment@_W@@YAXQEAPEA_W@Z 000000018001dd8c f   libucrt:environment_initialization.obj
 0001:0001cd8c       ??$free_environment@D@@YAXQEAPEAD@Z 000000018001dd8c f   libucrt:environment_initialization.obj
 0001:0001cdd0       ??$initialize_environment_by_cloning_nolock@D@@YAHXZ 000000018001ddd0 f   libucrt:environment_initialization.obj
 0001:0001cea4       ??$uninitialize_environment_internal@D@@YAXAEAPEAPEAD@Z 000000018001dea4 f   libucrt:environment_initialization.obj
 0001:0001cec0       ??$uninitialize_environment_internal@_W@@YAXAEAPEAPEA_W@Z 000000018001dec0 f   libucrt:environment_initialization.obj
 0001:0001d100       ??R<lambda_4e60a939b0d047cfe11ddc22648dfba9>@@QEBAHXZ 000000018001e100 f   libucrt:onexit.obj
 0001:0001d3b0       initialize_global_variables 000000018001e3b0 f   libucrt:initialization.obj
 0001:0001d3c4       initialize_c               000000018001e3c4 f   libucrt:initialization.obj
 0001:0001d3e8       uninitialize_environment   000000018001e3e8 f   libucrt:initialization.obj
 0001:0001d3f8       uninitialize_c             000000018001e3f8 f   libucrt:initialization.obj
 0001:0001d3f8       report_memory_leaks        000000018001e3f8 f   libucrt:initialization.obj
 0001:0001d3f8       initialize_environment     000000018001e3f8 f   libucrt:initialization.obj
 0001:0001d3f8       initialize_global_state_isolation 000000018001e3f8 f   libucrt:initialization.obj
 0001:0001d3f8       uninitialize_global_state_isolation 000000018001e3f8 f   libucrt:initialization.obj
 0001:0001d3fc       initialize_pointers        000000018001e3fc f   libucrt:initialization.obj
 0001:0001d450       uninitialize_vcruntime     000000018001e450 f   libucrt:initialization.obj
 0001:0001d458       uninitialize_allocated_memory 000000018001e458 f   libucrt:initialization.obj
 0001:0001e31c       ?construct_ptd_array@@YAXQEAU__acrt_ptd@@@Z 000000018001f31c f   libucrt:per_thread_data.obj
 0001:0001e3ec       ?destroy_fls@@YAXPEAX@Z    000000018001f3ec f   libucrt:per_thread_data.obj
 0001:0001e40c       ?destroy_ptd_array@@YAXQEAU__acrt_ptd@@@Z 000000018001f40c f   libucrt:per_thread_data.obj
 0001:0001e504       ?replace_current_thread_locale_nolock@@YAXQEAU__acrt_ptd@@QEAU__crt_locale_data@@@Z 000000018001f504 f   libucrt:per_thread_data.obj
 0001:0001e8bc       ?find_or_allocate_unused_stream_nolock@@YA?AV__crt_stdio_stream@@XZ 000000018001f8bc f   libucrt:stream.obj
 0001:0001ece0       ?try_get_function@@YAPEAXW4function_id@?A0x63058377@@QEBDQEBW4module_id@2@2@Z 000000018001fce0 f   libucrt:winapi_thunks.obj
 0001:0001f7cc       common_flush_all           00000001800207cc f   libucrt:fflush.obj
 0001:0001f934       ?initialize_inherited_file_handles_nolock@@YAXXZ 0000000180020934 f   libucrt:ioinit.obj
 0001:0001fa20       ?initialize_stdio_handles_nolock@@YAXXZ 0000000180020a20 f   libucrt:ioinit.obj
 0001:0001ff28       ?internal_isupper_l@@YA_NHQEAU__crt_locale_pointers@@@Z 0000000180020f28 f   libucrt:tolower_toupper.obj
 0001:0002085c       ?fp_format_a@@YAHQEBNPEAD_KQEAD2H_NIQEAU__crt_locale_pointers@@@Z 000000018002185c f   libucrt:cvt.obj
 0001:00020bbc       ?fp_format_e@@YAHQEBNQEAD_K12H_NIQEAU__crt_locale_pointers@@@Z 0000000180021bbc f   libucrt:cvt.obj
 0001:00020c8c       ?fp_format_e_internal@@YAHQEAD_KH_NIQEAU_strflt@@2QEAU__crt_locale_pointers@@@Z 0000000180021c8c f   libucrt:cvt.obj
 0001:00020e68       ?fp_format_f_internal@@YAHQEAD_KHQEAU_strflt@@_NQEAU__crt_locale_pointers@@@Z 0000000180021e68 f   libucrt:cvt.obj
 0001:00020fb0       ?fp_format_g@@YAHQEBNQEAD_K12H_NIQEAU__crt_locale_pointers@@@Z 0000000180021fb0 f   libucrt:cvt.obj
 0001:000210e8       ?fp_format_nan_or_infinity@@YAHW4__acrt_fp_class@@_NPEAD_K1@Z 00000001800220e8 f   libucrt:cvt.obj
 0001:00021784       ??$common_xtox@K_W@@YAHKQEA_W_KI_N@Z 0000000180022784 f   libucrt:xtoa.obj
 0001:00021830       ??$common_xtox_s@K_W@@YAHKQEA_W_KI_N@Z 0000000180022830 f   libucrt:xtoa.obj
 0001:00021af4       ??$message_box_wait_thread@_W@@YAKQEAX@Z 0000000180022af4 f   libucrt:crtmbox.obj
 0001:00021c78       ??R<lambda_b721fa326cdb32351d23dfa67958c160>@@QEBAHXZ 0000000180022c78 f   libucrt:setvbuf.obj
 0001:0002230c       ?<helper_func_cdecl>@<lambda_2feae5270eb4d0d5532525f423405775>@@CAHPEBX0@Z 000000018002330c f   libucrt:argv_wildcards.obj
 0001:00022320       ??$common_expand_argv_wildcards@D@@YAHQEAPEADQEAPEAPEAD@Z 0000000180023320 f   libucrt:argv_wildcards.obj
 0001:0002252c       ??$copy_and_add_argument_to_buffer@D@@YAHQEBD0_KAEAV?$argument_list@D@?A0xca0879c4@@@Z 000000018002352c f   libucrt:argv_wildcards.obj
 0001:0002263c       ??$expand_argument_wildcards@D@@YAHQEAD0AEAV?$argument_list@D@?A0xca0879c4@@@Z 000000018002363c f   libucrt:argv_wildcards.obj
 0001:000228f0       ??R<lambda_ad1ced32f4ac17aa236e5ef05d6b3b7c>@@QEBAXXZ 00000001800238f0 f   libucrt:mbctype.obj
 0001:00022b08       ?getSystemCP@@YAHH@Z       0000000180023b08 f   libucrt:mbctype.obj
 0001:00022b88       ?setSBCS@@YAXPEAU__crt_multibyte_data@@@Z 0000000180023b88 f   libucrt:mbctype.obj
 0001:00022c18       ?setSBUpLow@@YAXPEAU__crt_multibyte_data@@@Z 0000000180023c18 f   libucrt:mbctype.obj
 0001:00022dfc       ?setmbcp_internal@@YAHH_N@Z 0000000180023dfc f   libucrt:mbctype.obj
 0001:00023344       ?x_ismbbtype_l@@YAHPEAU__crt_locale_pointers@@IHH@Z 0000000180024344 f   libucrt:ismbbyte.obj
 0001:000234fc       ??$common_set_variable_in_environment_nolock@D@@YAHQEADH@Z 00000001800244fc f   libucrt:setenv.obj
 0001:000237ec       ??$copy_environment@D@@YAPEAPEADQEAPEAD@Z 00000001800247ec f   libucrt:setenv.obj
 0001:000240c0       $$000000                   00000001800250c0     libucrt:strncmp.obj
 0001:000242c4       ??$common_sopen_dispatch@D@@YAHQEBDHHHQEAHH@Z 00000001800252c4 f   libucrt:open.obj
 0001:000243a4       ?configure_text_mode@@YAHHUfile_options@?A0x656cf9f4@@HAEAW4__crt_lowio_text_mode@@@Z 00000001800253a4 f   libucrt:open.obj
 0001:00024638       ?decode_options@@YA?AUfile_options@?A0x656cf9f4@@HHH@Z 0000000180025638 f   libucrt:open.obj
 0001:00024844       ?truncate_ctrl_z_if_present@@YAHH@Z 0000000180025844 f   libucrt:open.obj
 0001:00024dbc       ?GetTableIndexFromLocaleName@@YAHPEB_W@Z 0000000180025dbc f   libucrt:lcidtoname_downlevel.obj
 0001:00024fd8       ?write_double_translated_ansi_nolock@@YA?AUwrite_result@?A0x9c548279@@HQEBDI@Z 0000000180025fd8 f   libucrt:write.obj
 0001:000251e0       ?write_text_ansi_nolock@@YA?AUwrite_result@?A0x9c548279@@HQEBDI@Z 00000001800261e0 f   libucrt:write.obj
 0001:000252e8       ?write_text_utf16le_nolock@@YA?AUwrite_result@?A0x9c548279@@HQEBDI@Z 00000001800262e8 f   libucrt:write.obj
 0001:00025404       ?write_text_utf8_nolock@@YA?AUwrite_result@?A0x9c548279@@HQEBDI@Z 0000000180026404 f   libucrt:write.obj
 0001:00025e94       ?__acrt_LCMapStringA_stat@@YAHPEAU__crt_locale_pointers@@PEB_WKPEBDHPEADHHH@Z 0000000180026e94 f   libucrt:lcmapstringa.obj
 0001:00027b8c       memcpy_s                   0000000180028b8c f   libucrt:cfout.obj
 0001:00027c14       ??$write_buffer_nolock@D@@YA_NDV__crt_stdio_stream@@@Z 0000000180028c14 f   libucrt:_flsbuf.obj
 0001:00027d18       ??$write_buffer_nolock@_W@@YA_N_WV__crt_stdio_stream@@@Z 0000000180028d18 f   libucrt:_flsbuf.obj
 0001:000281d0       ?free_crt_array_internal@@YAXQEAPEBX_K@Z 00000001800291d0 f   libucrt:inittime.obj
 0001:000284e4       ?InternalCompareStringA@@YAHPEAU__crt_locale_pointers@@PEB_WKPEBDH2HH@Z 00000001800294e4 f   libucrt:comparestringa.obj
 0001:00028910       ?shortsort@@YAXPEAD0_KP6AHPEBX2@Z@Z 0000000180029910 f   libucrt:qsort.obj
 0001:00028f28       ?initialize_multibyte@@YAHXZ 0000000180029f28 f   libucrt:multibyte_initializer.obj
 0001:0002928c       ??$translate_text_mode_nolock@_W@@YAHHQEA_W_K@Z 000000018002a28c f   libucrt:read.obj
 0001:000294bc       ?translate_ansi_or_utf8_nolock@@YAHHQEAD_KQEA_W1@Z 000000018002a4bc f   libucrt:read.obj
 0001:00029c24       ??$common_lseek@_J@@YA_JH_JH@Z 000000018002ac24 f   libucrt:lseek.obj
 0001:00029d14       ??$common_lseek_nolock@_J@@YA_JH_JH@Z 000000018002ad14 f   libucrt:lseek.obj
 0001:00029fc0       $$000000                   000000018002afc0     libucrt:log10.obj
 0001:0002a75c       common_control87           000000018002b75c f   libucrt:ieee.obj
 0001:0002a9f4       _call_matherr              000000018002b9f4 f   libucrt:libm_error.obj
 0001:0002aa5c       _exception_enabled         000000018002ba5c f   libucrt:libm_error.obj
 0001:0002ae30       _log_special_common        000000018002be30 f   libucrt:log_special.obj
 0001:0002aed0       $$000000                   000000018002bed0     libucrt:fpsr.obj
 0001:0002bbb0       $$000000                   000000018002cbb0     LIBCMT:_chkstk_.obj
 0001:0002bd60       $$000000                   000000018002cd60     libvcruntime:memcmp.obj
 0001:0002bf60       $$000000                   000000018002cf60     libucrt:cos.obj
 0001:0002c4e0       $$000000                   000000018002d4e0     libucrt:cosf.obj
 0001:0002c9e0       $$000000                   000000018002d9e0     libucrt:expf.obj
 0001:0002cd40       $$000000                   000000018002dd40     libucrt:powf.obj
 0001:0002dc10       $$000000                   000000018002ec10     libucrt:sin.obj
 0001:0002e180       $$000000                   000000018002f180     libucrt:sinf.obj
 0001:0002e880       $$000000                   000000018002f880     libucrt:remainder_piby2_forasm.obj
 0001:0002ebd0       $$000000                   000000018002fbd0     libucrt:remainder_piby2_forfma3.obj
 0001:0002ee74       _sincos_special            000000018002fe74 f   libucrt:sincos_special.obj
 0001:0002ef18       _sincosf_special           000000018002ff18 f   libucrt:sincos_special.obj
 0001:0002efc0       $$000000                   000000018002ffc0     libucrt:remainder_piby2f_forasm.obj
 0001:0002f350       $$000000                   0000000180030350     libucrt:remainder_piby2f_forc.obj
 0001:0002f4e0       $$000000                   00000001800304e0     LIBCMT:_guard_dispatch_.obj
 0001:0002f500       ?dtor$0@?0???1ObjectWrap@node@@UEAA@XZ@4HA 0000000180030500 f   image.obj
 0001:0002f500       ?dtor$0@?0???1?$Persistent@VObject@v8@@V?$NonCopyablePersistentTraits@VObject@v8@@@2@@Nan@@QEAA@XZ@4HA 0000000180030500 f   image.obj
 0001:0002f500       ?dtor$1@?0???__F?constructor@LwipImage@@0V?$Persistent@VFunctionTemplate@v8@@V?$NonCopyablePersistentTraits@VFunctionTemplate@v8@@@2@@Nan@@A@@YAXXZ@4HA 0000000180030500 f   image.obj
 0001:0002f510       ?dtor$0@?0??WeakCallback@ObjectWrap@node@@CAXAEBV?$WeakCallbackData@VObject@v8@@VObjectWrap@node@@@v8@@@Z@4HA 0000000180030510 f   image.obj
 0001:0002f520       ?dtor$0@?0??New@?$Factory@VFunctionTemplate@v8@@@imp@Nan@@SA?AV?$Local@VFunctionTemplate@v8@@@v8@@P6AXAEBV?$FunctionCallbackInfo@VValue@v8@@@3@@ZV?$Local@VValue@v8@@@5@V?$Local@VSignature@v8@@@5@@Z@4HA 0000000180030520 f   image.obj
 0001:0002f530       ?dtor$0@?0???0Callback@Nan@@QEAA@AEBV?$Local@VFunction@v8@@@v8@@@Z@4HA 0000000180030530 f   image.obj
 0001:0002f53c       ?dtor$1@?0???0Callback@Nan@@QEAA@AEBV?$Local@VFunction@v8@@@v8@@@Z@4HA 000000018003053c f   image.obj
 0001:0002f548       ?dtor$3@?0???0Callback@Nan@@QEAA@AEBV?$Local@VFunction@v8@@@v8@@@Z@4HA 0000000180030548 f   image.obj
 0001:0002f560       ?dtor$0@?0???0CImgException@cimg_library@@QEAA@AEBU01@@Z@4HA 0000000180030560 f   image.obj
 0001:0002f560       ?dtor$1@?0???0CImgArgumentException@cimg_library@@QEAA@AEBU01@@Z@4HA 0000000180030560 f   image.obj
 0001:0002f560       ?dtor$1@?0???0CImgInstanceException@cimg_library@@QEAA@AEBU01@@Z@4HA 0000000180030560 f   image.obj
 0001:0002f560       ?dtor$1@?0???0CImgIOException@cimg_library@@QEAA@AEBU01@@Z@4HA 0000000180030560 f   image.obj
 0001:0002f570       ?dtor$1@?0???0CImgInstanceException@cimg_library@@QEAA@QEBDZZ@4HA 0000000180030570 f   image.obj
 0001:0002f570       ?dtor$1@?0???0CImgArgumentException@cimg_library@@QEAA@QEBDZZ@4HA 0000000180030570 f   image.obj
 0001:0002f570       ?dtor$1@?0???0CImgIOException@cimg_library@@QEAA@QEBDZZ@4HA 0000000180030570 f   image.obj
 0001:0002f57c       ?dtor$0@?0???0CImgInstanceException@cimg_library@@QEAA@QEBDZZ@4HA 000000018003057c f   image.obj
 0001:0002f57c       ?dtor$0@?0???0CImgArgumentException@cimg_library@@QEAA@QEBDZZ@4HA 000000018003057c f   image.obj
 0001:0002f57c       ?dtor$0@?0???0CImgIOException@cimg_library@@QEAA@QEBDZZ@4HA 000000018003057c f   image.obj
 0001:0002f590       ?dtor$1@?0??temporary_path@cimg@cimg_library@@YAPEBDQEBD_N@Z@4HA 0000000180030590 f   image.obj
 0001:0002f59c       ?dtor$2@?0??temporary_path@cimg@cimg_library@@YAPEBDQEBD_N@Z@4HA 000000018003059c f   image.obj
 0001:0002f5b0       ?dtor$0@?0??strbuffersize@cimg@cimg_library@@YAPEBDK@Z@4HA 00000001800305b0 f   image.obj
 0001:0002f5c0       ?dtor$0@?0??Init@LwipImage@@SAXV?$Local@VObject@v8@@@v8@@@Z@4HA 00000001800305c0 f   image.obj
 0001:0002f5cc       ?dtor$3@?0??Init@LwipImage@@SAXV?$Local@VObject@v8@@@v8@@@Z@4HA 00000001800305cc f   image.obj
 0001:0002f5d8       ?dtor$6@?0??Init@LwipImage@@SAXV?$Local@VObject@v8@@@v8@@@Z@4HA 00000001800305d8 f   image.obj
 0001:0002f5e4       ?dtor$9@?0??Init@LwipImage@@SAXV?$Local@VObject@v8@@@v8@@@Z@4HA 00000001800305e4 f   image.obj
 0001:0002f5f0       ?dtor$12@?0??Init@LwipImage@@SAXV?$Local@VObject@v8@@@v8@@@Z@4HA 00000001800305f0 f   image.obj
 0001:0002f5fc       ?dtor$15@?0??Init@LwipImage@@SAXV?$Local@VObject@v8@@@v8@@@Z@4HA 00000001800305fc f   image.obj
 0001:0002f608       ?dtor$18@?0??Init@LwipImage@@SAXV?$Local@VObject@v8@@@v8@@@Z@4HA 0000000180030608 f   image.obj
 0001:0002f614       ?dtor$21@?0??Init@LwipImage@@SAXV?$Local@VObject@v8@@@v8@@@Z@4HA 0000000180030614 f   image.obj
 0001:0002f620       ?dtor$24@?0??Init@LwipImage@@SAXV?$Local@VObject@v8@@@v8@@@Z@4HA 0000000180030620 f   image.obj
 0001:0002f62c       ?dtor$27@?0??Init@LwipImage@@SAXV?$Local@VObject@v8@@@v8@@@Z@4HA 000000018003062c f   image.obj
 0001:0002f638       ?dtor$30@?0??Init@LwipImage@@SAXV?$Local@VObject@v8@@@v8@@@Z@4HA 0000000180030638 f   image.obj
 0001:0002f644       ?dtor$33@?0??Init@LwipImage@@SAXV?$Local@VObject@v8@@@v8@@@Z@4HA 0000000180030644 f   image.obj
 0001:0002f650       ?dtor$36@?0??Init@LwipImage@@SAXV?$Local@VObject@v8@@@v8@@@Z@4HA 0000000180030650 f   image.obj
 0001:0002f65c       ?dtor$39@?0??Init@LwipImage@@SAXV?$Local@VObject@v8@@@v8@@@Z@4HA 000000018003065c f   image.obj
 0001:0002f668       ?dtor$42@?0??Init@LwipImage@@SAXV?$Local@VObject@v8@@@v8@@@Z@4HA 0000000180030668 f   image.obj
 0001:0002f680       ?dtor$0@?0???0LwipImage@@QEAA@PEAE_K1@Z@4HA 0000000180030680 f   image.obj
 0001:0002f68c       ?dtor$1@?0???0LwipImage@@QEAA@PEAE_K1@Z@4HA 000000018003068c f   image.obj
 0001:0002f6b0       ?dtor$1@?0??New@LwipImage@@SAXAEBV?$FunctionCallbackInfo@VValue@v8@@@Nan@@@Z@4HA 00000001800306b0 f   image.obj
 0001:0002f6d0       ?dtor$1@?0??resize@LwipImage@@SAXAEBV?$FunctionCallbackInfo@VValue@v8@@@Nan@@@Z@4HA 00000001800306d0 f   image.obj
 0001:0002f6ed       ?dtor$2@?0??resize@LwipImage@@SAXAEBV?$FunctionCallbackInfo@VValue@v8@@@Nan@@@Z@4HA 00000001800306ed f   image.obj
 0001:0002f710       ?dtor$1@?0??rotate@LwipImage@@SAXAEBV?$FunctionCallbackInfo@VValue@v8@@@Nan@@@Z@4HA 0000000180030710 f   image.obj
 0001:0002f730       ?dtor$2@?0??rotate@LwipImage@@SAXAEBV?$FunctionCallbackInfo@VValue@v8@@@Nan@@@Z@4HA 0000000180030730 f   image.obj
 0001:0002f750       ?dtor$1@?0??mirror@LwipImage@@SAXAEBV?$FunctionCallbackInfo@VValue@v8@@@Nan@@@Z@4HA 0000000180030750 f   image.obj
 0001:0002f750       ?dtor$1@?0??sharpen@LwipImage@@SAXAEBV?$FunctionCallbackInfo@VValue@v8@@@Nan@@@Z@4HA 0000000180030750 f   image.obj
 0001:0002f750       ?dtor$1@?0??blur@LwipImage@@SAXAEBV?$FunctionCallbackInfo@VValue@v8@@@Nan@@@Z@4HA 0000000180030750 f   image.obj
 0001:0002f76d       ?dtor$2@?0??blur@LwipImage@@SAXAEBV?$FunctionCallbackInfo@VValue@v8@@@Nan@@@Z@4HA 000000018003076d f   image.obj
 0001:0002f76d       ?dtor$2@?0??sharpen@LwipImage@@SAXAEBV?$FunctionCallbackInfo@VValue@v8@@@Nan@@@Z@4HA 000000018003076d f   image.obj
 0001:0002f76d       ?dtor$2@?0??mirror@LwipImage@@SAXAEBV?$FunctionCallbackInfo@VValue@v8@@@Nan@@@Z@4HA 000000018003076d f   image.obj
 0001:0002f790       ?dtor$1@?0??crop@LwipImage@@SAXAEBV?$FunctionCallbackInfo@VValue@v8@@@Nan@@@Z@4HA 0000000180030790 f   image.obj
 0001:0002f7b0       ?dtor$2@?0??crop@LwipImage@@SAXAEBV?$FunctionCallbackInfo@VValue@v8@@@Nan@@@Z@4HA 00000001800307b0 f   image.obj
 0001:0002f7d0       ?dtor$1@?0??pad@LwipImage@@SAXAEBV?$FunctionCallbackInfo@VValue@v8@@@Nan@@@Z@4HA 00000001800307d0 f   image.obj
 0001:0002f7ed       ?dtor$2@?0??pad@LwipImage@@SAXAEBV?$FunctionCallbackInfo@VValue@v8@@@Nan@@@Z@4HA 00000001800307ed f   image.obj
 0001:0002f810       ?dtor$1@?0??hslaAdj@LwipImage@@SAXAEBV?$FunctionCallbackInfo@VValue@v8@@@Nan@@@Z@4HA 0000000180030810 f   image.obj
 0001:0002f830       ?dtor$2@?0??hslaAdj@LwipImage@@SAXAEBV?$FunctionCallbackInfo@VValue@v8@@@Nan@@@Z@4HA 0000000180030830 f   image.obj
 0001:0002f850       ?dtor$1@?0??opacify@LwipImage@@SAXAEBV?$FunctionCallbackInfo@VValue@v8@@@Nan@@@Z@4HA 0000000180030850 f   image.obj
 0001:0002f86d       ?dtor$2@?0??opacify@LwipImage@@SAXAEBV?$FunctionCallbackInfo@VValue@v8@@@Nan@@@Z@4HA 000000018003086d f   image.obj
 0001:0002f890       ?dtor$1@?0??paste@LwipImage@@SAXAEBV?$FunctionCallbackInfo@VValue@v8@@@Nan@@@Z@4HA 0000000180030890 f   image.obj
 0001:0002f8b0       ?dtor$2@?0??paste@LwipImage@@SAXAEBV?$FunctionCallbackInfo@VValue@v8@@@Nan@@@Z@4HA 00000001800308b0 f   image.obj
 0001:0002f8d0       ?dtor$1@?0??setPixel@LwipImage@@SAXAEBV?$FunctionCallbackInfo@VValue@v8@@@Nan@@@Z@4HA 00000001800308d0 f   image.obj
 0001:0002f8f0       ?dtor$2@?0??setPixel@LwipImage@@SAXAEBV?$FunctionCallbackInfo@VValue@v8@@@Nan@@@Z@4HA 00000001800308f0 f   image.obj
 0001:0002f910       ?catch$0@?0???0?$CImg@E@cimg_library@@QEAA@QEBEIIII_N@Z@4HA 0000000180030910 f   image.obj
 0001:0002f920       __catch$??0?$CImg@E@cimg_library@@QEAA@QEBEIIII_N@Z$0 0000000180030920 f   image.obj
 0001:0002f9e0       ?catch$0@?0??assign@?$CImg@D@cimg_library@@QEAAAEAU12@IIII@Z@4HA 00000001800309e0 f   image.obj
 0001:0002f9ef       __catch$?assign@?$CImg@D@cimg_library@@QEAAAEAU12@IIII@Z$0 00000001800309ef f   image.obj
 0001:0002fab0       ?catch$0@?0???0?$CImg@D@cimg_library@@QEAA@IIII@Z@4HA 0000000180030ab0 f   image.obj
 0001:0002fabf       __catch$??0?$CImg@D@cimg_library@@QEAA@IIII@Z$0 0000000180030abf f   image.obj
 0001:0002fb80       ?catch$0@?0???0?$CImg@E@cimg_library@@QEAA@AEBU01@@Z@4HA 0000000180030b80 f   image.obj
 0001:0002fb94       __catch$??0?$CImg@E@cimg_library@@QEAA@AEBU01@@Z$0 0000000180030b94 f   image.obj
 0001:0002fc60       ?catch$0@?0???0?$CImg@E@cimg_library@@QEAA@IIII@Z@4HA 0000000180030c60 f   image.obj
 0001:0002fc74       __catch$??0?$CImg@E@cimg_library@@QEAA@IIII@Z$0 0000000180030c74 f   image.obj
 0001:0002fd40       ?dtor$0@?0??HandleErrorCallback@AsyncWorker@Nan@@MEAAXXZ@4HA 0000000180030d40 f   resize_worker.obj
 0001:0002fd40       ?dtor$0@?0??Call_@Callback@Nan@@AEBA?AV?$Local@VValue@v8@@@v8@@PEAVIsolate@4@V?$Local@VObject@v8@@@4@HQEAV34@@Z@4HA 0000000180030d40 f   resize_worker.obj
 0001:0002fd50       ?dtor$0@?0???0AsyncWorker@Nan@@QEAA@PEAVCallback@1@@Z@4HA 0000000180030d50 f   resize_worker.obj
 0001:0002fd63       ?dtor$1@?0???0AsyncWorker@Nan@@QEAA@PEAVCallback@1@@Z@4HA 0000000180030d63 f   resize_worker.obj
 0001:0002fd70       ?dtor$1@?0???1AsyncWorker@Nan@@UEAA@XZ@4HA 0000000180030d70 f   resize_worker.obj
 0001:0002fd75       ?dtor$3@?0???1AsyncWorker@Nan@@UEAA@XZ@4HA 0000000180030d75 f   resize_worker.obj
 0001:0002fd7a       ?dtor$6@?0???1AsyncWorker@Nan@@UEAA@XZ@4HA 0000000180030d7a f   resize_worker.obj
 0001:0002fd80       ?dtor$0@?0??WorkComplete@AsyncWorker@Nan@@UEAAXXZ@4HA 0000000180030d80 f   resize_worker.obj
 0001:0002fd8c       ?dtor$3@?0??WorkComplete@AsyncWorker@Nan@@UEAAXXZ@4HA 0000000180030d8c f   resize_worker.obj
 0001:0002fd91       ?dtor$5@?0??WorkComplete@AsyncWorker@Nan@@UEAAXXZ@4HA 0000000180030d91 f   resize_worker.obj
 0001:0002fda0       ?catch$0@?0??Execute@ResizeWorker@@UEAAXXZ@4HA 0000000180030da0 f   resize_worker.obj
 0001:0002fdad       __catch$?Execute@ResizeWorker@@UEAAXXZ$0 0000000180030dad f   resize_worker.obj
 0001:0002fdd9       ?dtor$0@?0??Execute@ResizeWorker@@UEAAXXZ@4HA 0000000180030dd9 f   resize_worker.obj
 0001:0002fdf0       ?dtor$0@?0??resize@?$CImg@E@cimg_library@@QEAAAEAU12@HHHHHIMMMM@Z@4HA 0000000180030df0 f   resize_worker.obj
 0001:0002fdf0       ?dtor$0@?0??crop@?$CImg@E@cimg_library@@QEAAAEAU12@HHHHHHHH_N@Z@4HA 0000000180030df0 f   crop_worker.obj
 0001:0002fe00       ?catch$0@?0???0?$CImg@K@cimg_library@@QEAA@IIII@Z@4HA 0000000180030e00 f   resize_worker.obj
 0001:0002fe0f       __catch$??0?$CImg@K@cimg_library@@QEAA@IIII@Z$0 0000000180030e0f f   resize_worker.obj
 0001:0002fed0       ?dtor$1@?0??get_resize@?$CImg@E@cimg_library@@QEBA?AU12@HHHHHIMMMM@Z@4HA 0000000180030ed0 f   resize_worker.obj
 0001:0002fedc       ?dtor$11@?0??get_resize@?$CImg@E@cimg_library@@QEBA?AU12@HHHHHIMMMM@Z@4HA 0000000180030edc f   resize_worker.obj
 0001:0002fee8       ?dtor$12@?0??get_resize@?$CImg@E@cimg_library@@QEBA?AU12@HHHHHIMMMM@Z@4HA 0000000180030ee8 f   resize_worker.obj
 0001:0002fef4       ?dtor$13@?0??get_resize@?$CImg@E@cimg_library@@QEBA?AU12@HHHHHIMMMM@Z@4HA 0000000180030ef4 f   resize_worker.obj
 0001:0002ff00       ?dtor$15@?0??get_resize@?$CImg@E@cimg_library@@QEBA?AU12@HHHHHIMMMM@Z@4HA 0000000180030f00 f   resize_worker.obj
 0001:0002ff0c       ?dtor$16@?0??get_resize@?$CImg@E@cimg_library@@QEBA?AU12@HHHHHIMMMM@Z@4HA 0000000180030f0c f   resize_worker.obj
 0001:0002ff18       ?dtor$17@?0??get_resize@?$CImg@E@cimg_library@@QEBA?AU12@HHHHHIMMMM@Z@4HA 0000000180030f18 f   resize_worker.obj
 0001:0002ff24       ?dtor$18@?0??get_resize@?$CImg@E@cimg_library@@QEBA?AU12@HHHHHIMMMM@Z@4HA 0000000180030f24 f   resize_worker.obj
 0001:0002ff30       ?dtor$19@?0??get_resize@?$CImg@E@cimg_library@@QEBA?AU12@HHHHHIMMMM@Z@4HA 0000000180030f30 f   resize_worker.obj
 0001:0002ff3c       ?dtor$20@?0??get_resize@?$CImg@E@cimg_library@@QEBA?AU12@HHHHHIMMMM@Z@4HA 0000000180030f3c f   resize_worker.obj
 0001:0002ff48       ?dtor$21@?0??get_resize@?$CImg@E@cimg_library@@QEBA?AU12@HHHHHIMMMM@Z@4HA 0000000180030f48 f   resize_worker.obj
 0001:0002ff54       ?dtor$22@?0??get_resize@?$CImg@E@cimg_library@@QEBA?AU12@HHHHHIMMMM@Z@4HA 0000000180030f54 f   resize_worker.obj
 0001:0002ff60       ?dtor$23@?0??get_resize@?$CImg@E@cimg_library@@QEBA?AU12@HHHHHIMMMM@Z@4HA 0000000180030f60 f   resize_worker.obj
 0001:0002ff6c       ?dtor$24@?0??get_resize@?$CImg@E@cimg_library@@QEBA?AU12@HHHHHIMMMM@Z@4HA 0000000180030f6c f   resize_worker.obj
 0001:0002ff78       ?dtor$25@?0??get_resize@?$CImg@E@cimg_library@@QEBA?AU12@HHHHHIMMMM@Z@4HA 0000000180030f78 f   resize_worker.obj
 0001:0002ff84       ?dtor$26@?0??get_resize@?$CImg@E@cimg_library@@QEBA?AU12@HHHHHIMMMM@Z@4HA 0000000180030f84 f   resize_worker.obj
 0001:0002ff90       ?dtor$27@?0??get_resize@?$CImg@E@cimg_library@@QEBA?AU12@HHHHHIMMMM@Z@4HA 0000000180030f90 f   resize_worker.obj
 0001:0002ff9c       ?dtor$28@?0??get_resize@?$CImg@E@cimg_library@@QEBA?AU12@HHHHHIMMMM@Z@4HA 0000000180030f9c f   resize_worker.obj
 0001:0002ffa8       ?dtor$29@?0??get_resize@?$CImg@E@cimg_library@@QEBA?AU12@HHHHHIMMMM@Z@4HA 0000000180030fa8 f   resize_worker.obj
 0001:0002ffb4       ?dtor$30@?0??get_resize@?$CImg@E@cimg_library@@QEBA?AU12@HHHHHIMMMM@Z@4HA 0000000180030fb4 f   resize_worker.obj
 0001:0002ffc0       ?dtor$31@?0??get_resize@?$CImg@E@cimg_library@@QEBA?AU12@HHHHHIMMMM@Z@4HA 0000000180030fc0 f   resize_worker.obj
 0001:0002ffcc       ?dtor$32@?0??get_resize@?$CImg@E@cimg_library@@QEBA?AU12@HHHHHIMMMM@Z@4HA 0000000180030fcc f   resize_worker.obj
 0001:0002ffd8       ?dtor$33@?0??get_resize@?$CImg@E@cimg_library@@QEBA?AU12@HHHHHIMMMM@Z@4HA 0000000180030fd8 f   resize_worker.obj
 0001:00030001       ?dtor$34@?0??get_resize@?$CImg@E@cimg_library@@QEBA?AU12@HHHHHIMMMM@Z@4HA 0000000180031001 f   resize_worker.obj
 0001:0003002a       ?dtor$35@?0??get_resize@?$CImg@E@cimg_library@@QEBA?AU12@HHHHHIMMMM@Z@4HA 000000018003102a f   resize_worker.obj
 0001:00030053       ?dtor$36@?0??get_resize@?$CImg@E@cimg_library@@QEBA?AU12@HHHHHIMMMM@Z@4HA 0000000180031053 f   resize_worker.obj
 0001:0003007c       ?dtor$37@?0??get_resize@?$CImg@E@cimg_library@@QEBA?AU12@HHHHHIMMMM@Z@4HA 000000018003107c f   resize_worker.obj
 0001:000300a5       ?dtor$38@?0??get_resize@?$CImg@E@cimg_library@@QEBA?AU12@HHHHHIMMMM@Z@4HA 00000001800310a5 f   resize_worker.obj
 0001:000300ce       ?dtor$39@?0??get_resize@?$CImg@E@cimg_library@@QEBA?AU12@HHHHHIMMMM@Z@4HA 00000001800310ce f   resize_worker.obj
 0001:000300fc       ?dtor$40@?0??get_resize@?$CImg@E@cimg_library@@QEBA?AU12@HHHHHIMMMM@Z@4HA 00000001800310fc f   resize_worker.obj
 0001:0003012a       ?dtor$41@?0??get_resize@?$CImg@E@cimg_library@@QEBA?AU12@HHHHHIMMMM@Z@4HA 000000018003112a f   resize_worker.obj
 0001:00030136       ?dtor$42@?0??get_resize@?$CImg@E@cimg_library@@QEBA?AU12@HHHHHIMMMM@Z@4HA 0000000180031136 f   resize_worker.obj
 0001:00030142       ?dtor$43@?0??get_resize@?$CImg@E@cimg_library@@QEBA?AU12@HHHHHIMMMM@Z@4HA 0000000180031142 f   resize_worker.obj
 0001:0003014e       ?dtor$44@?0??get_resize@?$CImg@E@cimg_library@@QEBA?AU12@HHHHHIMMMM@Z@4HA 000000018003114e f   resize_worker.obj
 0001:0003015a       ?dtor$45@?0??get_resize@?$CImg@E@cimg_library@@QEBA?AU12@HHHHHIMMMM@Z@4HA 000000018003115a f   resize_worker.obj
 0001:00030166       ?dtor$46@?0??get_resize@?$CImg@E@cimg_library@@QEBA?AU12@HHHHHIMMMM@Z@4HA 0000000180031166 f   resize_worker.obj
 0001:00030172       ?dtor$47@?0??get_resize@?$CImg@E@cimg_library@@QEBA?AU12@HHHHHIMMMM@Z@4HA 0000000180031172 f   resize_worker.obj
 0001:0003017e       ?dtor$48@?0??get_resize@?$CImg@E@cimg_library@@QEBA?AU12@HHHHHIMMMM@Z@4HA 000000018003117e f   resize_worker.obj
 0001:0003018a       ?dtor$49@?0??get_resize@?$CImg@E@cimg_library@@QEBA?AU12@HHHHHIMMMM@Z@4HA 000000018003118a f   resize_worker.obj
 0001:000301b8       ?dtor$50@?0??get_resize@?$CImg@E@cimg_library@@QEBA?AU12@HHHHHIMMMM@Z@4HA 00000001800311b8 f   resize_worker.obj
 0001:000301e6       ?dtor$51@?0??get_resize@?$CImg@E@cimg_library@@QEBA?AU12@HHHHHIMMMM@Z@4HA 00000001800311e6 f   resize_worker.obj
 0001:00030214       ?dtor$52@?0??get_resize@?$CImg@E@cimg_library@@QEBA?AU12@HHHHHIMMMM@Z@4HA 0000000180031214 f   resize_worker.obj
 0001:00030242       ?dtor$53@?0??get_resize@?$CImg@E@cimg_library@@QEBA?AU12@HHHHHIMMMM@Z@4HA 0000000180031242 f   resize_worker.obj
 0001:00030270       ?dtor$54@?0??get_resize@?$CImg@E@cimg_library@@QEBA?AU12@HHHHHIMMMM@Z@4HA 0000000180031270 f   resize_worker.obj
 0001:0003029e       ?dtor$55@?0??get_resize@?$CImg@E@cimg_library@@QEBA?AU12@HHHHHIMMMM@Z@4HA 000000018003129e f   resize_worker.obj
 0001:000302cc       ?dtor$56@?0??get_resize@?$CImg@E@cimg_library@@QEBA?AU12@HHHHHIMMMM@Z@4HA 00000001800312cc f   resize_worker.obj
 0001:000302fa       ?dtor$57@?0??get_resize@?$CImg@E@cimg_library@@QEBA?AU12@HHHHHIMMMM@Z@4HA 00000001800312fa f   resize_worker.obj
 0001:00030306       ?dtor$58@?0??get_resize@?$CImg@E@cimg_library@@QEBA?AU12@HHHHHIMMMM@Z@4HA 0000000180031306 f   resize_worker.obj
 0001:00030312       ?dtor$59@?0??get_resize@?$CImg@E@cimg_library@@QEBA?AU12@HHHHHIMMMM@Z@4HA 0000000180031312 f   resize_worker.obj
 0001:0003031e       ?dtor$60@?0??get_resize@?$CImg@E@cimg_library@@QEBA?AU12@HHHHHIMMMM@Z@4HA 000000018003131e f   resize_worker.obj
 0001:0003032a       ?dtor$61@?0??get_resize@?$CImg@E@cimg_library@@QEBA?AU12@HHHHHIMMMM@Z@4HA 000000018003132a f   resize_worker.obj
 0001:00030336       ?dtor$62@?0??get_resize@?$CImg@E@cimg_library@@QEBA?AU12@HHHHHIMMMM@Z@4HA 0000000180031336 f   resize_worker.obj
 0001:00030342       ?dtor$63@?0??get_resize@?$CImg@E@cimg_library@@QEBA?AU12@HHHHHIMMMM@Z@4HA 0000000180031342 f   resize_worker.obj
 0001:0003034e       ?dtor$64@?0??get_resize@?$CImg@E@cimg_library@@QEBA?AU12@HHHHHIMMMM@Z@4HA 000000018003134e f   resize_worker.obj
 0001:0003035a       ?dtor$65@?0??get_resize@?$CImg@E@cimg_library@@QEBA?AU12@HHHHHIMMMM@Z@4HA 000000018003135a f   resize_worker.obj
 0001:00030366       ?dtor$66@?0??get_resize@?$CImg@E@cimg_library@@QEBA?AU12@HHHHHIMMMM@Z@4HA 0000000180031366 f   resize_worker.obj
 0001:00030372       ?dtor$67@?0??get_resize@?$CImg@E@cimg_library@@QEBA?AU12@HHHHHIMMMM@Z@4HA 0000000180031372 f   resize_worker.obj
 0001:0003037e       ?dtor$68@?0??get_resize@?$CImg@E@cimg_library@@QEBA?AU12@HHHHHIMMMM@Z@4HA 000000018003137e f   resize_worker.obj
 0001:0003038a       ?dtor$69@?0??get_resize@?$CImg@E@cimg_library@@QEBA?AU12@HHHHHIMMMM@Z@4HA 000000018003138a f   resize_worker.obj
 0001:00030396       ?dtor$70@?0??get_resize@?$CImg@E@cimg_library@@QEBA?AU12@HHHHHIMMMM@Z@4HA 0000000180031396 f   resize_worker.obj
 0001:000303a2       ?dtor$71@?0??get_resize@?$CImg@E@cimg_library@@QEBA?AU12@HHHHHIMMMM@Z@4HA 00000001800313a2 f   resize_worker.obj
 0001:000303d0       ?dtor$72@?0??get_resize@?$CImg@E@cimg_library@@QEBA?AU12@HHHHHIMMMM@Z@4HA 00000001800313d0 f   resize_worker.obj
 0001:000303fe       ?dtor$73@?0??get_resize@?$CImg@E@cimg_library@@QEBA?AU12@HHHHHIMMMM@Z@4HA 00000001800313fe f   resize_worker.obj
 0001:0003042c       ?dtor$74@?0??get_resize@?$CImg@E@cimg_library@@QEBA?AU12@HHHHHIMMMM@Z@4HA 000000018003142c f   resize_worker.obj
 0001:0003045a       ?dtor$75@?0??get_resize@?$CImg@E@cimg_library@@QEBA?AU12@HHHHHIMMMM@Z@4HA 000000018003145a f   resize_worker.obj
 0001:00030488       ?dtor$76@?0??get_resize@?$CImg@E@cimg_library@@QEBA?AU12@HHHHHIMMMM@Z@4HA 0000000180031488 f   resize_worker.obj
 0001:000304b6       ?dtor$77@?0??get_resize@?$CImg@E@cimg_library@@QEBA?AU12@HHHHHIMMMM@Z@4HA 00000001800314b6 f   resize_worker.obj
 0001:000304e4       ?dtor$78@?0??get_resize@?$CImg@E@cimg_library@@QEBA?AU12@HHHHHIMMMM@Z@4HA 00000001800314e4 f   resize_worker.obj
 0001:00030512       ?dtor$79@?0??get_resize@?$CImg@E@cimg_library@@QEBA?AU12@HHHHHIMMMM@Z@4HA 0000000180031512 f   resize_worker.obj
 0001:0003051e       ?dtor$80@?0??get_resize@?$CImg@E@cimg_library@@QEBA?AU12@HHHHHIMMMM@Z@4HA 000000018003151e f   resize_worker.obj
 0001:0003052a       ?dtor$81@?0??get_resize@?$CImg@E@cimg_library@@QEBA?AU12@HHHHHIMMMM@Z@4HA 000000018003152a f   resize_worker.obj
 0001:00030536       ?dtor$82@?0??get_resize@?$CImg@E@cimg_library@@QEBA?AU12@HHHHHIMMMM@Z@4HA 0000000180031536 f   resize_worker.obj
 0001:00030542       ?dtor$83@?0??get_resize@?$CImg@E@cimg_library@@QEBA?AU12@HHHHHIMMMM@Z@4HA 0000000180031542 f   resize_worker.obj
 0001:0003054e       ?dtor$84@?0??get_resize@?$CImg@E@cimg_library@@QEBA?AU12@HHHHHIMMMM@Z@4HA 000000018003154e f   resize_worker.obj
 0001:0003055a       ?dtor$85@?0??get_resize@?$CImg@E@cimg_library@@QEBA?AU12@HHHHHIMMMM@Z@4HA 000000018003155a f   resize_worker.obj
 0001:00030566       ?dtor$86@?0??get_resize@?$CImg@E@cimg_library@@QEBA?AU12@HHHHHIMMMM@Z@4HA 0000000180031566 f   resize_worker.obj
 0001:00030572       ?dtor$87@?0??get_resize@?$CImg@E@cimg_library@@QEBA?AU12@HHHHHIMMMM@Z@4HA 0000000180031572 f   resize_worker.obj
 0001:0003057e       ?dtor$88@?0??get_resize@?$CImg@E@cimg_library@@QEBA?AU12@HHHHHIMMMM@Z@4HA 000000018003157e f   resize_worker.obj
 0001:0003058a       ?dtor$89@?0??get_resize@?$CImg@E@cimg_library@@QEBA?AU12@HHHHHIMMMM@Z@4HA 000000018003158a f   resize_worker.obj
 0001:00030596       ?dtor$90@?0??get_resize@?$CImg@E@cimg_library@@QEBA?AU12@HHHHHIMMMM@Z@4HA 0000000180031596 f   resize_worker.obj
 0001:000305a2       ?dtor$91@?0??get_resize@?$CImg@E@cimg_library@@QEBA?AU12@HHHHHIMMMM@Z@4HA 00000001800315a2 f   resize_worker.obj
 0001:000305ae       ?dtor$92@?0??get_resize@?$CImg@E@cimg_library@@QEBA?AU12@HHHHHIMMMM@Z@4HA 00000001800315ae f   resize_worker.obj
 0001:000305ba       ?dtor$93@?0??get_resize@?$CImg@E@cimg_library@@QEBA?AU12@HHHHHIMMMM@Z@4HA 00000001800315ba f   resize_worker.obj
 0001:000305e8       ?dtor$94@?0??get_resize@?$CImg@E@cimg_library@@QEBA?AU12@HHHHHIMMMM@Z@4HA 00000001800315e8 f   resize_worker.obj
 0001:00030616       ?dtor$95@?0??get_resize@?$CImg@E@cimg_library@@QEBA?AU12@HHHHHIMMMM@Z@4HA 0000000180031616 f   resize_worker.obj
 0001:00030644       ?dtor$96@?0??get_resize@?$CImg@E@cimg_library@@QEBA?AU12@HHHHHIMMMM@Z@4HA 0000000180031644 f   resize_worker.obj
 0001:00030672       ?dtor$97@?0??get_resize@?$CImg@E@cimg_library@@QEBA?AU12@HHHHHIMMMM@Z@4HA 0000000180031672 f   resize_worker.obj
 0001:000306a0       ?dtor$98@?0??get_resize@?$CImg@E@cimg_library@@QEBA?AU12@HHHHHIMMMM@Z@4HA 00000001800316a0 f   resize_worker.obj
 0001:000306ce       ?dtor$99@?0??get_resize@?$CImg@E@cimg_library@@QEBA?AU12@HHHHHIMMMM@Z@4HA 00000001800316ce f   resize_worker.obj
 0001:000306fc       ?dtor$100@?0??get_resize@?$CImg@E@cimg_library@@QEBA?AU12@HHHHHIMMMM@Z@4HA 00000001800316fc f   resize_worker.obj
 0001:00030730       ?catch$0@?0???0?$CImg@I@cimg_library@@QEAA@IIII@Z@4HA 0000000180031730 f   resize_worker.obj
 0001:0003073f       __catch$??0?$CImg@I@cimg_library@@QEAA@IIII@Z$0 000000018003173f f   resize_worker.obj
 0001:00030800       ?dtor$0@?0??draw_image@?$CImg@E@cimg_library@@QEAAAEAU12@HHHHAEBU12@M@Z@4HA 0000000180031800 f   resize_worker.obj
 0001:00030810       ?dtor$0@?0??get_crop@?$CImg@E@cimg_library@@QEBA?AU12@HHHHHHHH_N@Z@4HA 0000000180031810 f   resize_worker.obj
 0001:00030840       ?catch$0@?0??assign@?$CImg@E@cimg_library@@QEAAAEAU12@IIII@Z@4HA 0000000180031840 f   resize_worker.obj
 0001:00030854       __catch$?assign@?$CImg@E@cimg_library@@QEAAAEAU12@IIII@Z$0 0000000180031854 f   resize_worker.obj
 0001:00030930       ?catch$0@?0???0?$CImg@E@cimg_library@@QEAA@IIIIAEBE@Z@4HA 0000000180031930 f   resize_worker.obj
 0001:00030944       __catch$??0?$CImg@E@cimg_library@@QEAA@IIIIAEBE@Z$0 0000000180031944 f   resize_worker.obj
 0001:00030a10       ?catch$0@?0???0?$CImg@M@cimg_library@@QEAA@IIIIAEBM@Z@4HA 0000000180031a10 f   resize_worker.obj
 0001:00030a24       __catch$??0?$CImg@M@cimg_library@@QEAA@IIIIAEBM@Z$0 0000000180031a24 f   resize_worker.obj
 0001:00030af0       ?catch$0@?0???0?$CImg@M@cimg_library@@QEAA@IIII@Z@4HA 0000000180031af0 f   resize_worker.obj
 0001:00030b04       __catch$??0?$CImg@M@cimg_library@@QEAA@IIII@Z$0 0000000180031b04 f   resize_worker.obj
 0001:00030bd0       ?catch$0@?0???0?$CImg@E@cimg_library@@QEAA@AEBU01@_N@Z@4HA 0000000180031bd0 f   resize_worker.obj
 0001:00030be4       __catch$??0?$CImg@E@cimg_library@@QEAA@AEBU01@_N@Z$0 0000000180031be4 f   resize_worker.obj
 0001:00030cb0       ?catch$0@?0??assign@?$CImg@E@cimg_library@@QEAAAEAU12@QEBEIIII@Z@4HA 0000000180031cb0 f   resize_worker.obj
 0001:00030cc4       __catch$?assign@?$CImg@E@cimg_library@@QEAAAEAU12@QEBEIIII@Z$0 0000000180031cc4 f   resize_worker.obj
 0001:00030d90       ?dtor$0@?0??Execute@RotateWorker@@UEAAXXZ@4HA 0000000180031d90 f   rotate_worker.obj
 0001:00030db0       ?catch$1@?0??Execute@RotateWorker@@UEAAXXZ@4HA 0000000180031db0 f   rotate_worker.obj
 0001:00030dbd       __catch$?Execute@RotateWorker@@UEAAXXZ$0 0000000180031dbd f   rotate_worker.obj
 0001:00030de9       ?dtor$1@?0??Execute@RotateWorker@@UEAAXXZ@4HA 0000000180031de9 f   rotate_worker.obj
 0001:00030df5       ?dtor$5@?0??Execute@RotateWorker@@UEAAXXZ@4HA 0000000180031df5 f   rotate_worker.obj
 0001:00030e01       ?catch$0@?0??Execute@RotateWorker@@UEAAXXZ@4HA 0000000180031e01 f   rotate_worker.obj
 0001:00030e0e       __catch$?Execute@RotateWorker@@UEAAXXZ$2 0000000180031e0e f   rotate_worker.obj
 0001:00030e3a       ?dtor$2@?0??Execute@RotateWorker@@UEAAXXZ@4HA 0000000180031e3a f   rotate_worker.obj
 0001:00030e50       ?dtor$1@?0??get_rotate@?$CImg@E@cimg_library@@QEBA?AU12@MII@Z@4HA 0000000180031e50 f   rotate_worker.obj
 0001:00030e60       ?catch$0@?0??Execute@CropWorker@@UEAAXXZ@4HA 0000000180031e60 f   crop_worker.obj
 0001:00030e6d       __catch$?Execute@CropWorker@@UEAAXXZ$0 0000000180031e6d f   crop_worker.obj
 0001:00030e99       ?dtor$0@?0??Execute@CropWorker@@UEAAXXZ@4HA 0000000180031e99 f   crop_worker.obj
 0001:00030eb0       ?dtor$0@?0??Execute@MirrorWorker@@UEAAXXZ@4HA 0000000180031eb0 f   mirror_worker.obj
 0001:00030ebc       ?catch$0@?0??Execute@MirrorWorker@@UEAAXXZ@4HA 0000000180031ebc f   mirror_worker.obj
 0001:00030ec9       __catch$?Execute@MirrorWorker@@UEAAXXZ$0 0000000180031ec9 f   mirror_worker.obj
 0001:00030ef2       ?dtor$1@?0??Execute@MirrorWorker@@UEAAXXZ@4HA 0000000180031ef2 f   mirror_worker.obj
 0001:00030f00       ?dtor$0@?0??Execute@PadWorker@@UEAAXXZ@4HA 0000000180031f00 f   pad_worker.obj
 0001:00030f20       ?catch$0@?0??Execute@PadWorker@@UEAAXXZ@4HA 0000000180031f20 f   pad_worker.obj
 0001:00030f2d       __catch$?Execute@PadWorker@@UEAAXXZ$0 0000000180031f2d f   pad_worker.obj
 0001:00030f59       ?dtor$1@?0??Execute@PadWorker@@UEAAXXZ@4HA 0000000180031f59 f   pad_worker.obj
 0001:00030f70       ?catch$0@?0??Execute@SharpenWorker@@UEAAXXZ@4HA 0000000180031f70 f   sharpen_worker.obj
 0001:00030f7d       __catch$?Execute@SharpenWorker@@UEAAXXZ$0 0000000180031f7d f   sharpen_worker.obj
 0001:00030fa6       ?dtor$0@?0??Execute@SharpenWorker@@UEAAXXZ@4HA 0000000180031fa6 f   sharpen_worker.obj
 0001:00030fc0       ?dtor$0@?0??sharpen@?$CImg@E@cimg_library@@QEAAAEAU12@M_NMMM@Z@4HA 0000000180031fc0 f   sharpen_worker.obj
 0001:00030fcc       ?dtor$1@?0??sharpen@?$CImg@E@cimg_library@@QEAAAEAU12@M_NMMM@Z@4HA 0000000180031fcc f   sharpen_worker.obj
 0001:00030fe0       ?dtor$0@?0???$?YE@?$CImg@M@cimg_library@@QEAAAEAU01@AEBU?$CImg@E@1@@Z@4HA 0000000180031fe0 f   sharpen_worker.obj
 0001:00030ff0       ?dtor$0@?0???0PasteWorker@@QEAA@_K0AEAV?$Local@VObject@v8@@@v8@@00PEAU?$CImg@E@cimg_library@@PEAVCallback@Nan@@@Z@4HA 0000000180031ff0 f   paste_worker.obj
 0001:00030ffc       ?dtor$1@?0???0PasteWorker@@QEAA@_K0AEAV?$Local@VObject@v8@@@v8@@00PEAU?$CImg@E@cimg_library@@PEAVCallback@Nan@@@Z@4HA 0000000180031ffc f   paste_worker.obj
 0001:00031010       ?catch$0@?0??Execute@PasteWorker@@UEAAXXZ@4HA 0000000180032010 f   paste_worker.obj
 0001:0003101d       __catch$?Execute@PasteWorker@@UEAAXXZ$0 000000018003201d f   paste_worker.obj
 0001:00031049       ?dtor$1@?0??Execute@PasteWorker@@UEAAXXZ@4HA 0000000180032049 f   paste_worker.obj
 0001:00031055       __scrt_is_nonwritable_in_current_image$filt$0 0000000180032055 f   LIBCMT:utility.obj
 0001:0003106d       ?fin$0@?0??dllmain_crt_process_attach@@YAHQEAUHINSTANCE__@@QEAX@Z@4HA 000000018003206d f   LIBCMT:dll_dllmain.obj
 0001:00031084       ?fin$0@?0??dllmain_crt_process_detach@@YAH_N@Z@4HA 0000000180032084 f   LIBCMT:dll_dllmain.obj
 0001:000310a0       ?filt$0@?0??dllmain_dispatch@@YAHQEAUHINSTANCE__@@KQEAX@Z@4HA 00000001800320a0 f   LIBCMT:dll_dllmain.obj
 0001:000310d6       __CxxCallCatchBlock$filt$0 00000001800320d6 f   libvcruntime:frame.obj
 0001:000310fb       __CxxCallCatchBlock$fin$1  00000001800320fb f   libvcruntime:frame.obj
 0001:00031173       __DestructExceptionObject$filt$0 0000000180032173 f   libvcruntime:frame.obj
 0001:0003118b       __FrameUnwindToState$filt$0 000000018003218b f   libvcruntime:frame.obj
 0001:000311a1       __FrameUnwindToState$fin$1 00000001800321a1 f   libvcruntime:frame.obj
 0001:000311c4       _CallSETranslator$filt$0   00000001800321c4 f   libvcruntime:trnsctrl.obj
 0001:00031210       ?fin$0@?0???$common_fsopen@D@@YAPEAU_iobuf@@QEBD0H@Z@4HA 0000000180032210 f   libucrt:fopen.obj
 0001:0003123b       ?fin$0@?0???$common_getenv@D@@YAPEADQEBD@Z@4HA 000000018003223b f   libucrt:getenv.obj
 0001:00031254       _query_new_handler$fin$0   0000000180032254 f   libucrt:new_handler.obj
 0001:0003126a       ?filt$0@?0??common_exit@@YAXHW4_crt_exit_cleanup_mode@@W4_crt_exit_return_mode@@@Z@4HA 000000018003226a f   libucrt:exit.obj
 0001:00031285       ?fin$1@?0??common_exit@@YAXHW4_crt_exit_cleanup_mode@@W4_crt_exit_return_mode@@@Z@4HA 0000000180032285 f   libucrt:exit.obj
 0001:0003129e       ?fin$0@?0???$?RV<lambda_e24bbb7b643b32fcea6fa61b31d4c984>@@AEAV<lambda_275893d493268fdec8709772e3fcec0e>@@V<lambda_9d71df4d7cf3f480f8d633942495c3b0>@@@?$__crt_seh_guarded_call@H@@QEAAH$$QEAV<lambda_e24bbb7b643b32fcea6fa61b31d4c984>@@AEAV<lambda_275893d493268fdec8709772e3fcec0e>@@$$QEAV<lambda_9d71df4d7cf3f480f8d633942495c3b0>@@@Z@4HA 000000018003229e f   libucrt:onexit.obj
 0001:000312bb       ?fin$0@?0???$?RV<lambda_b8c45f8f788dd370798f47cfe8ac3a86>@@AEAV<lambda_4e60a939b0d047cfe11ddc22648dfba9>@@V<lambda_332c3edc96d0294ec56c57d38c1cdfd5>@@@?$__crt_seh_guarded_call@H@@QEAAH$$QEAV<lambda_b8c45f8f788dd370798f47cfe8ac3a86>@@AEAV<lambda_4e60a939b0d047cfe11ddc22648dfba9>@@$$QEAV<lambda_332c3edc96d0294ec56c57d38c1cdfd5>@@@Z@4HA 00000001800322bb f   libucrt:onexit.obj
 0001:000312bb       ?fin$0@?0???$?RV<lambda_c36588078e9f5dfd39652860aa6b3aaf>@@AEAV<lambda_ec61778202f4f5fc7e7711acc23c3bca>@@V<lambda_dc9d2797ccde5d239b4a0efae8ebd7db>@@@?$__crt_seh_guarded_call@P6AXH@Z@@QEAAP6AXH@Z$$QEAV<lambda_c36588078e9f5dfd39652860aa6b3aaf>@@AEAV<lambda_ec61778202f4f5fc7e7711acc23c3bca>@@$$QEAV<lambda_dc9d2797ccde5d239b4a0efae8ebd7db>@@@Z@4HA 00000001800322bb f   libucrt:signal.obj
 0001:000312bb       ?fin$0@?0???$?RV<lambda_99476a1ad63dd22509b5d3e65b0ffc95>@@AEAV<lambda_ad1ced32f4ac17aa236e5ef05d6b3b7c>@@V<lambda_f7424dd8d45958661754dc4f2697e9c3>@@@?$__crt_seh_guarded_call@X@@QEAAX$$QEAV<lambda_99476a1ad63dd22509b5d3e65b0ffc95>@@AEAV<lambda_ad1ced32f4ac17aa236e5ef05d6b3b7c>@@$$QEAV<lambda_f7424dd8d45958661754dc4f2697e9c3>@@@Z@4HA 00000001800322bb f   libucrt:mbctype.obj
 0001:000312bb       ?fin$0@?0???$?RV<lambda_46352004c1216016012b18bd6f87e700>@@AEAV<lambda_3bd07e1a1191394380780325891bf33f>@@V<lambda_334532d3f185bcaa59b5be82d7d22bff>@@@?$__crt_seh_guarded_call@X@@QEAAX$$QEAV<lambda_46352004c1216016012b18bd6f87e700>@@AEAV<lambda_3bd07e1a1191394380780325891bf33f>@@$$QEAV<lambda_334532d3f185bcaa59b5be82d7d22bff>@@@Z@4HA 00000001800322bb f   libucrt:per_thread_data.obj
 0001:000312bb       ?fin$0@?0???$?RV<lambda_5e887d1dcbef67a5eb4283622ba103bf>@@AEAV<lambda_4466841279450cc726390878d4a41900>@@V<lambda_341c25c0346d94847f1f3c463c57e077>@@@?$__crt_seh_guarded_call@X@@QEAAX$$QEAV<lambda_5e887d1dcbef67a5eb4283622ba103bf>@@AEAV<lambda_4466841279450cc726390878d4a41900>@@$$QEAV<lambda_341c25c0346d94847f1f3c463c57e077>@@@Z@4HA 00000001800322bb f   libucrt:per_thread_data.obj
 0001:000312bb       ?fin$0@?0???$?RV<lambda_72d1df2b273a38828b1ce30cbf4cdab5>@@AEAV<lambda_876a65b173b8412d3a47c70a915b0cf4>@@V<lambda_41932305e351933ebe8f8be3ed8bb5dc>@@@?$__crt_seh_guarded_call@X@@QEAAX$$QEAV<lambda_72d1df2b273a38828b1ce30cbf4cdab5>@@AEAV<lambda_876a65b173b8412d3a47c70a915b0cf4>@@$$QEAV<lambda_41932305e351933ebe8f8be3ed8bb5dc>@@@Z@4HA 00000001800322bb f   libucrt:per_thread_data.obj
 0001:000312bb       ?fin$0@?0???$?RV<lambda_fb3a7dec4e47f37f22dae91bb15c9095>@@AEAV<lambda_698284760c8add0bfb0756c19673e34b>@@V<lambda_dfb8eca1e75fef3034a8fb18dd509707>@@@?$__crt_seh_guarded_call@X@@QEAAX$$QEAV<lambda_fb3a7dec4e47f37f22dae91bb15c9095>@@AEAV<lambda_698284760c8add0bfb0756c19673e34b>@@$$QEAV<lambda_dfb8eca1e75fef3034a8fb18dd509707>@@@Z@4HA 00000001800322bb f   libucrt:per_thread_data.obj
 0001:000312d5       _fcloseall$fin$0           00000001800322d5 f   libucrt:closeall.obj
 0001:000312d5       ?fin$0@?0??__acrt_stdio_allocate_stream@@YA?AV__crt_stdio_stream@@XZ@4HA 00000001800322d5 f   libucrt:stream.obj
 0001:000312ee       common_flush_all$fin$0     00000001800322ee f   libucrt:fflush.obj
 0001:00031308       common_flush_all$fin$1     0000000180032308 f   libucrt:fflush.obj
 0001:00031321       fflush$fin$0               0000000180032321 f   libucrt:fflush.obj
 0001:00031321       fclose$fin$0               0000000180032321 f   libucrt:fclose.obj
 0001:00031339       ?fin$0@?0???$?RV<lambda_b521505b218e5242e90febf6bfebc422>@@AEAV<lambda_6978c1fb23f02e42e1d9e99668cc68aa>@@V<lambda_314360699dd331753a4119843814e9a7>@@@?$__crt_seh_guarded_call@H@@QEAAH$$QEAV<lambda_b521505b218e5242e90febf6bfebc422>@@AEAV<lambda_6978c1fb23f02e42e1d9e99668cc68aa>@@$$QEAV<lambda_314360699dd331753a4119843814e9a7>@@@Z@4HA 0000000180032339 f   libucrt:commit.obj
 0001:00031339       ?fin$0@?0???$?RV<lambda_bfedae4ebbf01fab1bb6dcc6a9e276e0>@@AEAV<lambda_2fe9b910cf3cbf4a0ab98a02ba45b3ec>@@V<lambda_237c231691f317818eb88cc1d5d642d6>@@@?$__crt_seh_guarded_call@H@@QEAAH$$QEAV<lambda_bfedae4ebbf01fab1bb6dcc6a9e276e0>@@AEAV<lambda_2fe9b910cf3cbf4a0ab98a02ba45b3ec>@@$$QEAV<lambda_237c231691f317818eb88cc1d5d642d6>@@@Z@4HA 0000000180032339 f   libucrt:close.obj
 0001:00031353       __acrt_update_thread_locale_data$fin$0 0000000180032353 f   libucrt:locale_refcounting.obj
 0001:00031353       __acrt_uninitialize_locale$fin$0 0000000180032353 f   libucrt:wsetlocale.obj
 0001:0003136c       ?fin$0@?0???$?RV<lambda_7a5ef57ff966f610505f1d28a3d40618>@@AEAV<lambda_b721fa326cdb32351d23dfa67958c160>@@V<lambda_5e0fb27672408a07956fe59e48ccb2aa>@@@?$__crt_seh_guarded_call@H@@QEAAH$$QEAV<lambda_7a5ef57ff966f610505f1d28a3d40618>@@AEAV<lambda_b721fa326cdb32351d23dfa67958c160>@@$$QEAV<lambda_5e0fb27672408a07956fe59e48ccb2aa>@@@Z@4HA 000000018003236c f   libucrt:setvbuf.obj
 0001:0003136c       ?fin$0@?0???$?RV<lambda_7b91131dde12e1c3dfc74ff76b3f2eac>@@AEAV<lambda_dd75445284c072d0bd3768540cc698fa>@@V<lambda_16bc4ecb55b4718497c16bceaea2ceaf>@@@?$__crt_seh_guarded_call@H@@QEAAH$$QEAV<lambda_7b91131dde12e1c3dfc74ff76b3f2eac>@@AEAV<lambda_dd75445284c072d0bd3768540cc698fa>@@$$QEAV<lambda_16bc4ecb55b4718497c16bceaea2ceaf>@@@Z@4HA 000000018003236c f   libucrt:output.obj
 0001:0003136c       ?fin$0@?0???$?RV<lambda_aa279a7bcb127014629d5b1d62c7325d>@@AEAV<lambda_0a64b6a4deda75c01876f29c44fc5eb3>@@V<lambda_3323e69fbefe9d1a11713e670d47cdfa>@@@?$__crt_seh_guarded_call@H@@QEAAH$$QEAV<lambda_aa279a7bcb127014629d5b1d62c7325d>@@AEAV<lambda_0a64b6a4deda75c01876f29c44fc5eb3>@@$$QEAV<lambda_3323e69fbefe9d1a11713e670d47cdfa>@@@Z@4HA 000000018003236c f   libucrt:output.obj
 0001:00031387       raise$fin$0                0000000180032387 f   libucrt:signal.obj
 0001:000313ab       __acrt_update_thread_multibyte_data$fin$0 00000001800323ab f   libucrt:mbctype.obj
 0001:000313c4       ?fin$0@?0???$common_sopen_dispatch@D@@YAHQEBDHHHQEAHH@Z@4HA 00000001800323c4 f   libucrt:open.obj
 0001:00031417       __acrt_lowio_ensure_fh_exists$fin$0 0000000180032417 f   libucrt:osfinfo.obj
 0001:00031417       _alloc_osfhnd$fin$0        0000000180032417 f   libucrt:osfinfo.obj
 0001:00031417       __acrt_initialize_lowio$fin$0 0000000180032417 f   libucrt:ioinit.obj
 0001:00031430       _write$fin$0               0000000180032430 f   libucrt:write.obj
 0001:00031430       ?fin$0@?0???$common_lseek@_J@@YA_JH_JH@Z@4HA 0000000180032430 f   libucrt:lseek.obj
 0001:00031447       common_control87$filt$0    0000000180032447 f   libucrt:ieee.obj
 0001:00031447       _ctrlfp$filt$0             0000000180032447 f   libucrt:fpctrl.obj
 0001:00031480       _IsNonwritableInCurrentImage$filt$0 0000000180032480 f   LIBCMT:pesect.obj
 0001:00031560       ??__F?constructor@LwipImage@@0V?$Persistent@VFunctionTemplate@v8@@V?$NonCopyablePersistentTraits@VFunctionTemplate@v8@@@2@@Nan@@A@@YAXXZ 0000000180032560 f   image.obj
 0002:00000318       ??constructor$initializer$@LwipImage@@0P6AXXZEA@@3P6AXXZEA 0000000180033318     image.obj
 0002:00000338       ?__scrt_initialize_tss_var@@3P6AHXZEA 0000000180033338     LIBCMT:thread_safe_statics.obj
 0002:000004f8       GS_ExceptionPointers       00000001800334f8     LIBCMT:gs_report.obj
 0002:00000570       ?ExceptionTemplate@?1??_CxxThrowException@@9@4UEHExceptionRecord@@B 0000000180033570     libvcruntime:throw.obj
 0002:000005b0       ?module_names@?A0x49c8dc86@@3QBQEB_WB 00000001800335b0     libvcruntime:winapi_downlevel.obj
 0002:0000067c       ?candidate_modules@?1??try_get_EventRegister@@YAP6AKPEBU_GUID@@P6AX0KE_K1PEAU_EVENT_FILTER_DESCRIPTOR@@PEAX@Z3PEA_K@ZXZ@4QBW4module_id@?A0x49c8dc86@@B 000000018003367c     libvcruntime:winapi_downlevel.obj
 0002:00000690       ?candidate_modules@?1??try_get_EventSetInformation@@YAP6AK_KW4_EVENT_INFO_CLASS@@PEAXK@ZXZ@4QBW4module_id@?A0x49c8dc86@@B 0000000180033690     libvcruntime:winapi_downlevel.obj
 0002:000006ac       ?candidate_modules@?1??try_get_EventUnregister@@YAP6AK_K@ZXZ@4QBW4module_id@?A0x49c8dc86@@B 00000001800336ac     libvcruntime:winapi_downlevel.obj
 0002:000006c0       ?candidate_modules@?1??try_get_EventWriteTransfer@@YAP6AK_KPEBU_EVENT_DESCRIPTOR@@PEBU_GUID@@2KPEAU_EVENT_DATA_DESCRIPTOR@@@ZXZ@4QBW4module_id@?A0x49c8dc86@@B 00000001800336c0     libvcruntime:winapi_downlevel.obj
 0002:000006e0       ?candidate_modules@?1??try_get_FlsAlloc@@YAP6AKP6AXPEAX@Z@ZXZ@4QBW4module_id@?A0x49c8dc86@@B 00000001800336e0     libvcruntime:winapi_downlevel.obj
 0002:000006f8       ?candidate_modules@?1??try_get_FlsFree@@YAP6AHK@ZXZ@4QBW4module_id@?A0x49c8dc86@@B 00000001800336f8     libvcruntime:winapi_downlevel.obj
 0002:00000708       ?candidate_modules@?1??try_get_FlsGetValue@@YAP6APEAXK@ZXZ@4QBW4module_id@?A0x49c8dc86@@B 0000000180033708     libvcruntime:winapi_downlevel.obj
 0002:00000720       ?candidate_modules@?1??try_get_FlsSetValue@@YAP6AHKPEAX@ZXZ@4QBW4module_id@?A0x49c8dc86@@B 0000000180033720     libvcruntime:winapi_downlevel.obj
 0002:00000738       ?candidate_modules@?1??try_get_InitializeCriticalSectionEx@@YAP6AHPEAU_RTL_CRITICAL_SECTION@@KK@ZXZ@4QBW4module_id@?A0x49c8dc86@@B 0000000180033738     libvcruntime:winapi_downlevel.obj
 0002:00000790       ?ExceptionTemplate@?1??_UnwindNestedFrames@@9@4U_EXCEPTION_RECORD@@B 0000000180033790     libvcruntime:trnsctrl.obj
 0002:00000830       ?tokenTable@@3QBQEBDB      0000000180033830     libvcruntime:undname.obj
 0002:000008a0       ?nameTable@@3QBQEBDB       00000001800338a0     libvcruntime:undname.obj
 0002:00000b28       ?rttiTable@@3QBQEBDB       0000000180033b28     libvcruntime:undname.obj
 0002:00001670       __acrt_initializers        0000000180034670     libucrt:initialization.obj
 0002:00001760       errtable                   0000000180034760     libucrt:errno.obj
 0002:000018f0       module_names               00000001800348f0     libucrt:winapi_thunks.obj
 0002:00001e20       ?candidate_modules@?1??try_get_AreFileApisANSI@@YAP6AHXZXZ@4QBW4module_id@?A0x63058377@@B 0000000180034e20     libucrt:winapi_thunks.obj
 0002:00001e38       ?candidate_modules@?1??try_get_CompareStringEx@@YAP6AHPEB_WK0H0HPEAU_nlsversioninfo@@PEAX_J@ZXZ@4QBW4module_id@?A0x63058377@@B 0000000180034e38     libucrt:winapi_thunks.obj
 0002:00001e50       ?candidate_modules@?1??try_get_FlsAlloc@@YAP6AKP6AXPEAX@Z@ZXZ@4QBW4module_id@?A0x63058377@@B 0000000180034e50     libucrt:winapi_thunks.obj
 0002:00001e58       ?candidate_modules@?1??try_get_FlsFree@@YAP6AHK@ZXZ@4QBW4module_id@?A0x63058377@@B 0000000180034e58     libucrt:winapi_thunks.obj
 0002:00001e60       ?candidate_modules@?1??try_get_FlsGetValue@@YAP6APEAXK@ZXZ@4QBW4module_id@?A0x63058377@@B 0000000180034e60     libucrt:winapi_thunks.obj
 0002:00001e68       ?candidate_modules@?1??try_get_FlsSetValue@@YAP6AHKPEAX@ZXZ@4QBW4module_id@?A0x63058377@@B 0000000180034e68     libucrt:winapi_thunks.obj
 0002:00001e70       ?candidate_modules@?1??try_get_GetActiveWindow@@YAP6APEAUHWND__@@XZXZ@4QBW4module_id@?A0x63058377@@B 0000000180034e70     libucrt:winapi_thunks.obj
 0002:00001e88       ?candidate_modules@?1??try_get_GetCurrentPackageId@@YAP6AJPEAIPEAE@ZXZ@4QBW4module_id@?A0x63058377@@B 0000000180034e88     libucrt:winapi_thunks.obj
 0002:00001ea8       ?candidate_modules@?1??try_get_GetLastActivePopup@@YAP6APEAUHWND__@@PEAU2@@ZXZ@4QBW4module_id@?A0x63058377@@B 0000000180034ea8     libucrt:winapi_thunks.obj
 0002:00001ec8       ?candidate_modules@?1??try_get_GetProcessWindowStation@@YAP6APEAUHWINSTA__@@XZXZ@4QBW4module_id@?A0x63058377@@B 0000000180034ec8     libucrt:winapi_thunks.obj
 0002:00001ee8       ?candidate_modules@?1??try_get_GetUserObjectInformationW@@YAP6AHPEAXH0KPEAK@ZXZ@4QBW4module_id@?A0x63058377@@B 0000000180034ee8     libucrt:winapi_thunks.obj
 0002:00001f10       ?candidate_modules@?1??try_get_InitializeCriticalSectionEx@@YAP6AHPEAU_RTL_CRITICAL_SECTION@@KK@ZXZ@4QBW4module_id@?A0x63058377@@B 0000000180034f10     libucrt:winapi_thunks.obj
 0002:00001f18       ?candidate_modules@?1??try_get_LCMapStringEx@@YAP6AHPEB_WK0HPEA_WHPEAU_nlsversioninfo@@PEAX_J@ZXZ@4QBW4module_id@?A0x63058377@@B 0000000180034f18     libucrt:winapi_thunks.obj
 0002:00001f30       ?candidate_modules@?1??try_get_LocaleNameToLCID@@YAP6AKPEB_WK@ZXZ@4QBW4module_id@?A0x63058377@@B 0000000180034f30     libucrt:winapi_thunks.obj
 0002:00001f50       ?candidate_modules@?1??try_get_MessageBoxA@@YAP6AHPEAUHWND__@@PEBD1I@ZXZ@4QBW4module_id@?A0x63058377@@B 0000000180034f50     libucrt:winapi_thunks.obj
 0002:00001f68       ?candidate_modules@?1??try_get_MessageBoxW@@YAP6AHPEAUHWND__@@PEB_W1I@ZXZ@4QBW4module_id@?A0x63058377@@B 0000000180034f68     libucrt:winapi_thunks.obj
 0002:00002660       _mb_locale_names           0000000180035660     libucrt:mbctype.obj
 0002:00002ed0       LcidToLocaleNameTable      0000000180035ed0     libucrt:lcidtoname_downlevel.obj
 0002:00004930       LocaleNameToIndexTable     0000000180037930     libucrt:lcidtoname_downlevel.obj
 0002:00006bc0       __real_ninf                0000000180039bc0     libucrt:log10.obj
 0002:00006bd0       __real_inf                 0000000180039bd0     libucrt:log10.obj
 0002:00006be0       __real_neg_qnan            0000000180039be0     libucrt:log10.obj
 0002:00006bf0       __real_qnanbit             0000000180039bf0     libucrt:log10.obj
 0002:00006c00       __int_1023                 0000000180039c00     libucrt:log10.obj
 0002:00006c10       __mask_001                 0000000180039c10     libucrt:log10.obj
 0002:00006c20       __mask_mant                0000000180039c20     libucrt:log10.obj
 0002:00006c30       __mask_mant_top8           0000000180039c30     libucrt:log10.obj
 0002:00006c40       __mask_mant9               0000000180039c40     libucrt:log10.obj
 0002:00006c50       __real_log10_e             0000000180039c50     libucrt:log10.obj
 0002:00006c60       __real_log10_e_lead        0000000180039c60     libucrt:log10.obj
 0002:00006c70       __real_log10_e_tail        0000000180039c70     libucrt:log10.obj
 0002:00006c80       __real_log10_2_lead        0000000180039c80     libucrt:log10.obj
 0002:00006c90       __real_log10_2_tail        0000000180039c90     libucrt:log10.obj
 0002:00006ca0       __real_two                 0000000180039ca0     libucrt:log10.obj
 0002:00006cb0       __real_one                 0000000180039cb0     libucrt:log10.obj
 0002:00006cc0       __real_half                0000000180039cc0     libucrt:log10.obj
 0002:00006cd0       __mask_100                 0000000180039cd0     libucrt:log10.obj
 0002:00006ce0       __real_1_over_512          0000000180039ce0     libucrt:log10.obj
 0002:00006cf0       __real_1_over_2            0000000180039cf0     libucrt:log10.obj
 0002:00006d00       __real_1_over_3            0000000180039d00     libucrt:log10.obj
 0002:00006d10       __real_1_over_4            0000000180039d10     libucrt:log10.obj
 0002:00006d20       __real_1_over_5            0000000180039d20     libucrt:log10.obj
 0002:00006d30       __real_1_over_6            0000000180039d30     libucrt:log10.obj
 0002:00006d40       __real_neg_1023            0000000180039d40     libucrt:log10.obj
 0002:00006d50       __mask_2045                0000000180039d50     libucrt:log10.obj
 0002:00006d60       __real_threshold           0000000180039d60     libucrt:log10.obj
 0002:00006d70       __real_near_one_lt         0000000180039d70     libucrt:log10.obj
 0002:00006d80       __real_near_one_gt         0000000180039d80     libucrt:log10.obj
 0002:00006d90       __real_min_norm            0000000180039d90     libucrt:log10.obj
 0002:00006da0       __real_notsign             0000000180039da0     libucrt:log10.obj
 0002:00006db0       __real_ca1                 0000000180039db0     libucrt:log10.obj
 0002:00006dc0       __real_ca2                 0000000180039dc0     libucrt:log10.obj
 0002:00006dd0       __real_ca3                 0000000180039dd0     libucrt:log10.obj
 0002:00006de0       __real_ca4                 0000000180039de0     libucrt:log10.obj
 0002:00006df0       __mask_lower               0000000180039df0     libucrt:log10.obj
 0002:00006e00       __flag_x_zero              0000000180039e00     libucrt:log10.obj
 0002:00006e04       __flag_x_neg               0000000180039e04     libucrt:log10.obj
 0002:00006e08       __flag_x_nan               0000000180039e08     libucrt:log10.obj
 0002:00008660       __real@433fffffffffffff    000000018003b660     libucrt:fpsr.obj
 0002:00008668       __real@c33fffffffffffff    000000018003b668     libucrt:fpsr.obj
 0002:00008790       ?logo40x38@cimg@cimg_library@@3QBEB 000000018003b790     init.obj
 0002:00009970       ?t_normal@cimg@cimg_library@@3QBDB 000000018003c970     init.obj
 0002:00009971       ?t_normal@cimg@cimg_library@@3QBDB 000000018003c971     image.obj
 0002:00009972       ?t_normal@cimg@cimg_library@@3QBDB 000000018003c972     resize_worker.obj
 0002:00009973       ?t_normal@cimg@cimg_library@@3QBDB 000000018003c973     rotate_worker.obj
 0002:00009974       ?t_normal@cimg@cimg_library@@3QBDB 000000018003c974     blur_worker.obj
 0002:00009975       ?t_normal@cimg@cimg_library@@3QBDB 000000018003c975     crop_worker.obj
 0002:00009976       ?t_normal@cimg@cimg_library@@3QBDB 000000018003c976     mirror_worker.obj
 0002:00009977       ?t_normal@cimg@cimg_library@@3QBDB 000000018003c977     pad_worker.obj
 0002:00009978       ?t_red@cimg@cimg_library@@3QEBDEB 000000018003c978     image.obj
 0002:00009980       ?logo40x38@cimg@cimg_library@@3QBEB 000000018003c980     image.obj
 0002:0000ab60       ?t_bold@cimg@cimg_library@@3QEBDEB 000000018003db60     image.obj
 0002:0000ab68       ?t_green@cimg@cimg_library@@3QEBDEB 000000018003db68     image.obj
 0002:0000ab70       ?logo40x38@cimg@cimg_library@@3QBEB 000000018003db70     resize_worker.obj
 0002:0000bd50       ?t_red@cimg@cimg_library@@3QEBDEB 000000018003ed50     resize_worker.obj
 0002:0000bd58       ?t_bold@cimg@cimg_library@@3QEBDEB 000000018003ed58     resize_worker.obj
 0002:0000bd60       ?t_green@cimg@cimg_library@@3QEBDEB 000000018003ed60     resize_worker.obj
 0002:0000bd68       ?t_red@cimg@cimg_library@@3QEBDEB 000000018003ed68     rotate_worker.obj
 0002:0000bd70       ?logo40x38@cimg@cimg_library@@3QBEB 000000018003ed70     rotate_worker.obj
 0002:0000cf50       ?t_bold@cimg@cimg_library@@3QEBDEB 000000018003ff50     rotate_worker.obj
 0002:0000cf58       ?t_green@cimg@cimg_library@@3QEBDEB 000000018003ff58     rotate_worker.obj
 0002:0000cf60       ?logo40x38@cimg@cimg_library@@3QBEB 000000018003ff60     blur_worker.obj
 0002:0000e140       ?logo40x38@cimg@cimg_library@@3QBEB 0000000180041140     crop_worker.obj
 0002:0000f320       ?t_red@cimg@cimg_library@@3QEBDEB 0000000180042320     crop_worker.obj
 0002:0000f328       ?t_bold@cimg@cimg_library@@3QEBDEB 0000000180042328     crop_worker.obj
 0002:0000f330       ?t_green@cimg@cimg_library@@3QEBDEB 0000000180042330     crop_worker.obj
 0002:0000f338       ?t_red@cimg@cimg_library@@3QEBDEB 0000000180042338     mirror_worker.obj
 0002:0000f340       ?logo40x38@cimg@cimg_library@@3QBEB 0000000180042340     mirror_worker.obj
 0002:00010520       ?t_bold@cimg@cimg_library@@3QEBDEB 0000000180043520     mirror_worker.obj
 0002:00010528       ?t_green@cimg@cimg_library@@3QEBDEB 0000000180043528     mirror_worker.obj
 0002:00010530       ?logo40x38@cimg@cimg_library@@3QBEB 0000000180043530     pad_worker.obj
 0002:00011710       ?t_red@cimg@cimg_library@@3QEBDEB 0000000180044710     pad_worker.obj
 0002:00011718       ?t_bold@cimg@cimg_library@@3QEBDEB 0000000180044718     pad_worker.obj
 0002:00011720       ?t_green@cimg@cimg_library@@3QEBDEB 0000000180044720     pad_worker.obj
 0002:00011728       ?t_red@cimg@cimg_library@@3QEBDEB 0000000180044728     sharpen_worker.obj
 0002:00011730       ?logo40x38@cimg@cimg_library@@3QBEB 0000000180044730     sharpen_worker.obj
 0002:00012910       ?t_normal@cimg@cimg_library@@3QBDB 0000000180045910     sharpen_worker.obj
 0002:00012911       ?t_normal@cimg@cimg_library@@3QBDB 0000000180045911     hsla_worker.obj
 0002:00012912       ?t_normal@cimg@cimg_library@@3QBDB 0000000180045912     opacify_worker.obj
 0002:00012913       ?t_normal@cimg@cimg_library@@3QBDB 0000000180045913     paste_worker.obj
 0002:00012914       ?t_normal@cimg@cimg_library@@3QBDB 0000000180045914     setpixel_worker.obj
 0002:00012918       ?t_green@cimg@cimg_library@@3QEBDEB 0000000180045918     sharpen_worker.obj
 0002:00012920       ?t_bold@cimg@cimg_library@@3QEBDEB 0000000180045920     sharpen_worker.obj
 0002:00012928       ?t_bold@cimg@cimg_library@@3QEBDEB 0000000180045928     paste_worker.obj
 0002:00012930       ?logo40x38@cimg@cimg_library@@3QBEB 0000000180045930     hsla_worker.obj
 0002:00013b10       ?logo40x38@cimg@cimg_library@@3QBEB 0000000180046b10     opacify_worker.obj
 0002:00014cf0       ?logo40x38@cimg@cimg_library@@3QBEB 0000000180047cf0     paste_worker.obj
 0002:00015ed0       ?t_red@cimg@cimg_library@@3QEBDEB 0000000180048ed0     paste_worker.obj
 0002:00015ed8       ?t_green@cimg@cimg_library@@3QEBDEB 0000000180048ed8     paste_worker.obj
 0002:00015ee0       ?logo40x38@cimg@cimg_library@@3QBEB 0000000180048ee0     setpixel_worker.obj
 0002:00018b90       $cppxdata$??0?$CImg@E@cimg_library@@QEAA@IIII@Z 000000018004bb90     image.obj
 0002:00018bb8       $cppxdata$??0?$CImg@E@cimg_library@@QEAA@AEBU01@@Z 000000018004bbb8     image.obj
 0002:00018be0       $cppxdata$??0?$CImg@D@cimg_library@@QEAA@IIII@Z 000000018004bbe0     image.obj
 0002:00018c08       $cppxdata$?assign@?$CImg@D@cimg_library@@QEAAAEAU12@IIII@Z 000000018004bc08     image.obj
 0002:00018c30       $cppxdata$??0?$CImg@E@cimg_library@@QEAA@QEBEIIII_N@Z 000000018004bc30     image.obj
 0002:00018c58       $cppxdata$?setPixel@LwipImage@@SAXAEBV?$FunctionCallbackInfo@VValue@v8@@@Nan@@@Z 000000018004bc58     image.obj
 0002:00018c80       $cppxdata$?paste@LwipImage@@SAXAEBV?$FunctionCallbackInfo@VValue@v8@@@Nan@@@Z 000000018004bc80     image.obj
 0002:00018ca8       $cppxdata$?opacify@LwipImage@@SAXAEBV?$FunctionCallbackInfo@VValue@v8@@@Nan@@@Z 000000018004bca8     image.obj
 0002:00018cd0       $cppxdata$?hslaAdj@LwipImage@@SAXAEBV?$FunctionCallbackInfo@VValue@v8@@@Nan@@@Z 000000018004bcd0     image.obj
 0002:00018cf8       $cppxdata$?sharpen@LwipImage@@SAXAEBV?$FunctionCallbackInfo@VValue@v8@@@Nan@@@Z 000000018004bcf8     image.obj
 0002:00018d20       $cppxdata$?pad@LwipImage@@SAXAEBV?$FunctionCallbackInfo@VValue@v8@@@Nan@@@Z 000000018004bd20     image.obj
 0002:00018d48       $cppxdata$?mirror@LwipImage@@SAXAEBV?$FunctionCallbackInfo@VValue@v8@@@Nan@@@Z 000000018004bd48     image.obj
 0002:00018d70       $cppxdata$?crop@LwipImage@@SAXAEBV?$FunctionCallbackInfo@VValue@v8@@@Nan@@@Z 000000018004bd70     image.obj
 0002:00018d98       $cppxdata$?blur@LwipImage@@SAXAEBV?$FunctionCallbackInfo@VValue@v8@@@Nan@@@Z 000000018004bd98     image.obj
 0002:00018dc0       $cppxdata$?rotate@LwipImage@@SAXAEBV?$FunctionCallbackInfo@VValue@v8@@@Nan@@@Z 000000018004bdc0     image.obj
 0002:00018de8       $cppxdata$?resize@LwipImage@@SAXAEBV?$FunctionCallbackInfo@VValue@v8@@@Nan@@@Z 000000018004bde8     image.obj
 0002:00018e10       $cppxdata$?New@LwipImage@@SAXAEBV?$FunctionCallbackInfo@VValue@v8@@@Nan@@@Z 000000018004be10     image.obj
 0002:00018e38       $cppxdata$??0LwipImage@@QEAA@PEAE_K1@Z 000000018004be38     image.obj
 0002:00018e60       $cppxdata$??__F?constructor@LwipImage@@0V?$Persistent@VFunctionTemplate@v8@@V?$NonCopyablePersistentTraits@VFunctionTemplate@v8@@@2@@Nan@@A@@YAXXZ 000000018004be60     image.obj
 0002:00018e88       $cppxdata$?strbuffersize@cimg@cimg_library@@YAPEBDK@Z 000000018004be88     image.obj
 0002:00018eb0       $cppxdata$?temporary_path@cimg@cimg_library@@YAPEBDQEBD_N@Z 000000018004beb0     image.obj
 0002:00018ed8       $cppxdata$??0CImgIOException@cimg_library@@QEAA@AEBU01@@Z 000000018004bed8     image.obj
 0002:00018ed8       $cppxdata$??0CImgArgumentException@cimg_library@@QEAA@AEBU01@@Z 000000018004bed8     image.obj
 0002:00018ed8       $cppxdata$??0CImgInstanceException@cimg_library@@QEAA@AEBU01@@Z 000000018004bed8     image.obj
 0002:00018f00       $cppxdata$??0CImgIOException@cimg_library@@QEAA@QEBDZZ 000000018004bf00     image.obj
 0002:00018f28       $cppxdata$??0CImgInstanceException@cimg_library@@QEAA@QEBDZZ 000000018004bf28     image.obj
 0002:00018f50       $cppxdata$??0CImgArgumentException@cimg_library@@QEAA@QEBDZZ 000000018004bf50     image.obj
 0002:00018f78       $cppxdata$??0CImgException@cimg_library@@QEAA@AEBU01@@Z 000000018004bf78     image.obj
 0002:00018fa0       $cppxdata$??1?$Persistent@VObject@v8@@V?$NonCopyablePersistentTraits@VObject@v8@@@2@@Nan@@QEAA@XZ 000000018004bfa0     image.obj
 0002:00018fc8       $cppxdata$??0Callback@Nan@@QEAA@AEBV?$Local@VFunction@v8@@@v8@@@Z 000000018004bfc8     image.obj
 0002:00018ff0       $cppxdata$?New@?$Factory@VFunctionTemplate@v8@@@imp@Nan@@SA?AV?$Local@VFunctionTemplate@v8@@@v8@@P6AXAEBV?$FunctionCallbackInfo@VValue@v8@@@3@@ZV?$Local@VValue@v8@@@5@V?$Local@VSignature@v8@@@5@@Z 000000018004bff0     image.obj
 0002:00019018       $cppxdata$?WeakCallback@ObjectWrap@node@@CAXAEBV?$WeakCallbackData@VObject@v8@@VObjectWrap@node@@@v8@@@Z 000000018004c018     image.obj
 0002:00019040       $cppxdata$??1ObjectWrap@node@@UEAA@XZ 000000018004c040     image.obj
 0002:00019068       $cppxdata$?Init@LwipImage@@SAXV?$Local@VObject@v8@@@v8@@@Z 000000018004c068     image.obj
 0002:00019090       $cppxdata$?assign@?$CImg@E@cimg_library@@QEAAAEAU12@QEBEIIII@Z 000000018004c090     resize_worker.obj
 0002:000190b8       $cppxdata$??0?$CImg@E@cimg_library@@QEAA@AEBU01@_N@Z 000000018004c0b8     resize_worker.obj
 0002:000190e0       $cppxdata$??0?$CImg@M@cimg_library@@QEAA@IIII@Z 000000018004c0e0     resize_worker.obj
 0002:00019108       $cppxdata$??0?$CImg@M@cimg_library@@QEAA@IIIIAEBM@Z 000000018004c108     resize_worker.obj
 0002:00019130       $cppxdata$??0?$CImg@E@cimg_library@@QEAA@IIIIAEBE@Z 000000018004c130     resize_worker.obj
 0002:00019158       $cppxdata$?assign@?$CImg@E@cimg_library@@QEAAAEAU12@IIII@Z 000000018004c158     resize_worker.obj
 0002:00019180       $cppxdata$?get_crop@?$CImg@E@cimg_library@@QEBA?AU12@HHHHHHHH_N@Z 000000018004c180     resize_worker.obj
 0002:000191a8       $cppxdata$?draw_image@?$CImg@E@cimg_library@@QEAAAEAU12@HHHHAEBU12@M@Z 000000018004c1a8     resize_worker.obj
 0002:000191d0       $cppxdata$??0?$CImg@I@cimg_library@@QEAA@IIII@Z 000000018004c1d0     resize_worker.obj
 0002:000191f8       $cppxdata$?get_resize@?$CImg@E@cimg_library@@QEBA?AU12@HHHHHIMMMM@Z 000000018004c1f8     resize_worker.obj
 0002:00019220       $cppxdata$??0?$CImg@K@cimg_library@@QEAA@IIII@Z 000000018004c220     resize_worker.obj
 0002:00019248       $cppxdata$?resize@?$CImg@E@cimg_library@@QEAAAEAU12@HHHHHIMMMM@Z 000000018004c248     resize_worker.obj
 0002:00019270       $cppxdata$?Execute@ResizeWorker@@UEAAXXZ 000000018004c270     resize_worker.obj
 0002:00019298       $cppxdata$?HandleErrorCallback@AsyncWorker@Nan@@MEAAXXZ 000000018004c298     resize_worker.obj
 0002:000192c0       $cppxdata$?WorkComplete@AsyncWorker@Nan@@UEAAXXZ 000000018004c2c0     resize_worker.obj
 0002:000192e8       $cppxdata$??1AsyncWorker@Nan@@UEAA@XZ 000000018004c2e8     resize_worker.obj
 0002:00019310       $cppxdata$??0AsyncWorker@Nan@@QEAA@PEAVCallback@1@@Z 000000018004c310     resize_worker.obj
 0002:00019338       $cppxdata$?Call_@Callback@Nan@@AEBA?AV?$Local@VValue@v8@@@v8@@PEAVIsolate@4@V?$Local@VObject@v8@@@4@HQEAV34@@Z 000000018004c338     resize_worker.obj
 0002:00019360       $cppxdata$?get_rotate@?$CImg@E@cimg_library@@QEBA?AU12@MII@Z 000000018004c360     rotate_worker.obj
 0002:00019388       $cppxdata$?Execute@RotateWorker@@UEAAXXZ 000000018004c388     rotate_worker.obj
 0002:000193b0       $cppxdata$?crop@?$CImg@E@cimg_library@@QEAAAEAU12@HHHHHHHH_N@Z 000000018004c3b0     crop_worker.obj
 0002:000193d8       $cppxdata$?Execute@CropWorker@@UEAAXXZ 000000018004c3d8     crop_worker.obj
 0002:00019400       $cppxdata$?Execute@MirrorWorker@@UEAAXXZ 000000018004c400     mirror_worker.obj
 0002:00019428       $cppxdata$?Execute@PadWorker@@UEAAXXZ 000000018004c428     pad_worker.obj
 0002:00019450       $cppxdata$??$?YE@?$CImg@M@cimg_library@@QEAAAEAU01@AEBU?$CImg@E@1@@Z 000000018004c450     sharpen_worker.obj
 0002:00019478       $cppxdata$?sharpen@?$CImg@E@cimg_library@@QEAAAEAU12@M_NMMM@Z 000000018004c478     sharpen_worker.obj
 0002:000194a0       $cppxdata$?Execute@SharpenWorker@@UEAAXXZ 000000018004c4a0     sharpen_worker.obj
 0002:000194c8       $cppxdata$?Execute@PasteWorker@@UEAAXXZ 000000018004c4c8     paste_worker.obj
 0002:000194f0       $cppxdata$??0PasteWorker@@QEAA@_K0AEAV?$Local@VObject@v8@@@v8@@00PEAU?$CImg@E@cimg_library@@PEAVCallback@Nan@@@Z 000000018004c4f0     paste_worker.obj
 0002:00019520       L_real_piby2_1             000000018004c520     libucrt:cos.obj
 0002:00019530       L_real_piby2_1tail         000000018004c530     libucrt:cos.obj
 0002:00019540       L_real_piby2_2             000000018004c540     libucrt:cos.obj
 0002:00019550       L_real_piby2_2tail         000000018004c550     libucrt:cos.obj
 0002:00019560       L_one                      000000018004c560     libucrt:cos.obj
 0002:00019570       L_signbit                  000000018004c570     libucrt:cos.obj
 0002:00019580       L_int_one                  000000018004c580     libucrt:cos.obj
 0002:00019590       L_int_two                  000000018004c590     libucrt:cos.obj
 0002:000195a0       L_2_by_pi                  000000018004c5a0     libucrt:cos.obj
 0002:000195a8       L_one_half                 000000018004c5a8     libucrt:cos.obj
 0002:000195b0       L_neg_one_half             000000018004c5b0     libucrt:cos.obj
 0002:000195b8       L_two_to_neg_27            000000018004c5b8     libucrt:cos.obj
 0002:000195c0       L_two_to_neg_13            000000018004c5c0     libucrt:cos.obj
 0002:000195c8       L_piby4                    000000018004c5c8     libucrt:cos.obj
 0002:000195d0       L_small_arg_cw             000000018004c5d0     libucrt:cos.obj
 0002:000195d8       L_small_arg_bdl            000000018004c5d8     libucrt:cos.obj
 0002:000195e0       L_sign_mask                000000018004c5e0     libucrt:cos.obj
 0002:000195e8       L__inf_mask_64             000000018004c5e8     libucrt:cos.obj
 0002:000195f0       L_2_to_32                  000000018004c5f0     libucrt:cos.obj
 0002:00019600       L_real_one                 000000018004c600     libucrt:cosf.obj
 0002:00019610       L_one_half                 000000018004c610     libucrt:cosf.obj
 0002:00019620       L_2bypi                    000000018004c620     libucrt:cosf.obj
 0002:00019630       L_one_sixth                000000018004c630     libucrt:cosf.obj
 0002:00019640       L_piby2                    000000018004c640     libucrt:cosf.obj
 0002:00019650       L_piby2_1                  000000018004c650     libucrt:cosf.obj
 0002:00019660       L_piby2_1tail              000000018004c660     libucrt:cosf.obj
 0002:00019670       L_piby2_2                  000000018004c670     libucrt:cosf.obj
 0002:00019680       L_piby2_2tail              000000018004c680     libucrt:cosf.obj
 0002:00019690       L_large_x_sse2             000000018004c690     libucrt:cosf.obj
 0002:000196a0       L_large_x_fma3             000000018004c6a0     libucrt:cosf.obj
 0002:000196b0       L_sign_mask                000000018004c6b0     libucrt:cosf.obj
 0002:000196c0       L__int_three               000000018004c6c0     libucrt:cosf.obj
 0002:000196d0       L__min_norm_double         000000018004c6d0     libucrt:cosf.obj
 0002:000196e0       L_two_to_neg_7             000000018004c6e0     libucrt:cosf.obj
 0002:000196f0       L_two_to_neg_13            000000018004c6f0     libucrt:cosf.obj
 0002:00019700       L_two_to_32_float          000000018004c700     libucrt:cosf.obj
 0002:00019708       L_one_float                000000018004c708     libucrt:cosf.obj
 0002:00019710       L_inf_mask_32              000000018004c710     libucrt:cosf.obj
 0002:00019720       __real_inf                 000000018004c720     libucrt:expf.obj
 0002:00019730       __real_p8192               000000018004c730     libucrt:expf.obj
 0002:00019740       __real_m9600               000000018004c740     libucrt:expf.obj
 0002:00019750       __real_64_by_log2          000000018004c750     libucrt:expf.obj
 0002:00019760       __real_log2_by_64          000000018004c760     libucrt:expf.obj
 0002:00019770       __real_1_by_6              000000018004c770     libucrt:expf.obj
 0002:00019780       __real_1_by_2              000000018004c780     libucrt:expf.obj
 0002:00019790       __real_ninf                000000018004c790     libucrt:expf.obj
 0002:00019794       __real_qnanbit             000000018004c794     libucrt:expf.obj
 0002:00019798       __max_exp_arg              000000018004c798     libucrt:expf.obj
 0002:0001979c       __flag_x_nan               000000018004c79c     libucrt:expf.obj
 0002:000197a0       __flag_y_zero              000000018004c7a0     libucrt:expf.obj
 0002:000197a4       __flag_y_inf               000000018004c7a4     libucrt:expf.obj
 0002:000197b0       __flag_x_one_y_snan        000000018004c7b0     libucrt:powf.obj
 0002:000197b4       __flag_x_zero_z_inf        000000018004c7b4     libucrt:powf.obj
 0002:000197b8       __flag_x_nan               000000018004c7b8     libucrt:powf.obj
 0002:000197bc       __flag_y_nan               000000018004c7bc     libucrt:powf.obj
 0002:000197c0       __flag_x_nan_y_nan         000000018004c7c0     libucrt:powf.obj
 0002:000197c4       __flag_x_neg_y_notint      000000018004c7c4     libucrt:powf.obj
 0002:000197c8       __flag_z_zero              000000018004c7c8     libucrt:powf.obj
 0002:000197cc       __flag_z_denormal          000000018004c7cc     libucrt:powf.obj
 0002:000197d0       __flag_z_inf               000000018004c7d0     libucrt:powf.obj
 0002:000197d4       L__1_by_3                  000000018004c7d4     libucrt:powf.obj
 0002:000197dc       L__log2                    000000018004c7dc     libucrt:powf.obj
 0002:000197e4       L__max_exp_arg             000000018004c7e4     libucrt:powf.obj
 0002:000197ec       L__min_exp_arg             000000018004c7ec     libucrt:powf.obj
 0002:000197f4       L__real_log2_by_64         000000018004c7f4     libucrt:powf.obj
 0002:000197fc       L__1_by_6                  000000018004c7fc     libucrt:powf.obj
 0002:00019804       L__real_threshold          000000018004c804     libucrt:powf.obj
 0002:0001980c       L__real_one                000000018004c80c     libucrt:powf.obj
 0002:00019814       L__real_two                000000018004c814     libucrt:powf.obj
 0002:0001981c       L__neg_zero                000000018004c81c     libucrt:powf.obj
 0002:00019830       L__real_ca42               000000018004c830     libucrt:powf.obj
 0002:00019838       L__real_ca4                000000018004c838     libucrt:powf.obj
 0002:00019840       L__real_ca31               000000018004c840     libucrt:powf.obj
 0002:00019848       L__real_ca3                000000018004c848     libucrt:powf.obj
 0002:00019850       L__clear_sign              000000018004c850     libucrt:powf.obj
 0002:00019860       L__real_64_by_log2         000000018004c860     libucrt:powf.obj
 0002:00019870       L__1_by_2                  000000018004c870     libucrt:powf.obj
 0002:00019880       L__1023                    000000018004c880     libucrt:powf.obj
 0002:00019890       L__xexp_bits_xmantissa_bits 000000018004c890     libucrt:powf.obj
 0002:0001a0b0       L_real_piby2_1             000000018004d0b0     libucrt:sin.obj
 0002:0001a0c0       L_real_piby2_1tail         000000018004d0c0     libucrt:sin.obj
 0002:0001a0d0       L_real_piby2_2             000000018004d0d0     libucrt:sin.obj
 0002:0001a0e0       L_real_piby2_2tail         000000018004d0e0     libucrt:sin.obj
 0002:0001a0f0       L_one                      000000018004d0f0     libucrt:sin.obj
 0002:0001a100       L_signbit                  000000018004d100     libucrt:sin.obj
 0002:0001a110       L_int_one                  000000018004d110     libucrt:sin.obj
 0002:0001a120       L_int_two                  000000018004d120     libucrt:sin.obj
 0002:0001a130       L_int_three                000000018004d130     libucrt:sin.obj
 0002:0001a140       L_2_by_pi                  000000018004d140     libucrt:sin.obj
 0002:0001a148       L_one_half                 000000018004d148     libucrt:sin.obj
 0002:0001a150       L_one_sixth                000000018004d150     libucrt:sin.obj
 0002:0001a158       L_two_to_neg_27            000000018004d158     libucrt:sin.obj
 0002:0001a160       L_two_to_neg_13            000000018004d160     libucrt:sin.obj
 0002:0001a168       L_piby4                    000000018004d168     libucrt:sin.obj
 0002:0001a170       L_small_arg_cw             000000018004d170     libucrt:sin.obj
 0002:0001a178       L_small_arg_bdl            000000018004d178     libucrt:sin.obj
 0002:0001a180       L__inf_mask_64             000000018004d180     libucrt:sin.obj
 0002:0001a188       L_near_one                 000000018004d188     libucrt:sin.obj
 0002:0001a190       L_signbit                  000000018004d190     libucrt:sinf.obj
 0002:0001a1a0       L_sign_mask                000000018004d1a0     libucrt:sinf.obj
 0002:0001a1b0       L_one                      000000018004d1b0     libucrt:sinf.obj
 0002:0001a1c0       L_int_three                000000018004d1c0     libucrt:sinf.obj
 0002:0001a1d0       L_one_half                 000000018004d1d0     libucrt:sinf.obj
 0002:0001a1e0       L_twobypi                  000000018004d1e0     libucrt:sinf.obj
 0002:0001a1f0       L_piby2_1                  000000018004d1f0     libucrt:sinf.obj
 0002:0001a200       L_one_sixth                000000018004d200     libucrt:sinf.obj
 0002:0001a210       L_piby2_1tail              000000018004d210     libucrt:sinf.obj
 0002:0001a220       L_piby2_2                  000000018004d220     libucrt:sinf.obj
 0002:0001a230       L_piby2_2tail              000000018004d230     libucrt:sinf.obj
 0002:0001a240       L_inf_mask_32              000000018004d240     libucrt:sinf.obj
 0002:0001a250       L_int_two                  000000018004d250     libucrt:sinf.obj
 0002:0001a260       L_piby2_lead               000000018004d260     libucrt:sinf.obj
 0002:0001a270       L_piby4                    000000018004d270     libucrt:sinf.obj
 0002:0001a280       L_mask_3f2                 000000018004d280     libucrt:sinf.obj
 0002:0001a290       L_mask_3f8                 000000018004d290     libucrt:sinf.obj
 0002:0001a2a0       L_large_x_fma3             000000018004d2a0     libucrt:sinf.obj
 0002:0001a2a8       L_large_x_sse2             000000018004d2a8     libucrt:sinf.obj
 0002:0001a2b0       L_near_one                 000000018004d2b0     libucrt:sinf.obj
 0002:0001a2b8       L_two_to_32                000000018004d2b8     libucrt:sinf.obj
 0002:0001a380       L__piby2_part3_piby2_lead  000000018004d380     libucrt:remainder_piby2_forasm.obj
 0002:0001a390       L__piby2_part1             000000018004d390     libucrt:remainder_piby2_forasm.obj
 0002:0001a3a0       L__piby2_part2             000000018004d3a0     libucrt:remainder_piby2_forasm.obj
 0002:0001a3b0       L_piby2_1                  000000018004d3b0     libucrt:remainder_piby2_forasm.obj
 0002:0001a3c0       L_piby2_2                  000000018004d3c0     libucrt:remainder_piby2_forasm.obj
 0002:0001a3d0       L_piby2_3                  000000018004d3d0     libucrt:remainder_piby2_forasm.obj
 0002:0001a3e0       L_piby2_1tail              000000018004d3e0     libucrt:remainder_piby2_forasm.obj
 0002:0001a3f0       L_piby2_2tail              000000018004d3f0     libucrt:remainder_piby2_forasm.obj
 0002:0001a400       L_piby2_3tail              000000018004d400     libucrt:remainder_piby2_forasm.obj
 0002:0001a410       L_twobypi                  000000018004d410     libucrt:remainder_piby2_forasm.obj
 0002:0001a420       L_point_five               000000018004d420     libucrt:remainder_piby2_forasm.obj
 0002:0001a430       L_int_three                000000018004d430     libucrt:remainder_piby2_forasm.obj
 0002:0001a440       L_inf_mask_64              000000018004d440     libucrt:remainder_piby2_forasm.obj
 0002:0001a450       L_signbit                  000000018004d450     libucrt:remainder_piby2_forasm.obj
 0002:0001a460       L_int_1                    000000018004d460     libucrt:remainder_piby2_forasm.obj
 0002:0001a470       L_int_15                   000000018004d470     libucrt:remainder_piby2_forasm.obj
 0002:0001a478       L_int_48                   000000018004d478     libucrt:remainder_piby2_forasm.obj
 0002:0001a480       L_3pio4                    000000018004d480     libucrt:remainder_piby2_forasm.obj
 0002:0001a488       L_5pio4                    000000018004d488     libucrt:remainder_piby2_forasm.obj
 0002:0001a490       L_7pio4                    000000018004d490     libucrt:remainder_piby2_forasm.obj
 0002:0001a498       L_9pio4                    000000018004d498     libucrt:remainder_piby2_forasm.obj
 0002:0001a4a0       L__2_by_pi_bits            000000018004d4a0     libucrt:remainder_piby2_forasm.obj
 0002:0001a540       L_piby2_lead               000000018004d540     libucrt:remainder_piby2_forfma3.obj
 0002:0001a550       L_fff800                   000000018004d550     libucrt:remainder_piby2_forfma3.obj
 0002:0001a560       L_piby2_part1              000000018004d560     libucrt:remainder_piby2_forfma3.obj
 0002:0001a570       L_piby2_part2              000000018004d570     libucrt:remainder_piby2_forfma3.obj
 0002:0001a580       L_piby2_part3              000000018004d580     libucrt:remainder_piby2_forfma3.obj
 0002:0001a590       L_piby2_1                  000000018004d590     libucrt:remainder_piby2_forfma3.obj
 0002:0001a5a0       L_piby2_2                  000000018004d5a0     libucrt:remainder_piby2_forfma3.obj
 0002:0001a5b0       L_piby2_3                  000000018004d5b0     libucrt:remainder_piby2_forfma3.obj
 0002:0001a5c0       L_piby2_1tail              000000018004d5c0     libucrt:remainder_piby2_forfma3.obj
 0002:0001a5d0       L_piby2_2tail              000000018004d5d0     libucrt:remainder_piby2_forfma3.obj
 0002:0001a5e0       L_piby2_3tail              000000018004d5e0     libucrt:remainder_piby2_forfma3.obj
 0002:0001a5f0       L_sign_mask                000000018004d5f0     libucrt:remainder_piby2_forfma3.obj
 0002:0001a600       L_twobypi                  000000018004d600     libucrt:remainder_piby2_forfma3.obj
 0002:0001a610       L_point_five               000000018004d610     libucrt:remainder_piby2_forfma3.obj
 0002:0001a620       L_int_three                000000018004d620     libucrt:remainder_piby2_forfma3.obj
 0002:0001a630       L_inf_mask_64              000000018004d630     libucrt:remainder_piby2_forfma3.obj
 0002:0001a640       L_signbit                  000000018004d640     libucrt:remainder_piby2_forfma3.obj
 0002:0001a650       L_r                        000000018004d650     libucrt:remainder_piby2_forfma3.obj
 0002:0001a660       L_xc1                      000000018004d660     libucrt:remainder_piby2_forfma3.obj
 0002:0001a670       L_xc2                      000000018004d670     libucrt:remainder_piby2_forfma3.obj
 0002:0001a680       L_xc3                      000000018004d680     libucrt:remainder_piby2_forfma3.obj
 0002:0001a690       L_sigma                    000000018004d690     libucrt:remainder_piby2_forfma3.obj
 0002:0001a6b0       L__piby2                   000000018004d6b0     libucrt:remainder_piby2f_forasm.obj
 0002:0001a9c0       L__piby2                   000000018004d9c0     libucrt:remainder_piby2f_forc.obj
 0002:0001a9d0       L__2_by_pi_bits            000000018004d9d0     libucrt:remainder_piby2f_forc.obj
 0002:0001af08       ?_TlgEvent@?3??__telemetry_main_invoke_trigger@@9@4U<unnamed-type-_TlgEvent>@?3??1@YAXQEAUHINSTANCE__@@@Z@B 000000018004df08     libvcruntime:telemetry.obj
 0002:0001af44       ?_TlgEvent@?3??__telemetry_main_return_trigger@@9@4U<unnamed-type-_TlgEvent>@?3??1@YAXQEAUHINSTANCE__@@@Z@B 000000018004df44     libvcruntime:telemetry.obj
 0002:0001af7f       ?_Tlg_Microsoft_CRTProviderProv_Meta@@3U<unnamed-type-_Tlg_Microsoft_CRTProviderProv_Meta>@@B 000000018004df7f     libvcruntime:telemetry.obj
 0002:0001b4d0       $unwind$?dllmain_crt_dispatch@@YAHQEAUHINSTANCE__@@KQEAX@Z 000000018004e4d0     LIBCMT:dll_dllmain.obj
 0002:0001b4d0       $unwind$rand               000000018004e4d0     libucrt:rand.obj
 0002:0001b4d0       $unwind$initialize_c       000000018004e4d0     libucrt:initialization.obj
 0002:0001b4d0       $unwind$?state_case_size@?$output_processor@_WV?$string_output_adapter@_W@__crt_stdio_output@@V?$standard_base@_WV?$string_output_adapter@_W@__crt_stdio_output@@@2@@__crt_stdio_output@@AEAA_NXZ 000000018004e4d0     libucrt:output.obj
 0002:0001b4d0       $unwind$_set_errno_from_matherr 000000018004e4d0     libucrt:fpexcept.obj
 0002:0001b4d0       $unwind$??$uninitialize_environment_internal@D@@YAXAEAPEAPEAD@Z 000000018004e4d0     libucrt:environment_initialization.obj
 0002:0001b4d0       $unwind$?state_case_size@?$output_processor@_WV?$stream_output_adapter@_W@__crt_stdio_output@@V?$standard_base@_WV?$stream_output_adapter@_W@__crt_stdio_output@@@2@@__crt_stdio_output@@AEAA_NXZ 000000018004e4d0     libucrt:output.obj
 0002:0001b4d0       $unwind$atexit             000000018004e4d0     LIBCMT:utility.obj
 0002:0001b4d0       $unwind$?output@cimg@cimg_library@@YAPEAU_iobuf@@PEAU3@@Z 000000018004e4d0     image.obj
 0002:0001b4d0       $unwind$?__scrt_uninitialize_thread_safe_statics@@YAXXZ 000000018004e4d0     LIBCMT:thread_safe_statics.obj
 0002:0001b4d0       $unwind$__scrt_acquire_startup_lock 000000018004e4d0     LIBCMT:utility.obj
 0002:0001b4d0       $unwind$_getfpcontrolword  000000018004e4d0     libucrt:_fenvutils.obj
 0002:0001b4d0       $unwind$_getfpstatusword   000000018004e4d0     libucrt:_fenvutils.obj
 0002:0001b4d0       $unwind$__acrt_uninitialize_ptd 000000018004e4d0     libucrt:per_thread_data.obj
 0002:0001b4d0       $unwind$??$uninitialize_environment_internal@_W@@YAXAEAPEAPEA_W@Z 000000018004e4d0     libucrt:environment_initialization.obj
 0002:0001b4d0       $unwind$__acrt_initialize_command_line 000000018004e4d0     libucrt:argv_data.obj
 0002:0001b4d0       $unwind$__acrt_uninitialize_critical 000000018004e4d0     libucrt:initialization.obj
 0002:0001b4d0       $unwind$__acrt_thread_attach 000000018004e4d0     libucrt:initialization.obj
 0002:0001b4d0       $unwind$__vcrt_initialize  000000018004e4d0     libvcruntime:initialization.obj
 0002:0001b4d0       $unwind$__acrt_release_locale_ref 000000018004e4d0     libucrt:locale_refcounting.obj
 0002:0001b4d0       $unwind$?InitAll@@YAXV?$Local@VObject@v8@@@v8@@@Z 000000018004e4d0     init.obj
 0002:0001b4d0       $unwind$_msize             000000018004e4d0     libucrt:msize.obj
 0002:0001b4d0       $unwind$_stricmp           000000018004e4d0     libucrt:stricmp.obj
 0002:0001b4d0       $unwind$_fileno            000000018004e4d0     libucrt:fileno.obj
 0002:0001b4d0       $unwind$__vcrt_uninitialize_telemetry_provider 000000018004e4d0     libvcruntime:telemetry.obj
 0002:0001b4d0       $unwind$_invoke_watson     000000018004e4d0     libucrt:invalid_parameter.obj
 0002:0001b4d0       $unwind$_strnicmp          000000018004e4d0     libucrt:strnicmp.obj
 0002:0001b4d0       $unwind$__vcrt_freefls     000000018004e4d0     libvcruntime:per_thread_data.obj
 0002:0001b4d0       $unwind$__vcrt_uninitialize_critical 000000018004e4d0     libvcruntime:initialization.obj
 0002:0001b4d0       $unwind$__acrt_initialize_heap 000000018004e4d0     libucrt:heap_handle.obj
 0002:0001b4d0       $unwind$__scrt_dllmain_before_initialize_c 000000018004e4d0     LIBCMT:utility.obj
 0002:0001b4d0       $unwind$__acrt_thread_detach 000000018004e4d0     libucrt:initialization.obj
 0002:0001b4d0       $unwind$?state_case_size@?$output_processor@DV?$stream_output_adapter@D@__crt_stdio_output@@V?$standard_base@DV?$stream_output_adapter@D@__crt_stdio_output@@@2@@__crt_stdio_output@@AEAA_NXZ 000000018004e4d0     libucrt:output.obj
 0002:0001b4d0       $unwind$__vcrt_thread_attach 000000018004e4d0     libvcruntime:initialization.obj
 0002:0001b4d0       $unwind$__FrameUnwindFilter 000000018004e4d0     libvcruntime:frame.obj
 0002:0001b4d0       $unwind$__scrt_dllmain_after_initialize_c 000000018004e4d0     LIBCMT:utility.obj
 0002:0001b4d0       $unwind$_get_fmode         000000018004e4d0     libucrt:setmode.obj
 0002:0001b4d0       $unwind$__report_rangecheckfailure 000000018004e4d0     LIBCMT:gs_report.obj
 0002:0001b4d0       $unwind$?__GetCurrentState@@YAHPEA_KPEAU_xDISPATCHER_CONTEXT@@PEBU_s_FuncInfo@@@Z 000000018004e4d0     libvcruntime:ehstate.obj
 0002:0001b4d0       $unwind$__acrt_initialize_multibyte 000000018004e4d0     libucrt:mbctype.obj
 0002:0001b4d0       $unwind$?allocate@?$_Wrap_alloc@V?$allocator@D@std@@@std@@QEAAPEAD_K@Z 000000018004e4d0     mirror_worker.obj
 0002:0001b4d0       $unwind$_statfp            000000018004e4d0     libucrt:fpctrl.obj
 0002:0001b4d0       $unwind$?state_case_normal_tchar@?$output_processor@DV?$string_output_adapter@D@__crt_stdio_output@@V?$standard_base@DV?$string_output_adapter@D@__crt_stdio_output@@@2@@__crt_stdio_output@@AEAA_ND@Z 000000018004e4d0     libucrt:output.obj
 0002:0001b4d0       $unwind$__acrt_initialize_ptd 000000018004e4d0     libucrt:per_thread_data.obj
 0002:0001b4d0       $unwind$uninitialize_environment 000000018004e4d0     libucrt:initialization.obj
 0002:0001b4d0       $unwind$__dcrt_terminate_console_output 000000018004e4d0     libucrt:initcon.obj
 0002:0001b4d0       $unwind$?initialize_multibyte@@YAHXZ 000000018004e4d0     libucrt:multibyte_initializer.obj
 0002:0001b4d0       $unwind$__scrt_dllmain_uninitialize_c 000000018004e4d0     LIBCMT:utility.obj
 0002:0001b4d0       $unwind$_errno             000000018004e4d0     libucrt:errno.obj
 0002:0001b4d0       $unwind$_get_osfhandle     000000018004e4d0     libucrt:osfinfo.obj
 0002:0001b4d0       $unwind$__acrt_DownlevelLocaleNameToLCID 000000018004e4d0     libucrt:lcidtoname_downlevel.obj
 0002:0001b4d0       $unwind$_set_error_mode    000000018004e4d0     libucrt:set_error_mode.obj
 0002:0001b4d0       $unwind$__vcrt_thread_detach 000000018004e4d0     libvcruntime:initialization.obj
 0002:0001b4d0       $unwind$abort              000000018004e4d0     libucrt:abort.obj
 0002:0001b4d0       $unwind$__doserrno         000000018004e4d0     libucrt:errno.obj
 0002:0001b4d0       $unwind$tolower            000000018004e4d0     libucrt:tolower_toupper.obj
 0002:0001b4d0       $unwind$__std_terminate    000000018004e4d0     libvcruntime:frame.obj
 0002:0001b4d0       $unwind$__pctype_func      000000018004e4d0     libucrt:ctype.obj
 0002:0001b4d0       $unwind$_isatty            000000018004e4d0     libucrt:isatty.obj
 0002:0001b4d0       $unwind$_GetImageBase      000000018004e4d0     libvcruntime:trnsctrl.obj
 0002:0001b4d0       $unwind$__scrt_dllmain_uninitialize_critical 000000018004e4d0     LIBCMT:utility.obj
 0002:0001b4d0       $unwind$?state_case_size@?$output_processor@DV?$string_output_adapter@D@__crt_stdio_output@@V?$format_validation_base@DV?$string_output_adapter@D@__crt_stdio_output@@@2@@__crt_stdio_output@@AEAA_NXZ 000000018004e4d0     libucrt:output.obj
 0002:0001b4d0       $unwind$__GSHandlerCheck   000000018004e4d0     LIBCMT:_gshandler_.obj
 0002:0001b4d0       $unwind$_GetThrowImageBase 000000018004e4d0     libvcruntime:trnsctrl.obj
 0002:0001b4d0       $unwind$__scrt_initialize_default_local_stdio_options 000000018004e4d0     LIBCMT:default_local_stdio_options.obj
 0002:0001b4d0       $unwind$__vcrt_getptd      000000018004e4d0     libvcruntime:per_thread_data.obj
 0002:0001b4d0       $unwind$?state_case_normal_tchar@?$output_processor@DV?$string_output_adapter@D@__crt_stdio_output@@V?$format_validation_base@DV?$string_output_adapter@D@__crt_stdio_output@@@2@@__crt_stdio_output@@AEAA_ND@Z 000000018004e4d0     libucrt:output.obj
 0002:0001b4d0       $unwind$__scrt_dllmain_crt_thread_attach 000000018004e4d0     LIBCMT:utility.obj
 0002:0001b4d0       $unwind$__vcrt_uninitialize_ptd 000000018004e4d0     libvcruntime:per_thread_data.obj
 0002:0001b4d0       $unwind$?validate_stream_is_ansi_if_required@?$__acrt_stdio_char_traits@D@@SA_NQEAU_iobuf@@@Z 000000018004e4d0     libucrt:output.obj
 0002:0001b4d0       $unwind$__scrt_dllmain_crt_thread_detach 000000018004e4d0     LIBCMT:utility.obj
 0002:0001b4d0       $unwind$__dcrt_uninitialize_environments_nolock 000000018004e4d0     libucrt:environment_initialization.obj
 0002:0001b4d0       $unwind$__vcrt_initialize_ptd 000000018004e4d0     libvcruntime:per_thread_data.obj
 0002:0001b4d0       $unwind$_wremove           000000018004e4d0     libucrt:wunlink.obj
 0002:0001b4d0       $unwind$?state_case_size@?$output_processor@DV?$string_output_adapter@D@__crt_stdio_output@@V?$standard_base@DV?$string_output_adapter@D@__crt_stdio_output@@@2@@__crt_stdio_output@@AEAA_NXZ 000000018004e4d0     libucrt:output.obj
 0002:0001b4d8       $unwind$fwprintf           000000018004e4d8     libucrt:assert.obj
 0002:0001b4d8       $unwind$fprintf            000000018004e4d8     image.obj
 0002:0001b4e4       $unwind$??2@YAPEAX_K@Z     000000018004e4e4     LIBCMT:new_scalar.obj
 0002:0001b4e4       $unwind$??0bad_array_new_length@std@@QEAA@AEBV01@@Z 000000018004e4e4     LIBCMT:throw_bad_alloc.obj
 0002:0001b4e4       $unwind$_CreateFrameInfo   000000018004e4e4     libvcruntime:trnsctrl.obj
 0002:0001b4e4       $unwind$_SetThrowImageBase 000000018004e4e4     libvcruntime:trnsctrl.obj
 0002:0001b4e4       $unwind$_IsExceptionObjectToBeDestroyed 000000018004e4e4     libvcruntime:trnsctrl.obj
 0002:0001b4e4       $unwind$remove             000000018004e4e4     libucrt:unlink.obj
 0002:0001b4e4       $unwind$_SetImageBase      000000018004e4e4     libvcruntime:trnsctrl.obj
 0002:0001b4e4       $unwind$_calloc_base       000000018004e4e4     libucrt:calloc_base.obj
 0002:0001b4e4       $unwind$__vcrt_uninitialize_locks 000000018004e4e4     libvcruntime:locks.obj
 0002:0001b4e4       $unwind$__acrt_can_show_message_box 000000018004e4e4     libucrt:winapi_thunks.obj
 0002:0001b4e4       $unwind$__vcrt_initialize_locks 000000018004e4e4     libvcruntime:locks.obj
 0002:0001b4e4       $unwind$?type_case_integer@?$output_processor@DV?$string_output_adapter@D@__crt_stdio_output@@V?$standard_base@DV?$string_output_adapter@D@__crt_stdio_output@@@2@@__crt_stdio_output@@AEAA_NI_N@Z 000000018004e4e4     libucrt:output.obj
 0002:0001b4e4       $unwind$??0?$output_processor@DV?$stream_output_adapter@D@__crt_stdio_output@@V?$standard_base@DV?$stream_output_adapter@D@__crt_stdio_output@@@2@@__crt_stdio_output@@QEAA@AEBV?$stream_output_adapter@D@1@_KQEBDQEAU__crt_locale_pointers@@QEAD@Z 000000018004e4e4     libucrt:output.obj
 0002:0001b4e4       $unwind$??0exception@std@@QEAA@AEBV01@@Z 000000018004e4e4     libcpmt:xthrow.obj
 0002:0001b4e4       $unwind$__acrt_fp_strflt_to_string 000000018004e4e4     libucrt:_fptostr.obj
 0002:0001b4e4       $unwind$fesetenv           000000018004e4e4     libucrt:fesetenv.obj
 0002:0001b4e4       $unwind$??_Gtype_info@@UEAAPEAXI@Z 000000018004e4e4     LIBCMT:std_type_info_static.obj
 0002:0001b4e4       $unwind$?__StateFromIp@@YAHPEBU_s_FuncInfo@@PEAU_xDISPATCHER_CONTEXT@@_J@Z 000000018004e4e4     libvcruntime:ehstate.obj
 0002:0001b4e4       $unwind$?state_case_normal@?$output_processor@DV?$stream_output_adapter@D@__crt_stdio_output@@V?$standard_base@DV?$stream_output_adapter@D@__crt_stdio_output@@@2@@__crt_stdio_output@@AEAA_NXZ 000000018004e4e4     libucrt:output.obj
 0002:0001b4e4       $unwind$_clrfp             000000018004e4e4     libucrt:fpctrl.obj
 0002:0001b4e4       $unwind$?__GetUnwindTryBlock@@YAHPEA_KPEAU_xDISPATCHER_CONTEXT@@PEBU_s_FuncInfo@@@Z 000000018004e4e4     libvcruntime:ehstate.obj
 0002:0001b4e4       $unwind$?state_case_normal_tchar@?$output_processor@DV?$stream_output_adapter@D@__crt_stdio_output@@V?$standard_base@DV?$stream_output_adapter@D@__crt_stdio_output@@@2@@__crt_stdio_output@@AEAA_ND@Z 000000018004e4e4     libucrt:output.obj
 0002:0001b4e4       $unwind$__acrt_uninitialize_stdio 000000018004e4e4     libucrt:_file.obj
 0002:0001b4e4       $unwind$_set_statfp        000000018004e4e4     libucrt:fpctrl.obj
 0002:0001b4e4       $unwind$__acrt_stdio_free_buffer_nolock 000000018004e4e4     libucrt:_freebuf.obj
 0002:0001b4e4       $unwind$__acrt_stdio_allocate_buffer_nolock 000000018004e4e4     libucrt:_getbuf.obj
 0002:0001b4e4       $unwind$?state_case_normal@?$output_processor@DV?$string_output_adapter@D@__crt_stdio_output@@V?$standard_base@DV?$string_output_adapter@D@__crt_stdio_output@@@2@@__crt_stdio_output@@AEAA_NXZ 000000018004e4e4     libucrt:output.obj
 0002:0001b4e4       $unwind$?exit_or_terminate_process@@YAXI@Z 000000018004e4e4     libucrt:exit.obj
 0002:0001b4e4       $unwind$__vcrt_freeptd     000000018004e4e4     libvcruntime:per_thread_data.obj
 0002:0001b4e4       $unwind$load_exe_hook      000000018004e4e4     win_delay_load_hook.obj
 0002:0001b4e4       $unwind$??0bad_alloc@std@@QEAA@AEBV01@@Z 000000018004e4e4     libcpmt:xthrow.obj
 0002:0001b4e4       $unwind$??_Gexception@stdext@@UEAAPEAXI@Z 000000018004e4e4     image.obj
 0002:0001b4e4       $unwind$feholdexcept       000000018004e4e4     libucrt:feholdexcept.obj
 0002:0001b4e4       $unwind$_malloc_base       000000018004e4e4     libucrt:malloc_base.obj
 0002:0001b4e4       $unwind$_clearfp           000000018004e4e4     libucrt:ieee.obj
 0002:0001b4e4       $unwind$??0?$output_processor@DV?$string_output_adapter@D@__crt_stdio_output@@V?$standard_base@DV?$string_output_adapter@D@__crt_stdio_output@@@2@@__crt_stdio_output@@QEAA@AEBV?$string_output_adapter@D@1@_KQEBDQEAU__crt_locale_pointers@@QEAD@Z 000000018004e4e4     libucrt:output.obj
 0002:0001b4e4       $unwind$__vcrt_uninitialize 000000018004e4e4     libvcruntime:initialization.obj
 0002:0001b4e4       $unwind$?type_case_integer@?$output_processor@DV?$stream_output_adapter@D@__crt_stdio_output@@V?$standard_base@DV?$stream_output_adapter@D@__crt_stdio_output@@@2@@__crt_stdio_output@@AEAA_NI_N@Z 000000018004e4e4     libucrt:output.obj
 0002:0001b4e4       $unwind$??0?$output_processor@_WV?$string_output_adapter@_W@__crt_stdio_output@@V?$standard_base@_WV?$string_output_adapter@_W@__crt_stdio_output@@@2@@__crt_stdio_output@@QEAA@AEBV?$string_output_adapter@_W@1@_KQEB_WQEAU__crt_locale_pointers@@QEAD@Z 000000018004e4e4     libucrt:output.obj
 0002:0001b4e4       $unwind$__raise_securityfailure 000000018004e4e4     LIBCMT:gs_report.obj
 0002:0001b4e4       $unwind$wcscat_s           000000018004e4e4     libucrt:wcscat_s.obj
 0002:0001b4e4       $unwind$?Ref@ObjectWrap@node@@MEAAXXZ 000000018004e4e4     image.obj
 0002:0001b4e4       $unwind$_purecall          000000018004e4e4     libvcruntime:purevirt.obj
 0002:0001b4e4       $unwind$?fclose@cimg@cimg_library@@YAHPEAU_iobuf@@@Z 000000018004e4e4     image.obj
 0002:0001b4e4       $unwind$wcscpy_s           000000018004e4e4     libucrt:wcscpy_s.obj
 0002:0001b4e4       $unwind$_Init_thread_header 000000018004e4e4     LIBCMT:thread_safe_statics.obj
 0002:0001b4e4       $unwind$?Unref@ObjectWrap@node@@MEAAXXZ 000000018004e4e4     image.obj
 0002:0001b4e4       $unwind$_Init_thread_abort 000000018004e4e4     LIBCMT:thread_safe_statics.obj
 0002:0001b4e4       $unwind$__acrt_update_locale_info 000000018004e4e4     libucrt:locale_update.obj
 0002:0001b4e4       $unwind$__acrt_update_multibyte_info 000000018004e4e4     libucrt:locale_update.obj
 0002:0001b4e4       $unwind$_Init_thread_footer 000000018004e4e4     LIBCMT:thread_safe_statics.obj
 0002:0001b4e4       $unwind$??1CImgException@cimg_library@@UEAA@XZ 000000018004e4e4     image.obj
 0002:0001b4e4       $unwind$_Init_thread_notify 000000018004e4e4     LIBCMT:thread_safe_statics.obj
 0002:0001b4e4       $unwind$__acrt_initialize_locks 000000018004e4e4     libucrt:locks.obj
 0002:0001b4e4       $unwind$__acrt_freeptd     000000018004e4e4     libucrt:per_thread_data.obj
 0002:0001b4e4       $unwind$??0?$output_processor@DV?$string_output_adapter@D@__crt_stdio_output@@V?$format_validation_base@DV?$string_output_adapter@D@__crt_stdio_output@@@2@@__crt_stdio_output@@QEAA@AEBV?$string_output_adapter@D@1@_KQEBDQEAU__crt_locale_pointers@@QEAD@Z 000000018004e4e4     libucrt:output.obj
 0002:0001b4e4       $unwind$?type_case_integer@?$output_processor@_WV?$stream_output_adapter@_W@__crt_stdio_output@@V?$standard_base@_WV?$stream_output_adapter@_W@__crt_stdio_output@@@2@@__crt_stdio_output@@AEAA_NI_N@Z 000000018004e4e4     libucrt:output.obj
 0002:0001b4e4       $unwind$?state_case_normal@?$output_processor@DV?$string_output_adapter@D@__crt_stdio_output@@V?$format_validation_base@DV?$string_output_adapter@D@__crt_stdio_output@@@2@@__crt_stdio_output@@AEAA_NXZ 000000018004e4e4     libucrt:output.obj
 0002:0001b4e4       $unwind$??0logic_error@std@@QEAA@AEBV01@@Z 000000018004e4e4     libcpmt:xthrow.obj
 0002:0001b4e4       $unwind$??0?$output_processor@_WV?$stream_output_adapter@_W@__crt_stdio_output@@V?$standard_base@_WV?$stream_output_adapter@_W@__crt_stdio_output@@@2@@__crt_stdio_output@@QEAA@AEBV?$stream_output_adapter@_W@1@_KQEB_WQEAU__crt_locale_pointers@@QEAD@Z 000000018004e4e4     libucrt:output.obj
 0002:0001b4e4       $unwind$__std_type_info_destroy_list 000000018004e4e4     libvcruntime:std_type_info.obj
 0002:0001b4e4       $unwind$_fflush_nolock     000000018004e4e4     libucrt:fflush.obj
 0002:0001b4e4       $unwind$__std_exception_destroy 000000018004e4e4     libvcruntime:std_exception.obj
 0002:0001b4e4       $unwind$srand              000000018004e4e4     libucrt:rand.obj
 0002:0001b4e4       $unwind$??1CImgIOException@cimg_library@@UEAA@XZ 000000018004e4e4     image.obj
 0002:0001b4e4       $unwind$_onexit            000000018004e4e4     LIBCMT:utility.obj
 0002:0001b4e4       $unwind$strcpy_s           000000018004e4e4     libucrt:strcpy_s.obj
 0002:0001b4e4       $unwind$__scrt_release_startup_lock 000000018004e4e4     LIBCMT:utility.obj
 0002:0001b4e4       $unwind$__scrt_initialize_crt 000000018004e4e4     LIBCMT:utility.obj
 0002:0001b4e4       $unwind$__scrt_uninitialize_crt 000000018004e4e4     LIBCMT:utility.obj
 0002:0001b4e4       $unwind$?type_case_integer@?$output_processor@_WV?$string_output_adapter@_W@__crt_stdio_output@@V?$standard_base@_WV?$string_output_adapter@_W@__crt_stdio_output@@@2@@__crt_stdio_output@@AEAA_NI_N@Z 000000018004e4e4     libucrt:output.obj
 0002:0001b4e4       $unwind$?type_case_integer@?$output_processor@DV?$string_output_adapter@D@__crt_stdio_output@@V?$format_validation_base@DV?$string_output_adapter@D@__crt_stdio_output@@@2@@__crt_stdio_output@@AEAA_NI_N@Z 000000018004e4e4     libucrt:output.obj
 0002:0001b4e4       $unwind$??1?$basic_string@DU?$char_traits@D@std@@V?$allocator@D@2@@std@@QEAA@XZ 000000018004e4e4     mirror_worker.obj
 0002:0001b4e4       $unwind$??$common_get_or_create_environment_nolock@D@@YAPEAPEADXZ 000000018004e4e4     libucrt:environment_initialization.obj
 0002:0001b4e4       $unwind$_setfpstatusword   000000018004e4e4     libucrt:_fenvutils.obj
 0002:0001b4e4       $unwind$?assign@?$CImg@E@cimg_library@@QEAAAEAU12@XZ 000000018004e4e4     resize_worker.obj
 0002:0001b4e4       $unwind$?fill@?$CImg@M@cimg_library@@QEAAAEAU12@AEBM@Z 000000018004e4e4     resize_worker.obj
 0002:0001b4e4       $unwind$??0bad_exception@std@@QEAA@AEBV01@@Z 000000018004e4e4     libvcruntime:frame.obj
 0002:0001b4e4       $unwind$__acrt_allocate_buffer_for_argv 000000018004e4e4     libucrt:argv_parsing.obj
 0002:0001b4e4       $unwind$??0length_error@std@@QEAA@AEBV01@@Z 000000018004e4e4     libcpmt:xthrow.obj
 0002:0001b4e4       $unwind$??1CImgInstanceException@cimg_library@@UEAA@XZ 000000018004e4e4     image.obj
 0002:0001b4e4       $unwind$??$message_box_wait_thread@_W@@YAKQEAX@Z 000000018004e4e4     libucrt:crtmbox.obj
 0002:0001b4e4       $unwind$?DloadReleaseSectionWriteAccess@@YAXXZ 000000018004e4e4     DelayImp:delayhlp.obj
 0002:0001b4e4       $unwind$initialize_pointers 000000018004e4e4     libucrt:initialization.obj
 0002:0001b4e4       $unwind$fegetenv           000000018004e4e4     libucrt:fegetenv.obj
 0002:0001b4e4       $unwind$??1CImgArgumentException@cimg_library@@UEAA@XZ 000000018004e4e4     image.obj
 0002:0001b4e4       $unwind$__acrt_uninitialize_winapi_thunks 000000018004e4e4     libucrt:winapi_thunks.obj
 0002:0001b4e4       $unwind$??0out_of_range@std@@QEAA@AEBV01@@Z 000000018004e4e4     libcpmt:xthrow.obj
 0002:0001b4e4       $unwind$uninitialize_allocated_memory 000000018004e4e4     libucrt:initialization.obj
 0002:0001b4e4       $unwind$__acrt_AreFileApisANSI 000000018004e4e4     libucrt:winapi_thunks.obj
 0002:0001b4e4       $unwind$__acrt_uninitialize_locks 000000018004e4e4     libucrt:locks.obj
 0002:0001b4e4       $unwind$?AsyncExecuteComplete@Nan@@YAXPEAUuv_work_s@@@Z 000000018004e4e4     image.obj
 0002:0001b4ec       $unwind$??1ObjectWrap@node@@UEAA@XZ 000000018004e4ec     image.obj
 0002:0001b4fc       $stateUnwindMap$??1?$Persistent@VObject@v8@@V?$NonCopyablePersistentTraits@VObject@v8@@@2@@Nan@@QEAA@XZ 000000018004e4fc     image.obj
 0002:0001b4fc       $stateUnwindMap$??1ObjectWrap@node@@UEAA@XZ 000000018004e4fc     image.obj
 0002:0001b4fc       $stateUnwindMap$??__F?constructor@LwipImage@@0V?$Persistent@VFunctionTemplate@v8@@V?$NonCopyablePersistentTraits@VFunctionTemplate@v8@@@2@@Nan@@A@@YAXXZ 000000018004e4fc     image.obj
 0002:0001b508       $ip2state$??1ObjectWrap@node@@UEAA@XZ 000000018004e508     image.obj
 0002:0001b510       $unwind$?Wrap@ObjectWrap@node@@IEAAXV?$Local@VObject@v8@@@v8@@@Z 000000018004e510     image.obj
 0002:0001b510       $unwind$??$free_environment@_W@@YAXQEAPEA_W@Z 000000018004e510     libucrt:environment_initialization.obj
 0002:0001b510       $unwind$??$free_environment@D@@YAXQEAPEAD@Z 000000018004e510     libucrt:environment_initialization.obj
 0002:0001b51c       $unwind$?WeakCallback@ObjectWrap@node@@CAXAEBV?$WeakCallbackData@VObject@v8@@VObjectWrap@node@@@v8@@@Z 000000018004e51c     image.obj
 0002:0001b534       $stateUnwindMap$?WeakCallback@ObjectWrap@node@@CAXAEBV?$WeakCallbackData@VObject@v8@@VObjectWrap@node@@@v8@@@Z 000000018004e534     image.obj
 0002:0001b540       $ip2state$?WeakCallback@ObjectWrap@node@@CAXAEBV?$WeakCallbackData@VObject@v8@@VObjectWrap@node@@@v8@@@Z 000000018004e540     image.obj
 0002:0001b558       $unwind$_callnewh          000000018004e558     libucrt:new_handler.obj
 0002:0001b558       $unwind$__vcrt_FlsAlloc    000000018004e558     libvcruntime:winapi_downlevel.obj
 0002:0001b558       $unwind$__vcrt_FlsFree     000000018004e558     libvcruntime:winapi_downlevel.obj
 0002:0001b558       $unwind$__vcrt_FlsGetValue 000000018004e558     libvcruntime:winapi_downlevel.obj
 0002:0001b558       $unwind$__vcrt_EventUnregister 000000018004e558     libvcruntime:winapi_downlevel.obj
 0002:0001b558       $unwind$??_Gout_of_range@std@@UEAAPEAXI@Z 000000018004e558     libcpmt:xthrow.obj
 0002:0001b558       $unwind$_fclose_nolock     000000018004e558     libucrt:fclose.obj
 0002:0001b558       $unwind$__acrt_invoke_user_matherr 000000018004e558     libucrt:matherr.obj
 0002:0001b558       $unwind$?type_case_c_tchar@?$output_processor@DV?$stream_output_adapter@D@__crt_stdio_output@@V?$standard_base@DV?$stream_output_adapter@D@__crt_stdio_output@@@2@@__crt_stdio_output@@AEAA_ND@Z 000000018004e558     libucrt:output.obj
 0002:0001b558       $unwind$_realloc_base      000000018004e558     libucrt:realloc_base.obj
 0002:0001b558       $unwind$_close_nolock      000000018004e558     libucrt:close.obj
 0002:0001b558       $unwind$__acrt_uninitialize_lowio 000000018004e558     libucrt:ioinit.obj
 0002:0001b558       $unwind$wcsncat_s          000000018004e558     libucrt:wcsncat_s.obj
 0002:0001b558       $unwind$??_GSetPixelWorker@@UEAAPEAXI@Z 000000018004e558     setpixel_worker.obj
 0002:0001b558       $unwind$?__SetUnwindTryBlock@@YAXPEA_KPEAU_xDISPATCHER_CONTEXT@@PEBU_s_FuncInfo@@H@Z 000000018004e558     libvcruntime:ehstate.obj
 0002:0001b558       $unwind$??_GPasteWorker@@UEAAPEAXI@Z 000000018004e558     paste_worker.obj
 0002:0001b558       $unwind$??$common_xtox@K_W@@YAHKQEA_W_KI_N@Z 000000018004e558     libucrt:xtoa.obj
 0002:0001b558       $unwind$??_GResizeWorker@@UEAAPEAXI@Z 000000018004e558     resize_worker.obj
 0002:0001b558       $unwind$??_GObjectWrap@node@@UEAAPEAXI@Z 000000018004e558     image.obj
 0002:0001b558       $unwind$??_Gbad_array_new_length@std@@UEAAPEAXI@Z 000000018004e558     LIBCMT:throw_bad_alloc.obj
 0002:0001b558       $unwind$??0_LocaleUpdate@@QEAA@QEAU__crt_locale_pointers@@@Z 000000018004e558     libucrt:output.obj
 0002:0001b558       $unwind$??_GOpacifyWorker@@UEAAPEAXI@Z 000000018004e558     opacify_worker.obj
 0002:0001b558       $unwind$??_GAsyncWorker@Nan@@UEAAPEAXI@Z 000000018004e558     resize_worker.obj
 0002:0001b558       $unwind$?type_case_c_tchar@?$output_processor@DV?$string_output_adapter@D@__crt_stdio_output@@V?$standard_base@DV?$string_output_adapter@D@__crt_stdio_output@@@2@@__crt_stdio_output@@AEAA_ND@Z 000000018004e558     libucrt:output.obj
 0002:0001b558       $unwind$__acrt_FlsAlloc    000000018004e558     libucrt:winapi_thunks.obj
 0002:0001b558       $unwind$??_GHSLAWorker@@UEAAPEAXI@Z 000000018004e558     hsla_worker.obj
 0002:0001b558       $unwind$_FindAndUnlinkFrame 000000018004e558     libvcruntime:trnsctrl.obj
 0002:0001b558       $unwind$?internal_isupper_l@@YA_NHQEAU__crt_locale_pointers@@@Z 000000018004e558     libucrt:tolower_toupper.obj
 0002:0001b558       $unwind$?type_case_c_tchar@?$output_processor@DV?$string_output_adapter@D@__crt_stdio_output@@V?$format_validation_base@DV?$string_output_adapter@D@__crt_stdio_output@@@2@@__crt_stdio_output@@AEAA_ND@Z 000000018004e558     libucrt:output.obj
 0002:0001b558       $unwind$??_GSharpenWorker@@UEAAPEAXI@Z 000000018004e558     sharpen_worker.obj
 0002:0001b558       $unwind$?try_cor_exit_process@@YAXI@Z 000000018004e558     libucrt:exit.obj
 0002:0001b558       $unwind$??_Gexception@std@@UEAAPEAXI@Z 000000018004e558     libcpmt:xthrow.obj
 0002:0001b558       $unwind$?replace_current_thread_locale_nolock@@YAXQEAU__acrt_ptd@@QEAU__crt_locale_data@@@Z 000000018004e558     libucrt:per_thread_data.obj
 0002:0001b558       $unwind$??_Gbad_alloc@std@@UEAAPEAXI@Z 000000018004e558     libcpmt:xthrow.obj
 0002:0001b558       $unwind$__acrt_stdio_begin_temporary_buffering_nolock 000000018004e558     libucrt:_sftbuf.obj
 0002:0001b558       $unwind$??_GPadWorker@@UEAAPEAXI@Z 000000018004e558     pad_worker.obj
 0002:0001b558       $unwind$??_GCImgException@cimg_library@@UEAAPEAXI@Z 000000018004e558     image.obj
 0002:0001b558       $unwind$__acrt_FlsFree     000000018004e558     libucrt:winapi_thunks.obj
 0002:0001b558       $unwind$??_GMirrorWorker@@UEAAPEAXI@Z 000000018004e558     mirror_worker.obj
 0002:0001b558       $unwind$__acrt_getptd      000000018004e558     libucrt:per_thread_data.obj
 0002:0001b558       $unwind$??$common_initialize_environment_nolock@D@@YAHXZ 000000018004e558     libucrt:environment_initialization.obj
 0002:0001b558       $unwind$__acrt_FlsGetValue 000000018004e558     libucrt:winapi_thunks.obj
 0002:0001b558       $unwind$??_GCImgIOException@cimg_library@@UEAAPEAXI@Z 000000018004e558     image.obj
 0002:0001b558       $unwind$_updatetlocinfoEx_nolock 000000018004e558     libucrt:locale_refcounting.obj
 0002:0001b558       $unwind$?ExFilterRethrow@@YAHPEAU_EXCEPTION_POINTERS@@PEAUEHExceptionRecord@@PEAH@Z 000000018004e558     libvcruntime:frame.obj
 0002:0001b558       $unwind$?DloadGetSRWLockFunctionPointers@@YAEXZ 000000018004e558     DelayImp:delayhlp.obj
 0002:0001b558       $unwind$__acrt_errno_map_os_error 000000018004e558     libucrt:errno.obj
 0002:0001b558       $unwind$strncpy_s          000000018004e558     libucrt:strncpy_s.obj
 0002:0001b558       $unwind$??_Glogic_error@std@@UEAAPEAXI@Z 000000018004e558     libcpmt:xthrow.obj
 0002:0001b558       $unwind$??_Gbad_exception@std@@UEAAPEAXI@Z 000000018004e558     libvcruntime:frame.obj
 0002:0001b558       $unwind$__acrt_get_parent_window 000000018004e558     libucrt:winapi_thunks.obj
 0002:0001b558       $unwind$?erase@?$basic_string@DU?$char_traits@D@std@@V?$allocator@D@2@@std@@QEAAAEAV12@_K0@Z 000000018004e558     mirror_worker.obj
 0002:0001b558       $unwind$??_GCropWorker@@UEAAPEAXI@Z 000000018004e558     crop_worker.obj
 0002:0001b558       $unwind$?DloadAcquireSectionWriteAccess@@YAXXZ 000000018004e558     DelayImp:delayhlp.obj
 0002:0001b558       $unwind$??_GRotateWorker@@UEAAPEAXI@Z 000000018004e558     rotate_worker.obj
 0002:0001b558       $unwind$??_Glength_error@std@@UEAAPEAXI@Z 000000018004e558     libcpmt:xthrow.obj
 0002:0001b558       $unwind$??_GCImgArgumentException@cimg_library@@UEAAPEAXI@Z 000000018004e558     image.obj
 0002:0001b558       $unwind$??_GBlurWorker@@UEAAPEAXI@Z 000000018004e558     blur_worker.obj
 0002:0001b558       $unwind$??_GCImgInstanceException@cimg_library@@UEAAPEAXI@Z 000000018004e558     image.obj
 0002:0001b558       $unwind$?force_decimal_point@__crt_stdio_output@@YAXPEADQEAU__crt_locale_pointers@@@Z 000000018004e558     libucrt:output.obj
 0002:0001b564       $unwind$?FunctionCallbackWrapper@imp@Nan@@YAXAEBV?$FunctionCallbackInfo@VValue@v8@@@v8@@@Z 000000018004e564     image.obj
 0002:0001b574       $unwind$?New@?$Factory@VFunctionTemplate@v8@@@imp@Nan@@SA?AV?$Local@VFunctionTemplate@v8@@@v8@@P6AXAEBV?$FunctionCallbackInfo@VValue@v8@@@3@@ZV?$Local@VValue@v8@@@5@V?$Local@VSignature@v8@@@5@@Z 000000018004e574     image.obj
 0002:0001b58c       $stateUnwindMap$?New@?$Factory@VFunctionTemplate@v8@@@imp@Nan@@SA?AV?$Local@VFunctionTemplate@v8@@@v8@@P6AXAEBV?$FunctionCallbackInfo@VValue@v8@@@3@@ZV?$Local@VValue@v8@@@5@V?$Local@VSignature@v8@@@5@@Z 000000018004e58c     image.obj
 0002:0001b598       $ip2state$?New@?$Factory@VFunctionTemplate@v8@@@imp@Nan@@SA?AV?$Local@VFunctionTemplate@v8@@@v8@@P6AXAEBV?$FunctionCallbackInfo@VValue@v8@@@3@@ZV?$Local@VValue@v8@@@5@V?$Local@VSignature@v8@@@5@@Z 000000018004e598     image.obj
 0002:0001b5b0       $unwind$??0Callback@Nan@@QEAA@AEBV?$Local@VFunction@v8@@@v8@@@Z 000000018004e5b0     image.obj
 0002:0001b5c8       $stateUnwindMap$??0Callback@Nan@@QEAA@AEBV?$Local@VFunction@v8@@@v8@@@Z 000000018004e5c8     image.obj
 0002:0001b5e0       $ip2state$??0Callback@Nan@@QEAA@AEBV?$Local@VFunction@v8@@@v8@@@Z 000000018004e5e0     image.obj
 0002:0001b618       $unwind$??1?$Persistent@VObject@v8@@V?$NonCopyablePersistentTraits@VObject@v8@@@2@@Nan@@QEAA@XZ 000000018004e618     image.obj
 0002:0001b628       $ip2state$??1?$Persistent@VObject@v8@@V?$NonCopyablePersistentTraits@VObject@v8@@@2@@Nan@@QEAA@XZ 000000018004e628     image.obj
 0002:0001b630       $unwind$swprintf           000000018004e630     libucrt:assert.obj
 0002:0001b630       $unwind$?_snprintf@cimg@cimg_library@@YAHQEAD_KQEBDZZ 000000018004e630     image.obj
 0002:0001b640       $unwind$?_vsnprintf@cimg@cimg_library@@YAHQEAD_KQEBDPEAD@Z 000000018004e640     image.obj
 0002:0001b658       $unwind$??0CImgException@cimg_library@@QEAA@AEBU01@@Z 000000018004e658     image.obj
 0002:0001b66c       $stateUnwindMap$??0CImgException@cimg_library@@QEAA@AEBU01@@Z 000000018004e66c     image.obj
 0002:0001b66c       $stateUnwindMap$??0CImgArgumentException@cimg_library@@QEAA@AEBU01@@Z 000000018004e66c     image.obj
 0002:0001b66c       $stateUnwindMap$??0CImgInstanceException@cimg_library@@QEAA@AEBU01@@Z 000000018004e66c     image.obj
 0002:0001b66c       $stateUnwindMap$??0CImgIOException@cimg_library@@QEAA@AEBU01@@Z 000000018004e66c     image.obj
 0002:0001b678       $ip2state$??0CImgException@cimg_library@@QEAA@AEBU01@@Z 000000018004e678     image.obj
 0002:0001b690       $unwind$??0CImgArgumentException@cimg_library@@QEAA@QEBDZZ 000000018004e690     image.obj
 0002:0001b6a0       $stateUnwindMap$??0CImgInstanceException@cimg_library@@QEAA@QEBDZZ 000000018004e6a0     image.obj
 0002:0001b6a0       $stateUnwindMap$??0CImgArgumentException@cimg_library@@QEAA@QEBDZZ 000000018004e6a0     image.obj
 0002:0001b6a0       $stateUnwindMap$??0CImgIOException@cimg_library@@QEAA@QEBDZZ 000000018004e6a0     image.obj
 0002:0001b6c8       $ip2state$??0CImgArgumentException@cimg_library@@QEAA@QEBDZZ 000000018004e6c8     image.obj
 0002:0001b6e8       $unwind$??0CImgInstanceException@cimg_library@@QEAA@QEBDZZ 000000018004e6e8     image.obj
 0002:0001b6f8       $ip2state$??0CImgInstanceException@cimg_library@@QEAA@QEBDZZ 000000018004e6f8     image.obj
 0002:0001b718       $unwind$??0CImgIOException@cimg_library@@QEAA@QEBDZZ 000000018004e718     image.obj
 0002:0001b728       $ip2state$??0CImgIOException@cimg_library@@QEAA@QEBDZZ 000000018004e728     image.obj
 0002:0001b748       $unwind$?Mutex_attr@cimg@cimg_library@@YAAEAUMutex_info@12@XZ 000000018004e748     image.obj
 0002:0001b758       $unwind$?warn@cimg@cimg_library@@YAXQEBDZZ 000000018004e758     image.obj
 0002:0001b760       $chain$0$?warn@cimg@cimg_library@@YAXQEBDZZ 000000018004e760     image.obj
 0002:0001b774       $chain$1$?warn@cimg@cimg_library@@YAXQEBDZZ 000000018004e774     image.obj
 0002:0001b784       $unwind$?filenamerand@cimg@cimg_library@@YAPEBDXZ 000000018004e784     image.obj
 0002:0001b798       $unwind$__acrt_locale_free_lc_time_if_unreferenced 000000018004e798     libucrt:locale_refcounting.obj
 0002:0001b798       $unwind$?winformat_string@cimg@cimg_library@@YAXQEAD@Z 000000018004e798     image.obj
 0002:0001b798       $unwind$__acrt_locale_free_numeric 000000018004e798     libucrt:initnum.obj
 0002:0001b798       $unwind$?destroy_fls@@YAXPEAX@Z 000000018004e798     libucrt:per_thread_data.obj
 0002:0001b798       $unwind$_free_base         000000018004e798     libucrt:free_base.obj
 0002:0001b7a0       $chain$0$?winformat_string@cimg@cimg_library@@YAXQEAD@Z 000000018004e7a0     image.obj
 0002:0001b7b4       $chain$1$?winformat_string@cimg@cimg_library@@YAXQEAD@Z 000000018004e7b4     image.obj
 0002:0001b7c4       $unwind$??0CImgIOException@cimg_library@@QEAA@AEBU01@@Z 000000018004e7c4     image.obj
 0002:0001b7c4       $unwind$??0CImgArgumentException@cimg_library@@QEAA@AEBU01@@Z 000000018004e7c4     image.obj
 0002:0001b7c4       $unwind$??0CImgInstanceException@cimg_library@@QEAA@AEBU01@@Z 000000018004e7c4     image.obj
 0002:0001b7d8       $ip2state$??0CImgArgumentException@cimg_library@@QEAA@AEBU01@@Z 000000018004e7d8     image.obj
 0002:0001b7d8       $ip2state$??0CImgIOException@cimg_library@@QEAA@AEBU01@@Z 000000018004e7d8     image.obj
 0002:0001b7d8       $ip2state$??0CImgInstanceException@cimg_library@@QEAA@AEBU01@@Z 000000018004e7d8     image.obj
 0002:0001b7f0       $unwind$?info@cimg@cimg_library@@YAXXZ 000000018004e7f0     image.obj
 0002:0001b800       $unwind$?temporary_path@cimg@cimg_library@@YAPEBDQEBD_N@Z 000000018004e800     image.obj
 0002:0001b820       $stateUnwindMap$?temporary_path@cimg@cimg_library@@YAPEBDQEBD_N@Z 000000018004e820     image.obj
 0002:0001b830       $ip2state$?temporary_path@cimg@cimg_library@@YAPEBDQEBD_N@Z 000000018004e830     image.obj
 0002:0001b868       $unwind$?programfiles_path@cimg@cimg_library@@YAPEBDQEBD_N@Z 000000018004e868     image.obj
 0002:0001b868       $unwind$_invalid_parameter_noinfo_noreturn 000000018004e868     libucrt:invalid_parameter.obj
 0002:0001b868       $unwind$_itow_s            000000018004e868     libucrt:xtoa.obj
 0002:0001b868       $unwind$wctomb_s           000000018004e868     libucrt:wctomb.obj
 0002:0001b868       $unwind$_sopen_s           000000018004e868     libucrt:open.obj
 0002:0001b868       $unwind$?medcon_path@cimg@cimg_library@@YAPEBDQEBD_N@Z 000000018004e868     image.obj
 0002:0001b868       $unwind$_invalid_parameter_noinfo 000000018004e868     libucrt:invalid_parameter.obj
 0002:0001b868       $unwind$_log10_special     000000018004e868     libucrt:log_special.obj
 0002:0001b870       $unwind$_raise_excf        000000018004e870     libucrt:fpexcept.obj
 0002:0001b870       $unwind$?_Xbad_alloc@std@@YAXXZ 000000018004e870     libcpmt:xthrow.obj
 0002:0001b870       $unwind$?imagemagick_path@cimg@cimg_library@@YAPEBDQEBD_N@Z 000000018004e870     image.obj
 0002:0001b870       $unwind$?__scrt_throw_std_bad_alloc@@YAXXZ 000000018004e870     LIBCMT:throw_bad_alloc.obj
 0002:0001b870       $unwind$?__scrt_throw_std_bad_array_new_length@@YAXXZ 000000018004e870     LIBCMT:throw_bad_alloc.obj
 0002:0001b870       $unwind$_raise_exc         000000018004e870     libucrt:fpexcept.obj
 0002:0001b870       $unwind$__dcrt_lowio_initialize_console_output 000000018004e870     libucrt:initcon.obj
 0002:0001b870       $unwind$?_Xout_of_range@std@@YAXPEBD@Z 000000018004e870     libcpmt:xthrow.obj
 0002:0001b870       $unwind$?_Xlength_error@std@@YAXPEBD@Z 000000018004e870     libcpmt:xthrow.obj
 0002:0001b870       $unwind$?graphicsmagick_path@cimg@cimg_library@@YAPEBDQEBD_N@Z 000000018004e870     image.obj
 0002:0001b878       $chain$0$?imagemagick_path@cimg@cimg_library@@YAPEBDQEBD_N@Z 000000018004e878     image.obj
 0002:0001b88c       $chain$5$?imagemagick_path@cimg@cimg_library@@YAPEBDQEBD_N@Z 000000018004e88c     image.obj
 0002:0001b8b0       $chain$6$?imagemagick_path@cimg@cimg_library@@YAPEBDQEBD_N@Z 000000018004e8b0     image.obj
 0002:0001b8d0       $chain$7$?imagemagick_path@cimg@cimg_library@@YAPEBDQEBD_N@Z 000000018004e8d0     image.obj
 0002:0001b8ec       $chain$8$?imagemagick_path@cimg@cimg_library@@YAPEBDQEBD_N@Z 000000018004e8ec     image.obj
 0002:0001b904       $chain$9$?imagemagick_path@cimg@cimg_library@@YAPEBDQEBD_N@Z 000000018004e904     image.obj
 0002:0001b918       $chain$10$?imagemagick_path@cimg@cimg_library@@YAPEBDQEBD_N@Z 000000018004e918     image.obj
 0002:0001b928       $chain$0$?graphicsmagick_path@cimg@cimg_library@@YAPEBDQEBD_N@Z 000000018004e928     image.obj
 0002:0001b93c       $chain$5$?graphicsmagick_path@cimg@cimg_library@@YAPEBDQEBD_N@Z 000000018004e93c     image.obj
 0002:0001b960       $chain$6$?graphicsmagick_path@cimg@cimg_library@@YAPEBDQEBD_N@Z 000000018004e960     image.obj
 0002:0001b980       $chain$7$?graphicsmagick_path@cimg@cimg_library@@YAPEBDQEBD_N@Z 000000018004e980     image.obj
 0002:0001b99c       $chain$8$?graphicsmagick_path@cimg@cimg_library@@YAPEBDQEBD_N@Z 000000018004e99c     image.obj
 0002:0001b9b4       $chain$9$?graphicsmagick_path@cimg@cimg_library@@YAPEBDQEBD_N@Z 000000018004e9b4     image.obj
 0002:0001b9c8       $chain$10$?graphicsmagick_path@cimg@cimg_library@@YAPEBDQEBD_N@Z 000000018004e9c8     image.obj
 0002:0001b9d8       $chain$0$?medcon_path@cimg@cimg_library@@YAPEBDQEBD_N@Z 000000018004e9d8     image.obj
 0002:0001b9ec       $chain$1$?medcon_path@cimg@cimg_library@@YAPEBDQEBD_N@Z 000000018004e9ec     image.obj
 0002:0001b9fc       $unwind$?strbuffersize@cimg@cimg_library@@YAPEBDK@Z 000000018004e9fc     image.obj
 0002:0001ba0c       $stateUnwindMap$?strbuffersize@cimg@cimg_library@@YAPEBDK@Z 000000018004ea0c     image.obj
 0002:0001ba18       $ip2state$?strbuffersize@cimg@cimg_library@@YAPEBDK@Z 000000018004ea18     image.obj
 0002:0001ba30       $unwind$??__F?constructor@LwipImage@@0V?$Persistent@VFunctionTemplate@v8@@V?$NonCopyablePersistentTraits@VFunctionTemplate@v8@@@2@@Nan@@A@@YAXXZ 000000018004ea30     image.obj
 0002:0001ba40       $ip2state$??__F?constructor@LwipImage@@0V?$Persistent@VFunctionTemplate@v8@@V?$NonCopyablePersistentTraits@VFunctionTemplate@v8@@@2@@Nan@@A@@YAXXZ 000000018004ea40     image.obj
 0002:0001ba48       $unwind$?Init@LwipImage@@SAXV?$Local@VObject@v8@@@v8@@@Z 000000018004ea48     image.obj
 0002:0001ba60       $stateUnwindMap$?Init@LwipImage@@SAXV?$Local@VObject@v8@@@v8@@@Z 000000018004ea60     image.obj
 0002:0001bae0       $ip2state$?Init@LwipImage@@SAXV?$Local@VObject@v8@@@v8@@@Z 000000018004eae0     image.obj
 0002:0001bbd8       $unwind$??0LwipImage@@QEAA@PEAE_K1@Z 000000018004ebd8     image.obj
 0002:0001bbf4       $stateUnwindMap$??0LwipImage@@QEAA@PEAE_K1@Z 000000018004ebf4     image.obj
 0002:0001bc08       $ip2state$??0LwipImage@@QEAA@PEAE_K1@Z 000000018004ec08     image.obj
 0002:0001bc30       $unwind$_ctrlfp$filt$0     000000018004ec30     libucrt:fpctrl.obj
 0002:0001bc30       $unwind$?dtor$0@?0??Execute@PadWorker@@UEAAXXZ@4HA 000000018004ec30     pad_worker.obj
 0002:0001bc30       $unwind$?fin$0@?0???$common_getenv@D@@YAPEADQEBD@Z@4HA 000000018004ec30     libucrt:getenv.obj
 0002:0001bc30       $unwind$?fin$0@?0???$?RV<lambda_99476a1ad63dd22509b5d3e65b0ffc95>@@AEAV<lambda_ad1ced32f4ac17aa236e5ef05d6b3b7c>@@V<lambda_f7424dd8d45958661754dc4f2697e9c3>@@@?$__crt_seh_guarded_call@X@@QEAAX$$QEAV<lambda_99476a1ad63dd22509b5d3e65b0ffc95>@@AEAV<lambda_ad1ced32f4ac17aa236e5ef05d6b3b7c>@@$$QEAV<lambda_f7424dd8d45958661754dc4f2697e9c3>@@@Z@4HA 000000018004ec30     libucrt:mbctype.obj
 0002:0001bc30       $unwind$?fin$0@?0???$?RV<lambda_7a5ef57ff966f610505f1d28a3d40618>@@AEAV<lambda_b721fa326cdb32351d23dfa67958c160>@@V<lambda_5e0fb27672408a07956fe59e48ccb2aa>@@@?$__crt_seh_guarded_call@H@@QEAAH$$QEAV<lambda_7a5ef57ff966f610505f1d28a3d40618>@@AEAV<lambda_b721fa326cdb32351d23dfa67958c160>@@$$QEAV<lambda_5e0fb27672408a07956fe59e48ccb2aa>@@@Z@4HA 000000018004ec30     libucrt:setvbuf.obj
 0002:0001bc30       $unwind$?fin$0@?0???$?RV<lambda_72d1df2b273a38828b1ce30cbf4cdab5>@@AEAV<lambda_876a65b173b8412d3a47c70a915b0cf4>@@V<lambda_41932305e351933ebe8f8be3ed8bb5dc>@@@?$__crt_seh_guarded_call@X@@QEAAX$$QEAV<lambda_72d1df2b273a38828b1ce30cbf4cdab5>@@AEAV<lambda_876a65b173b8412d3a47c70a915b0cf4>@@$$QEAV<lambda_41932305e351933ebe8f8be3ed8bb5dc>@@@Z@4HA 000000018004ec30     libucrt:per_thread_data.obj
 0002:0001bc30       $unwind$common_control87$filt$0 000000018004ec30     libucrt:ieee.obj
 0002:0001bc30       $unwind$_alloc_osfhnd$fin$0 000000018004ec30     libucrt:osfinfo.obj
 0002:0001bc30       $unwind$__acrt_lowio_ensure_fh_exists$fin$0 000000018004ec30     libucrt:osfinfo.obj
 0002:0001bc30       $unwind$?dtor$0@?0??Execute@RotateWorker@@UEAAXXZ@4HA 000000018004ec30     rotate_worker.obj
 0002:0001bc30       $unwind$?fin$0@?0???$?RV<lambda_5e887d1dcbef67a5eb4283622ba103bf>@@AEAV<lambda_4466841279450cc726390878d4a41900>@@V<lambda_341c25c0346d94847f1f3c463c57e077>@@@?$__crt_seh_guarded_call@X@@QEAAX$$QEAV<lambda_5e887d1dcbef67a5eb4283622ba103bf>@@AEAV<lambda_4466841279450cc726390878d4a41900>@@$$QEAV<lambda_341c25c0346d94847f1f3c463c57e077>@@@Z@4HA 000000018004ec30     libucrt:per_thread_data.obj
 0002:0001bc30       $unwind$?fin$0@?0???$?RV<lambda_46352004c1216016012b18bd6f87e700>@@AEAV<lambda_3bd07e1a1191394380780325891bf33f>@@V<lambda_334532d3f185bcaa59b5be82d7d22bff>@@@?$__crt_seh_guarded_call@X@@QEAAX$$QEAV<lambda_46352004c1216016012b18bd6f87e700>@@AEAV<lambda_3bd07e1a1191394380780325891bf33f>@@$$QEAV<lambda_334532d3f185bcaa59b5be82d7d22bff>@@@Z@4HA 000000018004ec30     libucrt:per_thread_data.obj
 0002:0001bc30       $unwind$?fin$0@?0???$?RV<lambda_fb3a7dec4e47f37f22dae91bb15c9095>@@AEAV<lambda_698284760c8add0bfb0756c19673e34b>@@V<lambda_dfb8eca1e75fef3034a8fb18dd509707>@@@?$__crt_seh_guarded_call@X@@QEAAX$$QEAV<lambda_fb3a7dec4e47f37f22dae91bb15c9095>@@AEAV<lambda_698284760c8add0bfb0756c19673e34b>@@$$QEAV<lambda_dfb8eca1e75fef3034a8fb18dd509707>@@@Z@4HA 000000018004ec30     libucrt:per_thread_data.obj
 0002:0001bc30       $unwind$?dtor$1@?0???0LwipImage@@QEAA@PEAE_K1@Z@4HA 000000018004ec30     image.obj
 0002:0001bc30       $unwind$__acrt_update_thread_multibyte_data$fin$0 000000018004ec30     libucrt:mbctype.obj
 0002:0001bc30       $unwind$_write$fin$0       000000018004ec30     libucrt:write.obj
 0002:0001bc30       $unwind$?dtor$78@?0??get_resize@?$CImg@E@cimg_library@@QEBA?AU12@HHHHHIMMMM@Z@4HA 000000018004ec30     resize_worker.obj
 0002:0001bc30       $unwind$?dtor$1@?0??New@LwipImage@@SAXAEBV?$FunctionCallbackInfo@VValue@v8@@@Nan@@@Z@4HA 000000018004ec30     image.obj
 0002:0001bc30       $unwind$_query_new_handler$fin$0 000000018004ec30     libucrt:new_handler.obj
 0002:0001bc30       $unwind$?fin$0@?0???$common_lseek@_J@@YA_JH_JH@Z@4HA 000000018004ec30     libucrt:lseek.obj
 0002:0001bc30       $unwind$?dtor$2@?0??resize@LwipImage@@SAXAEBV?$FunctionCallbackInfo@VValue@v8@@@Nan@@@Z@4HA 000000018004ec30     image.obj
 0002:0001bc30       $unwind$?dtor$1@?0??resize@LwipImage@@SAXAEBV?$FunctionCallbackInfo@VValue@v8@@@Nan@@@Z@4HA 000000018004ec30     image.obj
 0002:0001bc30       $unwind$?dtor$2@?0??rotate@LwipImage@@SAXAEBV?$FunctionCallbackInfo@VValue@v8@@@Nan@@@Z@4HA 000000018004ec30     image.obj
 0002:0001bc30       $unwind$?dtor$1@?0??rotate@LwipImage@@SAXAEBV?$FunctionCallbackInfo@VValue@v8@@@Nan@@@Z@4HA 000000018004ec30     image.obj
 0002:0001bc30       $unwind$?dtor$2@?0??blur@LwipImage@@SAXAEBV?$FunctionCallbackInfo@VValue@v8@@@Nan@@@Z@4HA 000000018004ec30     image.obj
 0002:0001bc30       $unwind$?dtor$1@?0??blur@LwipImage@@SAXAEBV?$FunctionCallbackInfo@VValue@v8@@@Nan@@@Z@4HA 000000018004ec30     image.obj
 0002:0001bc30       $unwind$?dtor$2@?0??crop@LwipImage@@SAXAEBV?$FunctionCallbackInfo@VValue@v8@@@Nan@@@Z@4HA 000000018004ec30     image.obj
 0002:0001bc30       $unwind$?dtor$1@?0??crop@LwipImage@@SAXAEBV?$FunctionCallbackInfo@VValue@v8@@@Nan@@@Z@4HA 000000018004ec30     image.obj
 0002:0001bc30       $unwind$__acrt_initialize_lowio$fin$0 000000018004ec30     libucrt:ioinit.obj
 0002:0001bc30       $unwind$__DestructExceptionObject$filt$0 000000018004ec30     libvcruntime:frame.obj
 0002:0001bc30       $unwind$?fin$1@?0??common_exit@@YAXHW4_crt_exit_cleanup_mode@@W4_crt_exit_return_mode@@@Z@4HA 000000018004ec30     libucrt:exit.obj
 0002:0001bc30       $unwind$?dtor$100@?0??get_resize@?$CImg@E@cimg_library@@QEBA?AU12@HHHHHIMMMM@Z@4HA 000000018004ec30     resize_worker.obj
 0002:0001bc30       $unwind$?filt$0@?0??common_exit@@YAXHW4_crt_exit_cleanup_mode@@W4_crt_exit_return_mode@@@Z@4HA 000000018004ec30     libucrt:exit.obj
 0002:0001bc30       $unwind$?fin$0@?0???$?RV<lambda_b521505b218e5242e90febf6bfebc422>@@AEAV<lambda_6978c1fb23f02e42e1d9e99668cc68aa>@@V<lambda_314360699dd331753a4119843814e9a7>@@@?$__crt_seh_guarded_call@H@@QEAAH$$QEAV<lambda_b521505b218e5242e90febf6bfebc422>@@AEAV<lambda_6978c1fb23f02e42e1d9e99668cc68aa>@@$$QEAV<lambda_314360699dd331753a4119843814e9a7>@@@Z@4HA 000000018004ec30     libucrt:commit.obj
 0002:0001bc30       $unwind$?dtor$99@?0??get_resize@?$CImg@E@cimg_library@@QEBA?AU12@HHHHHIMMMM@Z@4HA 000000018004ec30     resize_worker.obj
 0002:0001bc30       $unwind$?dtor$98@?0??get_resize@?$CImg@E@cimg_library@@QEBA?AU12@HHHHHIMMMM@Z@4HA 000000018004ec30     resize_worker.obj
 0002:0001bc30       $unwind$?dtor$97@?0??get_resize@?$CImg@E@cimg_library@@QEBA?AU12@HHHHHIMMMM@Z@4HA 000000018004ec30     resize_worker.obj
 0002:0001bc30       $unwind$?dtor$96@?0??get_resize@?$CImg@E@cimg_library@@QEBA?AU12@HHHHHIMMMM@Z@4HA 000000018004ec30     resize_worker.obj
 0002:0001bc30       $unwind$__FrameUnwindToState$fin$1 000000018004ec30     libvcruntime:frame.obj
 0002:0001bc30       $unwind$?dtor$95@?0??get_resize@?$CImg@E@cimg_library@@QEBA?AU12@HHHHHIMMMM@Z@4HA 000000018004ec30     resize_worker.obj
 0002:0001bc30       $unwind$__FrameUnwindToState$filt$0 000000018004ec30     libvcruntime:frame.obj
 0002:0001bc30       $unwind$?fin$0@?0???$?RV<lambda_bfedae4ebbf01fab1bb6dcc6a9e276e0>@@AEAV<lambda_2fe9b910cf3cbf4a0ab98a02ba45b3ec>@@V<lambda_237c231691f317818eb88cc1d5d642d6>@@@?$__crt_seh_guarded_call@H@@QEAAH$$QEAV<lambda_bfedae4ebbf01fab1bb6dcc6a9e276e0>@@AEAV<lambda_2fe9b910cf3cbf4a0ab98a02ba45b3ec>@@$$QEAV<lambda_237c231691f317818eb88cc1d5d642d6>@@@Z@4HA 000000018004ec30     libucrt:close.obj
 0002:0001bc30       $unwind$?dtor$94@?0??get_resize@?$CImg@E@cimg_library@@QEBA?AU12@HHHHHIMMMM@Z@4HA 000000018004ec30     resize_worker.obj
 0002:0001bc30       $unwind$_IsNonwritableInCurrentImage$filt$0 000000018004ec30     LIBCMT:pesect.obj
 0002:0001bc30       $unwind$?dtor$93@?0??get_resize@?$CImg@E@cimg_library@@QEBA?AU12@HHHHHIMMMM@Z@4HA 000000018004ec30     resize_worker.obj
 0002:0001bc30       $unwind$?fin$0@?0??__acrt_stdio_allocate_stream@@YA?AV__crt_stdio_stream@@XZ@4HA 000000018004ec30     libucrt:stream.obj
 0002:0001bc30       $unwind$?dtor$77@?0??get_resize@?$CImg@E@cimg_library@@QEBA?AU12@HHHHHIMMMM@Z@4HA 000000018004ec30     resize_worker.obj
 0002:0001bc30       $unwind$__acrt_uninitialize_locale$fin$0 000000018004ec30     libucrt:wsetlocale.obj
 0002:0001bc30       $unwind$?dtor$76@?0??get_resize@?$CImg@E@cimg_library@@QEBA?AU12@HHHHHIMMMM@Z@4HA 000000018004ec30     resize_worker.obj
 0002:0001bc30       $unwind$?dtor$75@?0??get_resize@?$CImg@E@cimg_library@@QEBA?AU12@HHHHHIMMMM@Z@4HA 000000018004ec30     resize_worker.obj
 0002:0001bc30       $unwind$?dtor$74@?0??get_resize@?$CImg@E@cimg_library@@QEBA?AU12@HHHHHIMMMM@Z@4HA 000000018004ec30     resize_worker.obj
 0002:0001bc30       $unwind$__CxxCallCatchBlock$filt$0 000000018004ec30     libvcruntime:frame.obj
 0002:0001bc30       $unwind$?dtor$73@?0??get_resize@?$CImg@E@cimg_library@@QEBA?AU12@HHHHHIMMMM@Z@4HA 000000018004ec30     resize_worker.obj
 0002:0001bc30       $unwind$?dtor$72@?0??get_resize@?$CImg@E@cimg_library@@QEBA?AU12@HHHHHIMMMM@Z@4HA 000000018004ec30     resize_worker.obj
 0002:0001bc30       $unwind$?fin$0@?0???$?RV<lambda_c36588078e9f5dfd39652860aa6b3aaf>@@AEAV<lambda_ec61778202f4f5fc7e7711acc23c3bca>@@V<lambda_dc9d2797ccde5d239b4a0efae8ebd7db>@@@?$__crt_seh_guarded_call@P6AXH@Z@@QEAAP6AXH@Z$$QEAV<lambda_c36588078e9f5dfd39652860aa6b3aaf>@@AEAV<lambda_ec61778202f4f5fc7e7711acc23c3bca>@@$$QEAV<lambda_dc9d2797ccde5d239b4a0efae8ebd7db>@@@Z@4HA 000000018004ec30     libucrt:signal.obj
 0002:0001bc30       $unwind$?fin$0@?0???$?RV<lambda_e24bbb7b643b32fcea6fa61b31d4c984>@@AEAV<lambda_275893d493268fdec8709772e3fcec0e>@@V<lambda_9d71df4d7cf3f480f8d633942495c3b0>@@@?$__crt_seh_guarded_call@H@@QEAAH$$QEAV<lambda_e24bbb7b643b32fcea6fa61b31d4c984>@@AEAV<lambda_275893d493268fdec8709772e3fcec0e>@@$$QEAV<lambda_9d71df4d7cf3f480f8d633942495c3b0>@@@Z@4HA 000000018004ec30     libucrt:onexit.obj
 0002:0001bc30       $unwind$?dtor$71@?0??get_resize@?$CImg@E@cimg_library@@QEBA?AU12@HHHHHIMMMM@Z@4HA 000000018004ec30     resize_worker.obj
 0002:0001bc30       $unwind$?dtor$56@?0??get_resize@?$CImg@E@cimg_library@@QEBA?AU12@HHHHHIMMMM@Z@4HA 000000018004ec30     resize_worker.obj
 0002:0001bc30       $unwind$raise$fin$0        000000018004ec30     libucrt:signal.obj
 0002:0001bc30       $unwind$?fin$0@?0???$?RV<lambda_b8c45f8f788dd370798f47cfe8ac3a86>@@AEAV<lambda_4e60a939b0d047cfe11ddc22648dfba9>@@V<lambda_332c3edc96d0294ec56c57d38c1cdfd5>@@@?$__crt_seh_guarded_call@H@@QEAAH$$QEAV<lambda_b8c45f8f788dd370798f47cfe8ac3a86>@@AEAV<lambda_4e60a939b0d047cfe11ddc22648dfba9>@@$$QEAV<lambda_332c3edc96d0294ec56c57d38c1cdfd5>@@@Z@4HA 000000018004ec30     libucrt:onexit.obj
 0002:0001bc30       $unwind$?dtor$55@?0??get_resize@?$CImg@E@cimg_library@@QEBA?AU12@HHHHHIMMMM@Z@4HA 000000018004ec30     resize_worker.obj
 0002:0001bc30       $unwind$?dtor$2@?0??mirror@LwipImage@@SAXAEBV?$FunctionCallbackInfo@VValue@v8@@@Nan@@@Z@4HA 000000018004ec30     image.obj
 0002:0001bc30       $unwind$__acrt_update_thread_locale_data$fin$0 000000018004ec30     libucrt:locale_refcounting.obj
 0002:0001bc30       $unwind$?dtor$1@?0??setPixel@LwipImage@@SAXAEBV?$FunctionCallbackInfo@VValue@v8@@@Nan@@@Z@4HA 000000018004ec30     image.obj
 0002:0001bc30       $unwind$?dtor$54@?0??get_resize@?$CImg@E@cimg_library@@QEBA?AU12@HHHHHIMMMM@Z@4HA 000000018004ec30     resize_worker.obj
 0002:0001bc30       $unwind$?dtor$1@?0??mirror@LwipImage@@SAXAEBV?$FunctionCallbackInfo@VValue@v8@@@Nan@@@Z@4HA 000000018004ec30     image.obj
 0002:0001bc30       $unwind$?dtor$2@?0??setPixel@LwipImage@@SAXAEBV?$FunctionCallbackInfo@VValue@v8@@@Nan@@@Z@4HA 000000018004ec30     image.obj
 0002:0001bc30       $unwind$?fin$0@?0???$?RV<lambda_aa279a7bcb127014629d5b1d62c7325d>@@AEAV<lambda_0a64b6a4deda75c01876f29c44fc5eb3>@@V<lambda_3323e69fbefe9d1a11713e670d47cdfa>@@@?$__crt_seh_guarded_call@H@@QEAAH$$QEAV<lambda_aa279a7bcb127014629d5b1d62c7325d>@@AEAV<lambda_0a64b6a4deda75c01876f29c44fc5eb3>@@$$QEAV<lambda_3323e69fbefe9d1a11713e670d47cdfa>@@@Z@4HA 000000018004ec30     libucrt:output.obj
 0002:0001bc30       $unwind$?dtor$53@?0??get_resize@?$CImg@E@cimg_library@@QEBA?AU12@HHHHHIMMMM@Z@4HA 000000018004ec30     resize_worker.obj
 0002:0001bc30       $unwind$?dtor$52@?0??get_resize@?$CImg@E@cimg_library@@QEBA?AU12@HHHHHIMMMM@Z@4HA 000000018004ec30     resize_worker.obj
 0002:0001bc30       $unwind$?fin$0@?0???$?RV<lambda_7b91131dde12e1c3dfc74ff76b3f2eac>@@AEAV<lambda_dd75445284c072d0bd3768540cc698fa>@@V<lambda_16bc4ecb55b4718497c16bceaea2ceaf>@@@?$__crt_seh_guarded_call@H@@QEAAH$$QEAV<lambda_7b91131dde12e1c3dfc74ff76b3f2eac>@@AEAV<lambda_dd75445284c072d0bd3768540cc698fa>@@$$QEAV<lambda_16bc4ecb55b4718497c16bceaea2ceaf>@@@Z@4HA 000000018004ec30     libucrt:output.obj
 0002:0001bc30       $unwind$?dtor$51@?0??get_resize@?$CImg@E@cimg_library@@QEBA?AU12@HHHHHIMMMM@Z@4HA 000000018004ec30     resize_worker.obj
 0002:0001bc30       $unwind$?dtor$1@?0??paste@LwipImage@@SAXAEBV?$FunctionCallbackInfo@VValue@v8@@@Nan@@@Z@4HA 000000018004ec30     image.obj
 0002:0001bc30       $unwind$?dtor$50@?0??get_resize@?$CImg@E@cimg_library@@QEBA?AU12@HHHHHIMMMM@Z@4HA 000000018004ec30     resize_worker.obj
 0002:0001bc30       $unwind$?dtor$49@?0??get_resize@?$CImg@E@cimg_library@@QEBA?AU12@HHHHHIMMMM@Z@4HA 000000018004ec30     resize_worker.obj
 0002:0001bc30       $unwind$?dtor$2@?0??paste@LwipImage@@SAXAEBV?$FunctionCallbackInfo@VValue@v8@@@Nan@@@Z@4HA 000000018004ec30     image.obj
 0002:0001bc30       $unwind$_fcloseall$fin$0   000000018004ec30     libucrt:closeall.obj
 0002:0001bc30       $unwind$?dtor$40@?0??get_resize@?$CImg@E@cimg_library@@QEBA?AU12@HHHHHIMMMM@Z@4HA 000000018004ec30     resize_worker.obj
 0002:0001bc30       $unwind$?dtor$39@?0??get_resize@?$CImg@E@cimg_library@@QEBA?AU12@HHHHHIMMMM@Z@4HA 000000018004ec30     resize_worker.obj
 0002:0001bc30       $unwind$?dtor$38@?0??get_resize@?$CImg@E@cimg_library@@QEBA?AU12@HHHHHIMMMM@Z@4HA 000000018004ec30     resize_worker.obj
 0002:0001bc30       $unwind$?dtor$37@?0??get_resize@?$CImg@E@cimg_library@@QEBA?AU12@HHHHHIMMMM@Z@4HA 000000018004ec30     resize_worker.obj
 0002:0001bc30       $unwind$?dtor$36@?0??get_resize@?$CImg@E@cimg_library@@QEBA?AU12@HHHHHIMMMM@Z@4HA 000000018004ec30     resize_worker.obj
 0002:0001bc30       $unwind$fclose$fin$0       000000018004ec30     libucrt:fclose.obj
 0002:0001bc30       $unwind$?dtor$35@?0??get_resize@?$CImg@E@cimg_library@@QEBA?AU12@HHHHHIMMMM@Z@4HA 000000018004ec30     resize_worker.obj
 0002:0001bc30       $unwind$?dtor$1@?0??opacify@LwipImage@@SAXAEBV?$FunctionCallbackInfo@VValue@v8@@@Nan@@@Z@4HA 000000018004ec30     image.obj
 0002:0001bc30       $unwind$common_flush_all$fin$1 000000018004ec30     libucrt:fflush.obj
 0002:0001bc30       $unwind$common_flush_all$fin$0 000000018004ec30     libucrt:fflush.obj
 0002:0001bc30       $unwind$?dtor$34@?0??get_resize@?$CImg@E@cimg_library@@QEBA?AU12@HHHHHIMMMM@Z@4HA 000000018004ec30     resize_worker.obj
 0002:0001bc30       $unwind$?dtor$2@?0??pad@LwipImage@@SAXAEBV?$FunctionCallbackInfo@VValue@v8@@@Nan@@@Z@4HA 000000018004ec30     image.obj
 0002:0001bc30       $unwind$?dtor$33@?0??get_resize@?$CImg@E@cimg_library@@QEBA?AU12@HHHHHIMMMM@Z@4HA 000000018004ec30     resize_worker.obj
 0002:0001bc30       $unwind$?dtor$1@?0??pad@LwipImage@@SAXAEBV?$FunctionCallbackInfo@VValue@v8@@@Nan@@@Z@4HA 000000018004ec30     image.obj
 0002:0001bc30       $unwind$?dtor$2@?0??sharpen@LwipImage@@SAXAEBV?$FunctionCallbackInfo@VValue@v8@@@Nan@@@Z@4HA 000000018004ec30     image.obj
 0002:0001bc30       $unwind$?dtor$1@?0??sharpen@LwipImage@@SAXAEBV?$FunctionCallbackInfo@VValue@v8@@@Nan@@@Z@4HA 000000018004ec30     image.obj
 0002:0001bc30       $unwind$?dtor$2@?0??opacify@LwipImage@@SAXAEBV?$FunctionCallbackInfo@VValue@v8@@@Nan@@@Z@4HA 000000018004ec30     image.obj
 0002:0001bc30       $unwind$?dtor$2@?0??hslaAdj@LwipImage@@SAXAEBV?$FunctionCallbackInfo@VValue@v8@@@Nan@@@Z@4HA 000000018004ec30     image.obj
 0002:0001bc30       $unwind$?fin$0@?0???$common_fsopen@D@@YAPEAU_iobuf@@QEBD0H@Z@4HA 000000018004ec30     libucrt:fopen.obj
 0002:0001bc30       $unwind$?dtor$0@?0??get_crop@?$CImg@E@cimg_library@@QEBA?AU12@HHHHHHHH_N@Z@4HA 000000018004ec30     resize_worker.obj
 0002:0001bc30       $unwind$?dtor$1@?0??hslaAdj@LwipImage@@SAXAEBV?$FunctionCallbackInfo@VValue@v8@@@Nan@@@Z@4HA 000000018004ec30     image.obj
 0002:0001bc30       $unwind$?fin$0@?0??dllmain_crt_process_detach@@YAH_N@Z@4HA 000000018004ec30     LIBCMT:dll_dllmain.obj
 0002:0001bc30       $unwind$?fin$0@?0??dllmain_crt_process_attach@@YAHQEAUHINSTANCE__@@QEAX@Z@4HA 000000018004ec30     LIBCMT:dll_dllmain.obj
 0002:0001bc30       $unwind$fflush$fin$0       000000018004ec30     libucrt:fflush.obj
 0002:0001bc38       $unwind$_RTC_Initialize    000000018004ec38     LIBCMT:_initsect_.obj
 0002:0001bc38       $unwind$??$common_lseek_nolock@_J@@YA_JH_JH@Z 000000018004ec38     libucrt:lseek.obj
 0002:0001bc38       $unwind$?type_case_s@?$output_processor@DV?$stream_output_adapter@D@__crt_stdio_output@@V?$standard_base@DV?$stream_output_adapter@D@__crt_stdio_output@@@2@@__crt_stdio_output@@AEAA_NXZ 000000018004ec38     libucrt:output.obj
 0002:0001bc38       $unwind$?type_case_Z@?$output_processor@DV?$string_output_adapter@D@__crt_stdio_output@@V?$standard_base@DV?$string_output_adapter@D@__crt_stdio_output@@@2@@__crt_stdio_output@@AEAA_NXZ 000000018004ec38     libucrt:output.obj
 0002:0001bc38       $unwind$__acrt_stdio_flush_and_write_wide_nolock 000000018004ec38     libucrt:_flsbuf.obj
 0002:0001bc38       $unwind$?type_case_s@?$output_processor@DV?$string_output_adapter@D@__crt_stdio_output@@V?$standard_base@DV?$string_output_adapter@D@__crt_stdio_output@@@2@@__crt_stdio_output@@AEAA_NXZ 000000018004ec38     libucrt:output.obj
 0002:0001bc38       $unwind$__acrt_stdio_flush_and_write_narrow_nolock 000000018004ec38     libucrt:_flsbuf.obj
 0002:0001bc38       $unwind$?free_crt_array_internal@@YAXQEAPEBX_K@Z 000000018004ec38     libucrt:inittime.obj
 0002:0001bc38       $unwind$_exception_enabled 000000018004ec38     libucrt:libm_error.obj
 0002:0001bc38       $unwind$?type_case_n@?$output_processor@DV?$string_output_adapter@D@__crt_stdio_output@@V?$standard_base@DV?$string_output_adapter@D@__crt_stdio_output@@@2@@__crt_stdio_output@@AEAA_NXZ 000000018004ec38     libucrt:output.obj
 0002:0001bc38       $unwind$__acrt_FlsSetValue 000000018004ec38     libucrt:winapi_thunks.obj
 0002:0001bc38       $unwind$__acrt_stdio_flush_nolock 000000018004ec38     libucrt:fflush.obj
 0002:0001bc38       $unwind$?__scrt_initialize_thread_safe_statics@@YAHXZ 000000018004ec38     LIBCMT:thread_safe_statics.obj
 0002:0001bc38       $unwind$_DllMainCRTStartup 000000018004ec38     LIBCMT:dll_dllmain.obj
 0002:0001bc38       $unwind$?SetErrorMessage@AsyncWorker@Nan@@IEAAXPEBD@Z 000000018004ec38     resize_worker.obj
 0002:0001bc38       $unwind$?TraceLoggingRegister@__vcrt_trace_logging_provider@@YAJPEBU_TlgProvider_t@1@PEBU_GUID@@P6AX1KE_K2PEAU_EVENT_FILTER_DESCRIPTOR@@PEAX@Z4@Z 000000018004ec38     libvcruntime:telemetry.obj
 0002:0001bc38       $unwind$?type_case_Z@?$output_processor@_WV?$string_output_adapter@_W@__crt_stdio_output@@V?$standard_base@_WV?$string_output_adapter@_W@__crt_stdio_output@@@2@@__crt_stdio_output@@AEAA_NXZ 000000018004ec38     libucrt:output.obj
 0002:0001bc38       $unwind$?type_case_s@?$output_processor@_WV?$string_output_adapter@_W@__crt_stdio_output@@V?$standard_base@_WV?$string_output_adapter@_W@__crt_stdio_output@@@2@@__crt_stdio_output@@AEAA_NXZ 000000018004ec38     libucrt:output.obj
 0002:0001bc38       $unwind$??$common_getenv_nolock@D@@YAPEADQEBD@Z 000000018004ec38     libucrt:getenv.obj
 0002:0001bc38       $unwind$??R<lambda_ad1ced32f4ac17aa236e5ef05d6b3b7c>@@QEBAXXZ 000000018004ec38     libucrt:mbctype.obj
 0002:0001bc38       $unwind$__vcrt_getptd_noexit 000000018004ec38     libvcruntime:per_thread_data.obj
 0002:0001bc38       $unwind$__acrt_getptd_noexit 000000018004ec38     libucrt:per_thread_data.obj
 0002:0001bc38       $unwind$_Init_thread_wait  000000018004ec38     LIBCMT:thread_safe_statics.obj
 0002:0001bc38       $unwind$?type_case_n@?$output_processor@_WV?$string_output_adapter@_W@__crt_stdio_output@@V?$standard_base@_WV?$string_output_adapter@_W@__crt_stdio_output@@@2@@__crt_stdio_output@@AEAA_NXZ 000000018004ec38     libucrt:output.obj
 0002:0001bc38       $unwind$memcpy_s           000000018004ec38     libucrt:cfout.obj
 0002:0001bc38       $unwind$??_GLwipImage@@UEAAPEAXI@Z 000000018004ec38     image.obj
 0002:0001bc38       $unwind$__acrt_execute_uninitializers 000000018004ec38     libucrt:shared_initialization.obj
 0002:0001bc38       $unwind$?type_case_n@?$output_processor@DV?$stream_output_adapter@D@__crt_stdio_output@@V?$standard_base@DV?$stream_output_adapter@D@__crt_stdio_output@@@2@@__crt_stdio_output@@AEAA_NXZ 000000018004ec38     libucrt:output.obj
 0002:0001bc38       $unwind$?type_case_Z@?$output_processor@DV?$stream_output_adapter@D@__crt_stdio_output@@V?$standard_base@DV?$stream_output_adapter@D@__crt_stdio_output@@@2@@__crt_stdio_output@@AEAA_NXZ 000000018004ec38     libucrt:output.obj
 0002:0001bc38       $unwind$?assign@?$basic_string@DU?$char_traits@D@std@@V?$allocator@D@2@@std@@QEAAAEAV12@PEBD_K@Z 000000018004ec38     mirror_worker.obj
 0002:0001bc38       $unwind$?type_case_n@?$output_processor@_WV?$stream_output_adapter@_W@__crt_stdio_output@@V?$standard_base@_WV?$stream_output_adapter@_W@__crt_stdio_output@@@2@@__crt_stdio_output@@AEAA_NXZ 000000018004ec38     libucrt:output.obj
 0002:0001bc38       $unwind$?type_case_n@?$output_processor@DV?$string_output_adapter@D@__crt_stdio_output@@V?$format_validation_base@DV?$string_output_adapter@D@__crt_stdio_output@@@2@@__crt_stdio_output@@AEAA_NXZ 000000018004ec38     libucrt:output.obj
 0002:0001bc38       $unwind$__acrt_LocaleNameToLCID 000000018004ec38     libucrt:winapi_thunks.obj
 0002:0001bc38       $unwind$__vcrt_FlsSetValue 000000018004ec38     libvcruntime:winapi_downlevel.obj
 0002:0001bc38       $unwind$_RTC_Terminate     000000018004ec38     LIBCMT:_initsect_.obj
 0002:0001bc38       $unwind$?type_case_s@?$output_processor@_WV?$stream_output_adapter@_W@__crt_stdio_output@@V?$standard_base@_WV?$stream_output_adapter@_W@__crt_stdio_output@@@2@@__crt_stdio_output@@AEAA_NXZ 000000018004ec38     libucrt:output.obj
 0002:0001bc38       $unwind$?type_case_Z@?$output_processor@_WV?$stream_output_adapter@_W@__crt_stdio_output@@V?$standard_base@_WV?$stream_output_adapter@_W@__crt_stdio_output@@@2@@__crt_stdio_output@@AEAA_NXZ 000000018004ec38     libucrt:output.obj
 0002:0001bc38       $unwind$?type_case_s@?$output_processor@DV?$string_output_adapter@D@__crt_stdio_output@@V?$format_validation_base@DV?$string_output_adapter@D@__crt_stdio_output@@@2@@__crt_stdio_output@@AEAA_NXZ 000000018004ec38     libucrt:output.obj
 0002:0001bc38       $unwind$_initterm_e        000000018004ec38     libucrt:initterm.obj
 0002:0001bc38       $unwind$?type_case_Z@?$output_processor@DV?$string_output_adapter@D@__crt_stdio_output@@V?$format_validation_base@DV?$string_output_adapter@D@__crt_stdio_output@@@2@@__crt_stdio_output@@AEAA_NXZ 000000018004ec38     libucrt:output.obj
 0002:0001bc48       $unwind$?New@LwipImage@@SAXAEBV?$FunctionCallbackInfo@VValue@v8@@@Nan@@@Z 000000018004ec48     image.obj
 0002:0001bc68       $stateUnwindMap$?New@LwipImage@@SAXAEBV?$FunctionCallbackInfo@VValue@v8@@@Nan@@@Z 000000018004ec68     image.obj
 0002:0001bc70       $ip2state$?New@LwipImage@@SAXAEBV?$FunctionCallbackInfo@VValue@v8@@@Nan@@@Z 000000018004ec70     image.obj
 0002:0001bc88       $unwind$?width@LwipImage@@SAXAEBV?$FunctionCallbackInfo@VValue@v8@@@Nan@@@Z 000000018004ec88     image.obj
 0002:0001bc88       $unwind$?height@LwipImage@@SAXAEBV?$FunctionCallbackInfo@VValue@v8@@@Nan@@@Z 000000018004ec88     image.obj
 0002:0001bc94       $unwind$?getPixel@LwipImage@@SAXAEBV?$FunctionCallbackInfo@VValue@v8@@@Nan@@@Z 000000018004ec94     image.obj
 0002:0001bcac       $unwind$?buffer@LwipImage@@SAXAEBV?$FunctionCallbackInfo@VValue@v8@@@Nan@@@Z 000000018004ecac     image.obj
 0002:0001bcac       $unwind$__CxxFrameHandler3 000000018004ecac     libvcruntime:trnsctrl.obj
 0002:0001bcbc       $unwind$?resize@LwipImage@@SAXAEBV?$FunctionCallbackInfo@VValue@v8@@@Nan@@@Z 000000018004ecbc     image.obj
 0002:0001bcd8       $stateUnwindMap$?resize@LwipImage@@SAXAEBV?$FunctionCallbackInfo@VValue@v8@@@Nan@@@Z 000000018004ecd8     image.obj
 0002:0001bce8       $ip2state$?resize@LwipImage@@SAXAEBV?$FunctionCallbackInfo@VValue@v8@@@Nan@@@Z 000000018004ece8     image.obj
 0002:0001bd10       $unwind$?rotate@LwipImage@@SAXAEBV?$FunctionCallbackInfo@VValue@v8@@@Nan@@@Z 000000018004ed10     image.obj
 0002:0001bd34       $stateUnwindMap$?rotate@LwipImage@@SAXAEBV?$FunctionCallbackInfo@VValue@v8@@@Nan@@@Z 000000018004ed34     image.obj
 0002:0001bd48       $ip2state$?rotate@LwipImage@@SAXAEBV?$FunctionCallbackInfo@VValue@v8@@@Nan@@@Z 000000018004ed48     image.obj
 0002:0001bd70       $unwind$?blur@LwipImage@@SAXAEBV?$FunctionCallbackInfo@VValue@v8@@@Nan@@@Z 000000018004ed70     image.obj
 0002:0001bd8c       $stateUnwindMap$?mirror@LwipImage@@SAXAEBV?$FunctionCallbackInfo@VValue@v8@@@Nan@@@Z 000000018004ed8c     image.obj
 0002:0001bd8c       $stateUnwindMap$?blur@LwipImage@@SAXAEBV?$FunctionCallbackInfo@VValue@v8@@@Nan@@@Z 000000018004ed8c     image.obj
 0002:0001bd8c       $stateUnwindMap$?sharpen@LwipImage@@SAXAEBV?$FunctionCallbackInfo@VValue@v8@@@Nan@@@Z 000000018004ed8c     image.obj
 0002:0001bda0       $ip2state$?blur@LwipImage@@SAXAEBV?$FunctionCallbackInfo@VValue@v8@@@Nan@@@Z 000000018004eda0     image.obj
 0002:0001bdc8       $unwind$?crop@LwipImage@@SAXAEBV?$FunctionCallbackInfo@VValue@v8@@@Nan@@@Z 000000018004edc8     image.obj
 0002:0001bdec       $stateUnwindMap$?crop@LwipImage@@SAXAEBV?$FunctionCallbackInfo@VValue@v8@@@Nan@@@Z 000000018004edec     image.obj
 0002:0001be00       $ip2state$?crop@LwipImage@@SAXAEBV?$FunctionCallbackInfo@VValue@v8@@@Nan@@@Z 000000018004ee00     image.obj
 0002:0001be28       $unwind$?mirror@LwipImage@@SAXAEBV?$FunctionCallbackInfo@VValue@v8@@@Nan@@@Z 000000018004ee28     image.obj
 0002:0001be48       $ip2state$?mirror@LwipImage@@SAXAEBV?$FunctionCallbackInfo@VValue@v8@@@Nan@@@Z 000000018004ee48     image.obj
 0002:0001be70       $unwind$?pad@LwipImage@@SAXAEBV?$FunctionCallbackInfo@VValue@v8@@@Nan@@@Z 000000018004ee70     image.obj
 0002:0001be94       $stateUnwindMap$?pad@LwipImage@@SAXAEBV?$FunctionCallbackInfo@VValue@v8@@@Nan@@@Z 000000018004ee94     image.obj
 0002:0001bea8       $ip2state$?pad@LwipImage@@SAXAEBV?$FunctionCallbackInfo@VValue@v8@@@Nan@@@Z 000000018004eea8     image.obj
 0002:0001bed0       $unwind$?sharpen@LwipImage@@SAXAEBV?$FunctionCallbackInfo@VValue@v8@@@Nan@@@Z 000000018004eed0     image.obj
 0002:0001bef0       $ip2state$?sharpen@LwipImage@@SAXAEBV?$FunctionCallbackInfo@VValue@v8@@@Nan@@@Z 000000018004eef0     image.obj
 0002:0001bf18       $unwind$?hslaAdj@LwipImage@@SAXAEBV?$FunctionCallbackInfo@VValue@v8@@@Nan@@@Z 000000018004ef18     image.obj
 0002:0001bf40       $stateUnwindMap$?hslaAdj@LwipImage@@SAXAEBV?$FunctionCallbackInfo@VValue@v8@@@Nan@@@Z 000000018004ef40     image.obj
 0002:0001bf50       $ip2state$?hslaAdj@LwipImage@@SAXAEBV?$FunctionCallbackInfo@VValue@v8@@@Nan@@@Z 000000018004ef50     image.obj
 0002:0001bf78       $unwind$?opacify@LwipImage@@SAXAEBV?$FunctionCallbackInfo@VValue@v8@@@Nan@@@Z 000000018004ef78     image.obj
 0002:0001bf90       $stateUnwindMap$?opacify@LwipImage@@SAXAEBV?$FunctionCallbackInfo@VValue@v8@@@Nan@@@Z 000000018004ef90     image.obj
 0002:0001bfa0       $ip2state$?opacify@LwipImage@@SAXAEBV?$FunctionCallbackInfo@VValue@v8@@@Nan@@@Z 000000018004efa0     image.obj
 0002:0001bfc8       $unwind$?paste@LwipImage@@SAXAEBV?$FunctionCallbackInfo@VValue@v8@@@Nan@@@Z 000000018004efc8     image.obj
 0002:0001bfe8       $stateUnwindMap$?paste@LwipImage@@SAXAEBV?$FunctionCallbackInfo@VValue@v8@@@Nan@@@Z 000000018004efe8     image.obj
 0002:0001bff8       $ip2state$?paste@LwipImage@@SAXAEBV?$FunctionCallbackInfo@VValue@v8@@@Nan@@@Z 000000018004eff8     image.obj
 0002:0001c020       $unwind$?setPixel@LwipImage@@SAXAEBV?$FunctionCallbackInfo@VValue@v8@@@Nan@@@Z 000000018004f020     image.obj
 0002:0001c044       $stateUnwindMap$?setPixel@LwipImage@@SAXAEBV?$FunctionCallbackInfo@VValue@v8@@@Nan@@@Z 000000018004f044     image.obj
 0002:0001c058       $ip2state$?setPixel@LwipImage@@SAXAEBV?$FunctionCallbackInfo@VValue@v8@@@Nan@@@Z 000000018004f058     image.obj
 0002:0001c080       $unwind$??0?$CImg@E@cimg_library@@QEAA@QEBEIIII_N@Z 000000018004f080     image.obj
 0002:0001c098       $stateUnwindMap$??0?$CImg@K@cimg_library@@QEAA@IIII@Z 000000018004f098     resize_worker.obj
 0002:0001c098       $stateUnwindMap$??0?$CImg@E@cimg_library@@QEAA@IIIIAEBE@Z 000000018004f098     resize_worker.obj
 0002:0001c098       $stateUnwindMap$?assign@?$CImg@E@cimg_library@@QEAAAEAU12@QEBEIIII@Z 000000018004f098     resize_worker.obj
 0002:0001c098       $stateUnwindMap$??0?$CImg@I@cimg_library@@QEAA@IIII@Z 000000018004f098     resize_worker.obj
 0002:0001c098       $stateUnwindMap$??0?$CImg@E@cimg_library@@QEAA@AEBU01@@Z 000000018004f098     image.obj
 0002:0001c098       $stateUnwindMap$??0?$CImg@E@cimg_library@@QEAA@AEBU01@_N@Z 000000018004f098     resize_worker.obj
 0002:0001c098       $stateUnwindMap$??0?$CImg@E@cimg_library@@QEAA@IIII@Z 000000018004f098     image.obj
 0002:0001c098       $stateUnwindMap$?assign@?$CImg@E@cimg_library@@QEAAAEAU12@IIII@Z 000000018004f098     resize_worker.obj
 0002:0001c098       $stateUnwindMap$??0?$CImg@M@cimg_library@@QEAA@IIIIAEBM@Z 000000018004f098     resize_worker.obj
 0002:0001c098       $stateUnwindMap$??0?$CImg@M@cimg_library@@QEAA@IIII@Z 000000018004f098     resize_worker.obj
 0002:0001c098       $stateUnwindMap$?assign@?$CImg@D@cimg_library@@QEAAAEAU12@IIII@Z 000000018004f098     image.obj
 0002:0001c098       $stateUnwindMap$??0?$CImg@D@cimg_library@@QEAA@IIII@Z 000000018004f098     image.obj
 0002:0001c098       $stateUnwindMap$??0?$CImg@E@cimg_library@@QEAA@QEBEIIII_N@Z 000000018004f098     image.obj
 0002:0001c0a8       $tryMap$??0?$CImg@E@cimg_library@@QEAA@QEBEIIII_N@Z 000000018004f0a8     image.obj
 0002:0001c0bc       $handlerMap$0$??0?$CImg@E@cimg_library@@QEAA@QEBEIIII_N@Z 000000018004f0bc     image.obj
 0002:0001c0d0       $ip2state$??0?$CImg@E@cimg_library@@QEAA@QEBEIIII_N@Z 000000018004f0d0     image.obj
 0002:0001c0f8       $unwind$?catch$0@?0???0?$CImg@E@cimg_library@@QEAA@QEBEIIII_N@Z@4HA 000000018004f0f8     image.obj
 0002:0001c110       $unwind$?assign@?$CImg@D@cimg_library@@QEAAAEAU12@IIII@Z 000000018004f110     image.obj
 0002:0001c128       $tryMap$?assign@?$CImg@D@cimg_library@@QEAAAEAU12@IIII@Z 000000018004f128     image.obj
 0002:0001c13c       $handlerMap$0$?assign@?$CImg@D@cimg_library@@QEAAAEAU12@IIII@Z 000000018004f13c     image.obj
 0002:0001c150       $ip2state$?assign@?$CImg@D@cimg_library@@QEAAAEAU12@IIII@Z 000000018004f150     image.obj
 0002:0001c178       $unwind$?catch$0@?0??assign@?$CImg@D@cimg_library@@QEAAAEAU12@IIII@Z@4HA 000000018004f178     image.obj
 0002:0001c18c       $unwind$??0?$CImg@D@cimg_library@@QEAA@IIII@Z 000000018004f18c     image.obj
 0002:0001c1a0       $tryMap$??0?$CImg@D@cimg_library@@QEAA@IIII@Z 000000018004f1a0     image.obj
 0002:0001c1b4       $handlerMap$0$??0?$CImg@D@cimg_library@@QEAA@IIII@Z 000000018004f1b4     image.obj
 0002:0001c1c8       $ip2state$??0?$CImg@D@cimg_library@@QEAA@IIII@Z 000000018004f1c8     image.obj
 0002:0001c1f0       $unwind$?catch$0@?0???0?$CImg@D@cimg_library@@QEAA@IIII@Z@4HA 000000018004f1f0     image.obj
 0002:0001c204       $unwind$??0?$CImg@E@cimg_library@@QEAA@AEBU01@@Z 000000018004f204     image.obj
 0002:0001c220       $tryMap$??0?$CImg@E@cimg_library@@QEAA@AEBU01@@Z 000000018004f220     image.obj
 0002:0001c234       $handlerMap$0$??0?$CImg@E@cimg_library@@QEAA@AEBU01@@Z 000000018004f234     image.obj
 0002:0001c248       $ip2state$??0?$CImg@E@cimg_library@@QEAA@AEBU01@@Z 000000018004f248     image.obj
 0002:0001c270       $unwind$?catch$0@?0???0?$CImg@E@cimg_library@@QEAA@AEBU01@@Z@4HA 000000018004f270     image.obj
 0002:0001c28c       $unwind$??0?$CImg@E@cimg_library@@QEAA@IIII@Z 000000018004f28c     image.obj
 0002:0001c2a0       $tryMap$??0?$CImg@E@cimg_library@@QEAA@IIII@Z 000000018004f2a0     image.obj
 0002:0001c2b4       $handlerMap$0$??0?$CImg@E@cimg_library@@QEAA@IIII@Z 000000018004f2b4     image.obj
 0002:0001c2c8       $ip2state$??0?$CImg@E@cimg_library@@QEAA@IIII@Z 000000018004f2c8     image.obj
 0002:0001c2f0       $unwind$?catch$0@?0???0?$CImg@E@cimg_library@@QEAA@IIII@Z@4HA 000000018004f2f0     image.obj
 0002:0001c30c       $unwind$??$Unwrap@VLwipImage@@@ObjectWrap@node@@SAPEAVLwipImage@@V?$Local@VObject@v8@@@v8@@@Z 000000018004f30c     image.obj
 0002:0001c314       $unwind$?Call_@Callback@Nan@@AEBA?AV?$Local@VValue@v8@@@v8@@PEAVIsolate@4@V?$Local@VObject@v8@@@4@HQEAV34@@Z 000000018004f314     resize_worker.obj
 0002:0001c32c       $stateUnwindMap$?HandleErrorCallback@AsyncWorker@Nan@@MEAAXXZ 000000018004f32c     resize_worker.obj
 0002:0001c32c       $stateUnwindMap$?Call_@Callback@Nan@@AEBA?AV?$Local@VValue@v8@@@v8@@PEAVIsolate@4@V?$Local@VObject@v8@@@4@HQEAV34@@Z 000000018004f32c     resize_worker.obj
 0002:0001c338       $ip2state$?Call_@Callback@Nan@@AEBA?AV?$Local@VValue@v8@@@v8@@PEAVIsolate@4@V?$Local@VObject@v8@@@4@HQEAV34@@Z 000000018004f338     resize_worker.obj
 0002:0001c350       $unwind$??0AsyncWorker@Nan@@QEAA@PEAVCallback@1@@Z 000000018004f350     resize_worker.obj
 0002:0001c364       $stateUnwindMap$??0AsyncWorker@Nan@@QEAA@PEAVCallback@1@@Z 000000018004f364     resize_worker.obj
 0002:0001c378       $ip2state$??0AsyncWorker@Nan@@QEAA@PEAVCallback@1@@Z 000000018004f378     resize_worker.obj
 0002:0001c3a0       $unwind$??1AsyncWorker@Nan@@UEAA@XZ 000000018004f3a0     resize_worker.obj
 0002:0001c3b4       $stateUnwindMap$??1AsyncWorker@Nan@@UEAA@XZ 000000018004f3b4     resize_worker.obj
 0002:0001c3d0       $ip2state$??1AsyncWorker@Nan@@UEAA@XZ 000000018004f3d0     resize_worker.obj
 0002:0001c3e8       $unwind$?WorkComplete@AsyncWorker@Nan@@UEAAXXZ 000000018004f3e8     resize_worker.obj
 0002:0001c3fc       $stateUnwindMap$?WorkComplete@AsyncWorker@Nan@@UEAAXXZ 000000018004f3fc     resize_worker.obj
 0002:0001c418       $ip2state$?WorkComplete@AsyncWorker@Nan@@UEAAXXZ 000000018004f418     resize_worker.obj
 0002:0001c440       $unwind$?HandleOKCallback@AsyncWorker@Nan@@MEAAXXZ 000000018004f440     resize_worker.obj
 0002:0001c44c       $unwind$?HandleErrorCallback@AsyncWorker@Nan@@MEAAXXZ 000000018004f44c     resize_worker.obj
 0002:0001c460       $ip2state$?HandleErrorCallback@AsyncWorker@Nan@@MEAAXXZ 000000018004f460     resize_worker.obj
 0002:0001c478       $unwind$?Execute@ResizeWorker@@UEAAXXZ 000000018004f478     resize_worker.obj
 0002:0001c488       $stateUnwindMap$?Execute@ResizeWorker@@UEAAXXZ 000000018004f488     resize_worker.obj
 0002:0001c4a0       $tryMap$?Execute@ResizeWorker@@UEAAXXZ 000000018004f4a0     resize_worker.obj
 0002:0001c4b4       $handlerMap$0$?Execute@ResizeWorker@@UEAAXXZ 000000018004f4b4     resize_worker.obj
 0002:0001c4c8       $ip2state$?Execute@ResizeWorker@@UEAAXXZ 000000018004f4c8     resize_worker.obj
 0002:0001c500       $unwind$?catch$0@?0??Execute@ResizeWorker@@UEAAXXZ@4HA 000000018004f500     resize_worker.obj
 0002:0001c510       $unwind$?HandleOKCallback@CropWorker@@UEAAXXZ 000000018004f510     crop_worker.obj
 0002:0001c510       $unwind$?HandleOKCallback@SetPixelWorker@@UEAAXXZ 000000018004f510     setpixel_worker.obj
 0002:0001c510       $unwind$?HandleOKCallback@OpacifyWorker@@UEAAXXZ 000000018004f510     opacify_worker.obj
 0002:0001c510       $unwind$?HandleOKCallback@PasteWorker@@UEAAXXZ 000000018004f510     paste_worker.obj
 0002:0001c510       $unwind$?HandleOKCallback@BlurWorker@@UEAAXXZ 000000018004f510     blur_worker.obj
 0002:0001c510       $unwind$?HandleOKCallback@ResizeWorker@@UEAAXXZ 000000018004f510     resize_worker.obj
 0002:0001c510       $unwind$?HandleOKCallback@PadWorker@@UEAAXXZ 000000018004f510     pad_worker.obj
 0002:0001c510       $unwind$?HandleOKCallback@SharpenWorker@@UEAAXXZ 000000018004f510     sharpen_worker.obj
 0002:0001c510       $unwind$?HandleOKCallback@RotateWorker@@UEAAXXZ 000000018004f510     rotate_worker.obj
 0002:0001c510       $unwind$?HandleOKCallback@MirrorWorker@@UEAAXXZ 000000018004f510     mirror_worker.obj
 0002:0001c510       $unwind$?HandleOKCallback@HSLAWorker@@UEAAXXZ 000000018004f510     hsla_worker.obj
 0002:0001c51c       $unwind$?resize@?$CImg@E@cimg_library@@QEAAAEAU12@HHHHHIMMMM@Z 000000018004f51c     resize_worker.obj
 0002:0001c538       $stateUnwindMap$?resize@?$CImg@E@cimg_library@@QEAAAEAU12@HHHHHIMMMM@Z 000000018004f538     resize_worker.obj
 0002:0001c538       $stateUnwindMap$?crop@?$CImg@E@cimg_library@@QEAAAEAU12@HHHHHHHH_N@Z 000000018004f538     crop_worker.obj
 0002:0001c540       $ip2state$?resize@?$CImg@E@cimg_library@@QEAAAEAU12@HHHHHIMMMM@Z 000000018004f540     resize_worker.obj
 0002:0001c558       $unwind$??0?$CImg@K@cimg_library@@QEAA@IIII@Z 000000018004f558     resize_worker.obj
 0002:0001c56c       $tryMap$??0?$CImg@K@cimg_library@@QEAA@IIII@Z 000000018004f56c     resize_worker.obj
 0002:0001c580       $handlerMap$0$??0?$CImg@K@cimg_library@@QEAA@IIII@Z 000000018004f580     resize_worker.obj
 0002:0001c598       $ip2state$??0?$CImg@K@cimg_library@@QEAA@IIII@Z 000000018004f598     resize_worker.obj
 0002:0001c5c0       $unwind$?catch$0@?0???0?$CImg@K@cimg_library@@QEAA@IIII@Z@4HA 000000018004f5c0     resize_worker.obj
 0002:0001c5d4       $unwind$?get_resize@?$CImg@E@cimg_library@@QEBA?AU12@HHHHHIMMMM@Z 000000018004f5d4     resize_worker.obj
 0002:0001c618       $stateUnwindMap$?get_resize@?$CImg@E@cimg_library@@QEBA?AU12@HHHHHIMMMM@Z 000000018004f618     resize_worker.obj
 0002:0001c930       $ip2state$?get_resize@?$CImg@E@cimg_library@@QEBA?AU12@HHHHHIMMMM@Z 000000018004f930     resize_worker.obj
 0002:0001cf80       $unwind$?move_to@?$CImg@E@cimg_library@@QEAAAEAU12@AEAU12@@Z 000000018004ff80     resize_worker.obj
 0002:0001cf80       $unwind$??$__acrt_stdio_parse_mode@D@@YA?AU__acrt_stdio_stream_mode@@QEBD@Z 000000018004ff80     libucrt:openfile.obj
 0002:0001cf80       $unwind$??$assign@M@?$CImg@E@cimg_library@@QEAAAEAU01@QEBMIIII@Z 000000018004ff80     resize_worker.obj
 0002:0001cf8c       $unwind$??0?$CImg@I@cimg_library@@QEAA@IIII@Z 000000018004ff8c     resize_worker.obj
 0002:0001cfa0       $tryMap$??0?$CImg@I@cimg_library@@QEAA@IIII@Z 000000018004ffa0     resize_worker.obj
 0002:0001cfb4       $handlerMap$0$??0?$CImg@I@cimg_library@@QEAA@IIII@Z 000000018004ffb4     resize_worker.obj
 0002:0001cfc8       $ip2state$??0?$CImg@I@cimg_library@@QEAA@IIII@Z 000000018004ffc8     resize_worker.obj
 0002:0001cff0       $unwind$?catch$0@?0???0?$CImg@I@cimg_library@@QEAA@IIII@Z@4HA 000000018004fff0     resize_worker.obj
 0002:0001d004       $unwind$?draw_image@?$CImg@E@cimg_library@@QEAAAEAU12@HHHHAEBU12@M@Z 0000000180050004     resize_worker.obj
 0002:0001d030       $stateUnwindMap$?draw_image@?$CImg@E@cimg_library@@QEAAAEAU12@HHHHAEBU12@M@Z 0000000180050030     resize_worker.obj
 0002:0001d038       $ip2state$?draw_image@?$CImg@E@cimg_library@@QEAAAEAU12@HHHHAEBU12@M@Z 0000000180050038     resize_worker.obj
 0002:0001d050       $unwind$?get_crop@?$CImg@E@cimg_library@@QEBA?AU12@HHHHHHHH_N@Z 0000000180050050     resize_worker.obj
 0002:0001d070       $stateUnwindMap$?get_crop@?$CImg@E@cimg_library@@QEBA?AU12@HHHHHHHH_N@Z 0000000180050070     resize_worker.obj
 0002:0001d078       $ip2state$?get_crop@?$CImg@E@cimg_library@@QEBA?AU12@HHHHHHHH_N@Z 0000000180050078     resize_worker.obj
 0002:0001d088       $unwind$_sincos_special    0000000180050088     libucrt:sincos_special.obj
 0002:0001d088       $unwind$_sincosf_special   0000000180050088     libucrt:sincos_special.obj
 0002:0001d088       $unwind$?_cimg_lanczos@?$CImg@E@cimg_library@@SAMM@Z 0000000180050088     resize_worker.obj
 0002:0001d090       $chain$2$?_cimg_lanczos@?$CImg@E@cimg_library@@SAMM@Z 0000000180050090     resize_worker.obj
 0002:0001d0ac       $chain$3$?_cimg_lanczos@?$CImg@E@cimg_library@@SAMM@Z 00000001800500ac     resize_worker.obj
 0002:0001d0bc       $unwind$wcstol             00000001800500bc     libucrt:strtox.obj
 0002:0001d0bc       $unwind$??$common_xtox_s@K_W@@YAHKQEA_W_KI_N@Z 00000001800500bc     libucrt:xtoa.obj
 0002:0001d0bc       $unwind$strtol             00000001800500bc     libucrt:strtox.obj
 0002:0001d0bc       $unwind$??H?$CImg@E@cimg_library@@QEBA?AU01@XZ 00000001800500bc     resize_worker.obj
 0002:0001d0bc       $unwind$??0out_of_range@std@@QEAA@PEBD@Z 00000001800500bc     libcpmt:xthrow.obj
 0002:0001d0bc       $unwind$??0length_error@std@@QEAA@PEBD@Z 00000001800500bc     libcpmt:xthrow.obj
 0002:0001d0c4       $unwind$?assign@?$CImg@E@cimg_library@@QEAAAEAU12@IIII@Z 00000001800500c4     resize_worker.obj
 0002:0001d0e0       $tryMap$?assign@?$CImg@E@cimg_library@@QEAAAEAU12@IIII@Z 00000001800500e0     resize_worker.obj
 0002:0001d0f4       $handlerMap$0$?assign@?$CImg@E@cimg_library@@QEAAAEAU12@IIII@Z 00000001800500f4     resize_worker.obj
 0002:0001d108       $ip2state$?assign@?$CImg@E@cimg_library@@QEAAAEAU12@IIII@Z 0000000180050108     resize_worker.obj
 0002:0001d130       $unwind$?catch$0@?0??assign@?$CImg@E@cimg_library@@QEAAAEAU12@IIII@Z@4HA 0000000180050130     resize_worker.obj
 0002:0001d14c       $unwind$??0?$CImg@E@cimg_library@@QEAA@IIIIAEBE@Z 000000018005014c     resize_worker.obj
 0002:0001d160       $tryMap$??0?$CImg@E@cimg_library@@QEAA@IIIIAEBE@Z 0000000180050160     resize_worker.obj
 0002:0001d174       $handlerMap$0$??0?$CImg@E@cimg_library@@QEAA@IIIIAEBE@Z 0000000180050174     resize_worker.obj
 0002:0001d188       $ip2state$??0?$CImg@E@cimg_library@@QEAA@IIIIAEBE@Z 0000000180050188     resize_worker.obj
 0002:0001d1b0       $unwind$?catch$0@?0???0?$CImg@E@cimg_library@@QEAA@IIIIAEBE@Z@4HA 00000001800501b0     resize_worker.obj
 0002:0001d1cc       $unwind$??0?$CImg@M@cimg_library@@QEAA@IIIIAEBM@Z 00000001800501cc     resize_worker.obj
 0002:0001d1e0       $tryMap$??0?$CImg@M@cimg_library@@QEAA@IIIIAEBM@Z 00000001800501e0     resize_worker.obj
 0002:0001d1f4       $handlerMap$0$??0?$CImg@M@cimg_library@@QEAA@IIIIAEBM@Z 00000001800501f4     resize_worker.obj
 0002:0001d208       $ip2state$??0?$CImg@M@cimg_library@@QEAA@IIIIAEBM@Z 0000000180050208     resize_worker.obj
 0002:0001d230       $unwind$?catch$0@?0???0?$CImg@M@cimg_library@@QEAA@IIIIAEBM@Z@4HA 0000000180050230     resize_worker.obj
 0002:0001d24c       $unwind$??0?$CImg@M@cimg_library@@QEAA@IIII@Z 000000018005024c     resize_worker.obj
 0002:0001d260       $tryMap$??0?$CImg@M@cimg_library@@QEAA@IIII@Z 0000000180050260     resize_worker.obj
 0002:0001d274       $handlerMap$0$??0?$CImg@M@cimg_library@@QEAA@IIII@Z 0000000180050274     resize_worker.obj
 0002:0001d288       $ip2state$??0?$CImg@M@cimg_library@@QEAA@IIII@Z 0000000180050288     resize_worker.obj
 0002:0001d2b0       $unwind$?catch$0@?0???0?$CImg@M@cimg_library@@QEAA@IIII@Z@4HA 00000001800502b0     resize_worker.obj
 0002:0001d2cc       $unwind$??0?$CImg@E@cimg_library@@QEAA@AEBU01@_N@Z 00000001800502cc     resize_worker.obj
 0002:0001d2e8       $tryMap$??0?$CImg@E@cimg_library@@QEAA@AEBU01@_N@Z 00000001800502e8     resize_worker.obj
 0002:0001d2fc       $handlerMap$0$??0?$CImg@E@cimg_library@@QEAA@AEBU01@_N@Z 00000001800502fc     resize_worker.obj
 0002:0001d310       $ip2state$??0?$CImg@E@cimg_library@@QEAA@AEBU01@_N@Z 0000000180050310     resize_worker.obj
 0002:0001d338       $unwind$?catch$0@?0???0?$CImg@E@cimg_library@@QEAA@AEBU01@_N@Z@4HA 0000000180050338     resize_worker.obj
 0002:0001d354       $unwind$?assign@?$CImg@E@cimg_library@@QEAAAEAU12@QEBEIIII_N@Z 0000000180050354     resize_worker.obj
 0002:0001d36c       $unwind$?assign@?$CImg@E@cimg_library@@QEAAAEAU12@QEBEIIII@Z 000000018005036c     resize_worker.obj
 0002:0001d38c       $tryMap$?assign@?$CImg@E@cimg_library@@QEAAAEAU12@QEBEIIII@Z 000000018005038c     resize_worker.obj
 0002:0001d3a0       $handlerMap$0$?assign@?$CImg@E@cimg_library@@QEAAAEAU12@QEBEIIII@Z 00000001800503a0     resize_worker.obj
 0002:0001d3b8       $ip2state$?assign@?$CImg@E@cimg_library@@QEAAAEAU12@QEBEIIII@Z 00000001800503b8     resize_worker.obj
 0002:0001d3e0       $unwind$?catch$0@?0??assign@?$CImg@E@cimg_library@@QEAAAEAU12@QEBEIIII@Z@4HA 00000001800503e0     resize_worker.obj
 0002:0001d3fc       $unwind$?Execute@RotateWorker@@UEAAXXZ 00000001800503fc     rotate_worker.obj
 0002:0001d42c       $stateUnwindMap$?Execute@RotateWorker@@UEAAXXZ 000000018005042c     rotate_worker.obj
 0002:0001d46c       $tryMap$?Execute@RotateWorker@@UEAAXXZ 000000018005046c     rotate_worker.obj
 0002:0001d494       $handlerMap$0$?Execute@RotateWorker@@UEAAXXZ 0000000180050494     rotate_worker.obj
 0002:0001d4a8       $handlerMap$1$?Execute@RotateWorker@@UEAAXXZ 00000001800504a8     rotate_worker.obj
 0002:0001d4c0       $ip2state$?Execute@RotateWorker@@UEAAXXZ 00000001800504c0     rotate_worker.obj
 0002:0001d538       $unwind$?catch$0@?0??Execute@RotateWorker@@UEAAXXZ@4HA 0000000180050538     rotate_worker.obj
 0002:0001d538       $unwind$?catch$1@?0??Execute@RotateWorker@@UEAAXXZ@4HA 0000000180050538     rotate_worker.obj
 0002:0001d548       $unwind$?fillC@?$CImg@E@cimg_library@@QEAAAEAU12@IIIHZZ 0000000180050548     rotate_worker.obj
 0002:0001d550       $chain$0$?fillC@?$CImg@E@cimg_library@@QEAAAEAU12@IIIHZZ 0000000180050550     rotate_worker.obj
 0002:0001d564       $chain$1$?fillC@?$CImg@E@cimg_library@@QEAAAEAU12@IIIHZZ 0000000180050564     rotate_worker.obj
 0002:0001d574       $unwind$?get_rotate@?$CImg@E@cimg_library@@QEBA?AU12@MII@Z 0000000180050574     rotate_worker.obj
 0002:0001d5b8       $stateUnwindMap$?get_rotate@?$CImg@E@cimg_library@@QEBA?AU12@MII@Z 00000001800505b8     rotate_worker.obj
 0002:0001d5c0       $ip2state$?get_rotate@?$CImg@E@cimg_library@@QEBA?AU12@MII@Z 00000001800505c0     rotate_worker.obj
 0002:0001d5d8       $unwind$?_linear_atXY@?$CImg@E@cimg_library@@QEBAMMMHH@Z 00000001800505d8     rotate_worker.obj
 0002:0001d5e4       $unwind$?Execute@BlurWorker@@UEAAXXZ 00000001800505e4     blur_worker.obj
 0002:0001d5ec       $unwind$?vanvliet@?$CImg@E@cimg_library@@QEAAAEAU12@MID_N@Z 00000001800505ec     blur_worker.obj
 0002:0001d5fc       $chain$3$?vanvliet@?$CImg@E@cimg_library@@QEAAAEAU12@MID_N@Z 00000001800505fc     blur_worker.obj
 0002:0001d61c       $chain$4$?vanvliet@?$CImg@E@cimg_library@@QEAAAEAU12@MID_N@Z 000000018005061c     blur_worker.obj
 0002:0001d638       $chain$5$?vanvliet@?$CImg@E@cimg_library@@QEAAAEAU12@MID_N@Z 0000000180050638     blur_worker.obj
 0002:0001d648       $unwind$?_cimg_recursive_apply@?$CImg@E@cimg_library@@SAXPEAEQEBNHKI_N@Z 0000000180050648     blur_worker.obj
 0002:0001d684       $unwind$?Execute@CropWorker@@UEAAXXZ 0000000180050684     crop_worker.obj
 0002:0001d694       $stateUnwindMap$?Execute@CropWorker@@UEAAXXZ 0000000180050694     crop_worker.obj
 0002:0001d6ac       $tryMap$?Execute@CropWorker@@UEAAXXZ 00000001800506ac     crop_worker.obj
 0002:0001d6c0       $handlerMap$0$?Execute@CropWorker@@UEAAXXZ 00000001800506c0     crop_worker.obj
 0002:0001d6d8       $ip2state$?Execute@CropWorker@@UEAAXXZ 00000001800506d8     crop_worker.obj
 0002:0001d710       $unwind$?catch$0@?0??Execute@CropWorker@@UEAAXXZ@4HA 0000000180050710     crop_worker.obj
 0002:0001d720       $unwind$?crop@?$CImg@E@cimg_library@@QEAAAEAU12@HHHHHHHH_N@Z 0000000180050720     crop_worker.obj
 0002:0001d738       $ip2state$?crop@?$CImg@E@cimg_library@@QEAAAEAU12@HHHHHHHH_N@Z 0000000180050738     crop_worker.obj
 0002:0001d750       $unwind$?Execute@MirrorWorker@@UEAAXXZ 0000000180050750     mirror_worker.obj
 0002:0001d768       $stateUnwindMap$?Execute@MirrorWorker@@UEAAXXZ 0000000180050768     mirror_worker.obj
 0002:0001d788       $tryMap$?Execute@MirrorWorker@@UEAAXXZ 0000000180050788     mirror_worker.obj
 0002:0001d79c       $handlerMap$0$?Execute@MirrorWorker@@UEAAXXZ 000000018005079c     mirror_worker.obj
 0002:0001d7b0       $ip2state$?Execute@MirrorWorker@@UEAAXXZ 00000001800507b0     mirror_worker.obj
 0002:0001d7f0       $unwind$?catch$0@?0??Execute@MirrorWorker@@UEAAXXZ@4HA 00000001800507f0     mirror_worker.obj
 0002:0001d800       $unwind$?mirror@?$CImg@E@cimg_library@@QEAAAEAU12@D@Z 0000000180050800     mirror_worker.obj
 0002:0001d80c       $chain$4$?mirror@?$CImg@E@cimg_library@@QEAAAEAU12@D@Z 000000018005080c     mirror_worker.obj
 0002:0001d830       $chain$5$?mirror@?$CImg@E@cimg_library@@QEAAAEAU12@D@Z 0000000180050830     mirror_worker.obj
 0002:0001d840       $chain$6$?mirror@?$CImg@E@cimg_library@@QEAAAEAU12@D@Z 0000000180050840     mirror_worker.obj
 0002:0001d864       $unwind$?initialize_stdio_handles_nolock@@YAXXZ 0000000180050864     libucrt:ioinit.obj
 0002:0001d864       $unwind$_free_osfhnd       0000000180050864     libucrt:osfinfo.obj
 0002:0001d864       $unwind$__std_exception_copy 0000000180050864     libvcruntime:std_exception.obj
 0002:0001d864       $unwind$?assign@?$basic_string@DU?$char_traits@D@std@@V?$allocator@D@2@@std@@QEAAAEAV12@AEBV12@_K1@Z 0000000180050864     mirror_worker.obj
 0002:0001d878       $unwind$?append@?$basic_string@DU?$char_traits@D@std@@V?$allocator@D@2@@std@@QEAAAEAV12@PEBD_K@Z 0000000180050878     mirror_worker.obj
 0002:0001d888       $chain$0$?append@?$basic_string@DU?$char_traits@D@std@@V?$allocator@D@2@@std@@QEAAAEAV12@PEBD_K@Z 0000000180050888     mirror_worker.obj
 0002:0001d89c       $chain$1$?append@?$basic_string@DU?$char_traits@D@std@@V?$allocator@D@2@@std@@QEAAAEAV12@PEBD_K@Z 000000018005089c     mirror_worker.obj
 0002:0001d8ac       $chain$2$?append@?$basic_string@DU?$char_traits@D@std@@V?$allocator@D@2@@std@@QEAAAEAV12@PEBD_K@Z 00000001800508ac     mirror_worker.obj
 0002:0001d8c0       $unwind$?append@?$basic_string@DU?$char_traits@D@std@@V?$allocator@D@2@@std@@QEAAAEAV12@AEBV12@_K1@Z 00000001800508c0     mirror_worker.obj
 0002:0001d8d4       $chain$0$?append@?$basic_string@DU?$char_traits@D@std@@V?$allocator@D@2@@std@@QEAAAEAV12@AEBV12@_K1@Z 00000001800508d4     mirror_worker.obj
 0002:0001d8e8       $chain$1$?append@?$basic_string@DU?$char_traits@D@std@@V?$allocator@D@2@@std@@QEAAAEAV12@AEBV12@_K1@Z 00000001800508e8     mirror_worker.obj
 0002:0001d8f8       $chain$2$?append@?$basic_string@DU?$char_traits@D@std@@V?$allocator@D@2@@std@@QEAAAEAV12@AEBV12@_K1@Z 00000001800508f8     mirror_worker.obj
 0002:0001d90c       $unwind$__acrt_free_locale 000000018005090c     libucrt:locale_refcounting.obj
 0002:0001d90c       $unwind$?expand_if_necessary@?$argument_list@D@?A0xca0879c4@@AEAAHXZ 000000018005090c     libucrt:argv_wildcards.obj
 0002:0001d90c       $unwind$??$ensure_buffer_is_big_enough@D@formatting_buffer@__crt_stdio_output@@QEAA_N_K@Z 000000018005090c     libucrt:output.obj
 0002:0001d90c       $unwind$__acrt_InitializeCriticalSectionEx 000000018005090c     libucrt:winapi_thunks.obj
 0002:0001d90c       $unwind$__scrt_dllmain_exception_filter 000000018005090c     LIBCMT:utility.obj
 0002:0001d90c       $unwind$?setSBCS@@YAXPEAU__crt_multibyte_data@@@Z 000000018005090c     libucrt:mbctype.obj
 0002:0001d90c       $unwind$_seh_filter_exe    000000018005090c     libucrt:exception_filter.obj
 0002:0001d90c       $unwind$_recalloc_base     000000018005090c     libucrt:recalloc.obj
 0002:0001d90c       $unwind$?dllmain_raw@@YAHQEAUHINSTANCE__@@KQEAX@Z 000000018005090c     LIBCMT:dll_dllmain.obj
 0002:0001d90c       $unwind$__acrt_lowio_create_handle_array 000000018005090c     libucrt:osfinfo.obj
 0002:0001d90c       $unwind$?process@?$output_processor@DV?$string_output_adapter@D@__crt_stdio_output@@V?$format_validation_base@DV?$string_output_adapter@D@__crt_stdio_output@@@2@@__crt_stdio_output@@QEAAHXZ 000000018005090c     libucrt:output.obj
 0002:0001d90c       $unwind$__vcrt_InitializeCriticalSectionEx 000000018005090c     libvcruntime:winapi_downlevel.obj
 0002:0001d90c       $unwind$__acrt_execute_initializers 000000018005090c     libucrt:shared_initialization.obj
 0002:0001d90c       $unwind$?find_or_allocate_unused_stream_nolock@@YA?AV__crt_stdio_stream@@XZ 000000018005090c     libucrt:stream.obj
 0002:0001d90c       $unwind$_wassert           000000018005090c     libucrt:assert.obj
 0002:0001d90c       $unwind$?_Copy@?$basic_string@DU?$char_traits@D@std@@V?$allocator@D@2@@std@@QEAAX_K0@Z 000000018005090c     mirror_worker.obj
 0002:0001d920       $unwind$?Execute@PadWorker@@UEAAXXZ 0000000180050920     pad_worker.obj
 0002:0001d93c       $stateUnwindMap$?Execute@PadWorker@@UEAAXXZ 000000018005093c     pad_worker.obj
 0002:0001d95c       $tryMap$?Execute@PadWorker@@UEAAXXZ 000000018005095c     pad_worker.obj
 0002:0001d970       $handlerMap$0$?Execute@PadWorker@@UEAAXXZ 0000000180050970     pad_worker.obj
 0002:0001d990       $ip2state$?Execute@PadWorker@@UEAAXXZ 0000000180050990     pad_worker.obj
 0002:0001d9d0       $unwind$?catch$0@?0??Execute@PadWorker@@UEAAXXZ@4HA 00000001800509d0     pad_worker.obj
 0002:0001d9e0       $unwind$?Execute@SharpenWorker@@UEAAXXZ 00000001800509e0     sharpen_worker.obj
 0002:0001d9f0       $stateUnwindMap$?Execute@SharpenWorker@@UEAAXXZ 00000001800509f0     sharpen_worker.obj
 0002:0001da08       $tryMap$?Execute@SharpenWorker@@UEAAXXZ 0000000180050a08     sharpen_worker.obj
 0002:0001da1c       $handlerMap$0$?Execute@SharpenWorker@@UEAAXXZ 0000000180050a1c     sharpen_worker.obj
 0002:0001da30       $ip2state$?Execute@SharpenWorker@@UEAAXXZ 0000000180050a30     sharpen_worker.obj
 0002:0001da68       $unwind$?catch$0@?0??Execute@SharpenWorker@@UEAAXXZ@4HA 0000000180050a68     sharpen_worker.obj
 0002:0001da78       $unwind$?sharpen@?$CImg@E@cimg_library@@QEAAAEAU12@M_NMMM@Z 0000000180050a78     sharpen_worker.obj
 0002:0001dac8       $stateUnwindMap$?sharpen@?$CImg@E@cimg_library@@QEAAAEAU12@M_NMMM@Z 0000000180050ac8     sharpen_worker.obj
 0002:0001db78       $ip2state$?sharpen@?$CImg@E@cimg_library@@QEAAAEAU12@M_NMMM@Z 0000000180050b78     sharpen_worker.obj
 0002:0001dba0       $unwind$?max@?$CImg@M@cimg_library@@QEAAAEAMXZ 0000000180050ba0     sharpen_worker.obj
 0002:0001dba8       $unwind$??$?YE@?$CImg@M@cimg_library@@QEAAAEAU01@AEBU?$CImg@E@1@@Z 0000000180050ba8     sharpen_worker.obj
 0002:0001dbc4       $stateUnwindMap$??$?YE@?$CImg@M@cimg_library@@QEAAAEAU01@AEBU?$CImg@E@1@@Z 0000000180050bc4     sharpen_worker.obj
 0002:0001dbd0       $ip2state$??$?YE@?$CImg@M@cimg_library@@QEAAAEAU01@AEBU?$CImg@E@1@@Z 0000000180050bd0     sharpen_worker.obj
 0002:0001dbe8       $unwind$?Execute@HSLAWorker@@UEAAXXZ 0000000180050be8     hsla_worker.obj
 0002:0001dc18       $unwind$?rgb_to_hsl@@YAXEEEPEAM00@Z 0000000180050c18     hsla_worker.obj
 0002:0001dc28       $chain$0$?rgb_to_hsl@@YAXEEEPEAM00@Z 0000000180050c28     hsla_worker.obj
 0002:0001dc3c       $chain$1$?rgb_to_hsl@@YAXEEEPEAM00@Z 0000000180050c3c     hsla_worker.obj
 0002:0001dc4c       $unwind$?hsl_to_rgb@@YAXMMMPEAE00@Z 0000000180050c4c     hsla_worker.obj
 0002:0001dc68       $unwind$?Execute@OpacifyWorker@@UEAAXXZ 0000000180050c68     opacify_worker.obj
 0002:0001dc78       $unwind$??0PasteWorker@@QEAA@_K0AEAV?$Local@VObject@v8@@@v8@@00PEAU?$CImg@E@cimg_library@@PEAVCallback@Nan@@@Z 0000000180050c78     paste_worker.obj
 0002:0001dc94       $stateUnwindMap$??0PasteWorker@@QEAA@_K0AEAV?$Local@VObject@v8@@@v8@@00PEAU?$CImg@E@cimg_library@@PEAVCallback@Nan@@@Z 0000000180050c94     paste_worker.obj
 0002:0001dca8       $ip2state$??0PasteWorker@@QEAA@_K0AEAV?$Local@VObject@v8@@@v8@@00PEAU?$CImg@E@cimg_library@@PEAVCallback@Nan@@@Z 0000000180050ca8     paste_worker.obj
 0002:0001dcd0       $unwind$?Execute@PasteWorker@@UEAAXXZ 0000000180050cd0     paste_worker.obj
 0002:0001dcf8       $stateUnwindMap$?Execute@PasteWorker@@UEAAXXZ 0000000180050cf8     paste_worker.obj
 0002:0001dd10       $tryMap$?Execute@PasteWorker@@UEAAXXZ 0000000180050d10     paste_worker.obj
 0002:0001dd24       $handlerMap$0$?Execute@PasteWorker@@UEAAXXZ 0000000180050d24     paste_worker.obj
 0002:0001dd38       $ip2state$?Execute@PasteWorker@@UEAAXXZ 0000000180050d38     paste_worker.obj
 0002:0001dd70       $unwind$?catch$0@?0??Execute@PasteWorker@@UEAAXXZ@4HA 0000000180050d70     paste_worker.obj
 0002:0001dd80       $unwind$?Execute@SetPixelWorker@@UEAAXXZ 0000000180050d80     setpixel_worker.obj
 0002:0001dd88       xdata                      0000000180050d88     node:node.exe
 0002:0001dd90       $xdatasym                  0000000180050d90     LIBCMT:_amdsecgs_.obj
 0002:0001dd94       $unwind$__scrt_is_nonwritable_in_current_image 0000000180050d94     LIBCMT:utility.obj
 0002:0001ddb4       $unwind$__scrt_is_nonwritable_in_current_image$filt$0 0000000180050db4     LIBCMT:utility.obj
 0002:0001ddbc       $unwind$__scrt_initialize_onexit_tables 0000000180050dbc     LIBCMT:utility.obj
 0002:0001ddc8       $unwind$?dllmain_crt_process_attach@@YAHQEAUHINSTANCE__@@QEAX@Z 0000000180050dc8     LIBCMT:dll_dllmain.obj
 0002:0001ddf4       $unwind$?dllmain_crt_process_detach@@YAH_N@Z 0000000180050df4     LIBCMT:dll_dllmain.obj
 0002:0001de1c       $unwind$?dllmain_dispatch@@YAHQEAUHINSTANCE__@@KQEAX@Z 0000000180050e1c     LIBCMT:dll_dllmain.obj
 0002:0001de44       $unwind$?filt$0@?0??dllmain_dispatch@@YAHQEAUHINSTANCE__@@KQEAX@Z@4HA 0000000180050e44     LIBCMT:dll_dllmain.obj
 0002:0001de4c       $unwind$__report_securityfailure 0000000180050e4c     LIBCMT:gs_report.obj
 0002:0001de54       $unwind$capture_current_context 0000000180050e54     LIBCMT:gs_report.obj
 0002:0001de60       $unwind$capture_previous_context 0000000180050e60     LIBCMT:gs_report.obj
 0002:0001de6c       $unwind$__scrt_fastfail    0000000180050e6c     LIBCMT:utility_desktop.obj
 0002:0001de7c       $unwind$__isa_available_init 0000000180050e7c     LIBCMT:_cpu_disp_.obj
 0002:0001de88       $unwind$__security_init_cookie 0000000180050e88     LIBCMT:gs_support.obj
 0002:0001de98       $xdatasym                  0000000180050e98     LIBCMT:_guard_dispatch_.obj
 0002:0001de9c       $unwind$__CxxCallCatchBlock 0000000180050e9c     libvcruntime:frame.obj
 0002:0001ded8       $unwind$__CxxCallCatchBlock$fin$1 0000000180050ed8     libvcruntime:frame.obj
 0002:0001dee4       $unwind$__FrameUnwindToState 0000000180050ee4     libvcruntime:frame.obj
 0002:0001df20       $unwind$?FindHandler@@YAXPEAUEHExceptionRecord@@PEA_KPEAU_CONTEXT@@PEAU_xDISPATCHER_CONTEXT@@PEBU_s_FuncInfo@@EH1@Z 0000000180050f20     libvcruntime:frame.obj
 0002:0001df40       $unwind$?CatchIt@@YAXPEAUEHExceptionRecord@@PEA_KPEAU_CONTEXT@@PEAU_xDISPATCHER_CONTEXT@@PEBU_s_FuncInfo@@PEBU_s_HandlerType@@PEBU_s_CatchableType@@PEBU_s_TryBlockMapEntry@@H1EE@Z 0000000180050f40     libvcruntime:frame.obj
 0002:0001df58       $unwind$__BuildCatchObject 0000000180050f58     libvcruntime:frame.obj
 0002:0001df84       $unwind$?process@?$output_processor@_WV?$string_output_adapter@_W@__crt_stdio_output@@V?$standard_base@_WV?$string_output_adapter@_W@__crt_stdio_output@@@2@@__crt_stdio_output@@QEAAHXZ 0000000180050f84     libucrt:output.obj
 0002:0001df84       $unwind$_initterm          0000000180050f84     libucrt:initterm.obj
 0002:0001df84       $unwind$__acrt_MessageBoxW 0000000180050f84     libucrt:winapi_thunks.obj
 0002:0001df84       $unwind$__GSHandlerCheck_EH 0000000180050f84     LIBCMT:gshandlereh.obj
 0002:0001df84       $unwind$__acrt_initialize_stdio 0000000180050f84     libucrt:_file.obj
 0002:0001df84       $unwind$__TypeMatch        0000000180050f84     libvcruntime:frame.obj
 0002:0001df84       $unwind$__vcrt_EventSetInformation 0000000180050f84     libvcruntime:winapi_downlevel.obj
 0002:0001df84       $unwind$__acrt_lowio_set_os_handle 0000000180050f84     libucrt:osfinfo.obj
 0002:0001df84       $unwind$__vcrt_EventRegister 0000000180050f84     libvcruntime:winapi_downlevel.obj
 0002:0001df9c       $unwind$?FindHandlerForForeignException@@YAXPEAUEHExceptionRecord@@PEA_KPEAU_CONTEXT@@PEAU_xDISPATCHER_CONTEXT@@PEBU_s_FuncInfo@@HH1@Z 0000000180050f9c     libvcruntime:frame.obj
 0002:0001dfb4       $unwind$__DestructExceptionObject 0000000180050fb4     libvcruntime:frame.obj
 0002:0001dfd8       $unwind$__C_specific_handler 0000000180050fd8     libvcruntime:_chandler_.obj
 0002:0001dfd8       $unwind$__InternalCxxFrameHandler 0000000180050fd8     libvcruntime:frame.obj
 0002:0001dff4       $unwind$__BuildCatchObjectHelper 0000000180050ff4     libvcruntime:frame.obj
 0002:0001e038       $xdatasym                  0000000180051038     libvcruntime:memcpy.obj
 0002:0001e03c       $unwind$_CxxThrowException 000000018005103c     libvcruntime:throw.obj
 0002:0001e050       $unwind$__vcrt_uninitialize_winapi_thunks 0000000180051050     libvcruntime:winapi_downlevel.obj
 0002:0001e050       $unwind$__acrt_stdio_end_temporary_buffering_nolock 0000000180051050     libucrt:_sftbuf.obj
 0002:0001e058       $unwind$?try_get_function@@YAPEAXW4function_id@?A0x63058377@@QEBDQEBW4module_id@2@2@Z 0000000180051058     libucrt:winapi_thunks.obj
 0002:0001e058       $unwind$?write_string@?$string_output_adapter@_W@__crt_stdio_output@@QEBAXQEB_WHQEAH1@Z 0000000180051058     libucrt:output.obj
 0002:0001e058       $unwind$?IsInExceptionSpec@@YAEPEAUEHExceptionRecord@@PEBU_s_ESTypeList@@@Z 0000000180051058     libvcruntime:frame.obj
 0002:0001e058       $unwind$?try_get_function@@YAPEAXW4function_id@?A0x49c8dc86@@QEBDQEBW4module_id@2@2@Z 0000000180051058     libvcruntime:winapi_downlevel.obj
 0002:0001e074       $unwind$__telemetry_main_invoke_trigger 0000000180051074     libvcruntime:telemetry.obj
 0002:0001e074       $unwind$__telemetry_main_return_trigger 0000000180051074     libvcruntime:telemetry.obj
 0002:0001e08c       $unwind$?_TlgEnableCallback@__vcrt_trace_logging_provider@@YAXPEBU_GUID@@KE_K1PEAU_EVENT_FILTER_DESCRIPTOR@@PEAX@Z 000000018005108c     libvcruntime:telemetry.obj
 0002:0001e0a8       $xdatasym                  00000001800510a8     libvcruntime:memset.obj
 0002:0001e0b0       $xdatasym                  00000001800510b0     libvcruntime:handlers.obj
 0002:0001e0b8       $unwind$?_GetEstablisherFrame@@YAPEA_KPEA_KPEAU_xDISPATCHER_CONTEXT@@PEBU_s_FuncInfo@@0@Z 00000001800510b8     libvcruntime:trnsctrl.obj
 0002:0001e0d0       $unwind$?__FrameUnwindToEmptyState@@YAXPEA_KPEAU_xDISPATCHER_CONTEXT@@PEBU_s_FuncInfo@@@Z 00000001800510d0     libvcruntime:trnsctrl.obj
 0002:0001e0e4       $unwind$_CallSETranslator  00000001800510e4     libvcruntime:trnsctrl.obj
 0002:0001e108       $unwind$_UnwindNestedFrames 0000000180051108     libvcruntime:trnsctrl.obj
 0002:0001e120       $xdatasym                  0000000180051120     libvcruntime:_jmpuwind_.obj
 0002:0001e134       $unwind$??$common_fsopen@D@@YAPEAU_iobuf@@QEBD0H@Z 0000000180051134     libucrt:fopen.obj
 0002:0001e15c       $unwind$fclose             000000018005115c     libucrt:fclose.obj
 0002:0001e180       $unwind$__stdio_common_vfprintf 0000000180051180     libucrt:output.obj
 0002:0001e180       $unwind$__stdio_common_vfwprintf 0000000180051180     libucrt:output.obj
 0002:0001e188       $unwind$__stdio_common_vsprintf 0000000180051188     libucrt:output.obj
 0002:0001e188       $unwind$__stdio_common_vswprintf 0000000180051188     libucrt:output.obj
 0002:0001e1ac       $unwind$__stdio_common_vsnprintf_s 00000001800511ac     libucrt:output.obj
 0002:0001e1c4       $unwind$?write_string@?$stream_output_adapter@D@__crt_stdio_output@@QEBAXQEBDHQEAH1@Z 00000001800511c4     libucrt:output.obj
 0002:0001e1c4       $unwind$_chsize_nolock     00000001800511c4     libucrt:chsize.obj
 0002:0001e1dc       $unwind$?parse_int_from_format_string@?$output_processor@DV?$stream_output_adapter@D@__crt_stdio_output@@V?$standard_base@DV?$stream_output_adapter@D@__crt_stdio_output@@@2@@__crt_stdio_output@@AEAA_NQEAH@Z 00000001800511dc     libucrt:output.obj
 0002:0001e1dc       $unwind$?parse_int_from_format_string@?$output_processor@DV?$string_output_adapter@D@__crt_stdio_output@@V?$standard_base@DV?$string_output_adapter@D@__crt_stdio_output@@@2@@__crt_stdio_output@@AEAA_NQEAH@Z 00000001800511dc     libucrt:output.obj
 0002:0001e1dc       $unwind$?parse_int_from_format_string@?$output_processor@DV?$string_output_adapter@D@__crt_stdio_output@@V?$format_validation_base@DV?$string_output_adapter@D@__crt_stdio_output@@@2@@__crt_stdio_output@@AEAA_NQEAH@Z 00000001800511dc     libucrt:output.obj
 0002:0001e1f0       $unwind$?configure_text_mode@@YAHHUfile_options@?A0x656cf9f4@@HAEAW4__crt_lowio_text_mode@@@Z 00000001800511f0     libucrt:open.obj
 0002:0001e1f0       $unwind$?state_case_type@?$output_processor@DV?$string_output_adapter@D@__crt_stdio_output@@V?$standard_base@DV?$string_output_adapter@D@__crt_stdio_output@@@2@@__crt_stdio_output@@AEAA_NXZ 00000001800511f0     libucrt:output.obj
 0002:0001e1f0       $unwind$?state_case_type@?$output_processor@DV?$stream_output_adapter@D@__crt_stdio_output@@V?$standard_base@DV?$stream_output_adapter@D@__crt_stdio_output@@@2@@__crt_stdio_output@@AEAA_NXZ 00000001800511f0     libucrt:output.obj
 0002:0001e1f0       $unwind$?state_case_type@?$output_processor@DV?$string_output_adapter@D@__crt_stdio_output@@V?$format_validation_base@DV?$string_output_adapter@D@__crt_stdio_output@@@2@@__crt_stdio_output@@AEAA_NXZ 00000001800511f0     libucrt:output.obj
 0002:0001e208       $unwind$?type_case_a@?$output_processor@DV?$string_output_adapter@D@__crt_stdio_output@@V?$standard_base@DV?$string_output_adapter@D@__crt_stdio_output@@@2@@__crt_stdio_output@@AEAA_NXZ 0000000180051208     libucrt:output.obj
 0002:0001e208       $unwind$?type_case_a@?$output_processor@DV?$string_output_adapter@D@__crt_stdio_output@@V?$format_validation_base@DV?$string_output_adapter@D@__crt_stdio_output@@@2@@__crt_stdio_output@@AEAA_NXZ 0000000180051208     libucrt:output.obj
 0002:0001e208       $unwind$?type_case_a@?$output_processor@DV?$stream_output_adapter@D@__crt_stdio_output@@V?$standard_base@DV?$stream_output_adapter@D@__crt_stdio_output@@@2@@__crt_stdio_output@@AEAA_NXZ 0000000180051208     libucrt:output.obj
 0002:0001e214       $unwind$?write_string@?$stream_output_adapter@_W@__crt_stdio_output@@QEBAXQEB_WHQEAH1@Z 0000000180051214     libucrt:output.obj
 0002:0001e22c       $unwind$?process@?$output_processor@_WV?$stream_output_adapter@_W@__crt_stdio_output@@V?$standard_base@_WV?$stream_output_adapter@_W@__crt_stdio_output@@@2@@__crt_stdio_output@@QEAAHXZ 000000018005122c     libucrt:output.obj
 0002:0001e244       $unwind$?parse_int_from_format_string@?$output_processor@_WV?$stream_output_adapter@_W@__crt_stdio_output@@V?$standard_base@_WV?$stream_output_adapter@_W@__crt_stdio_output@@@2@@__crt_stdio_output@@AEAA_NQEAH@Z 0000000180051244     libucrt:output.obj
 0002:0001e244       $unwind$?parse_int_from_format_string@?$output_processor@_WV?$string_output_adapter@_W@__crt_stdio_output@@V?$standard_base@_WV?$string_output_adapter@_W@__crt_stdio_output@@@2@@__crt_stdio_output@@AEAA_NQEAH@Z 0000000180051244     libucrt:output.obj
 0002:0001e258       $unwind$?write_stored_string_tchar@?$output_processor@_WV?$stream_output_adapter@_W@__crt_stdio_output@@V?$standard_base@_WV?$stream_output_adapter@_W@__crt_stdio_output@@@2@@__crt_stdio_output@@AEAA_N_W@Z 0000000180051258     libucrt:output.obj
 0002:0001e26c       $unwind$??R<lambda_0a64b6a4deda75c01876f29c44fc5eb3>@@QEBAHXZ 000000018005126c     libucrt:output.obj
 0002:0001e26c       $unwind$??R<lambda_dd75445284c072d0bd3768540cc698fa>@@QEBAHXZ 000000018005126c     libucrt:output.obj
 0002:0001e288       $unwind$?process@?$output_processor@DV?$stream_output_adapter@D@__crt_stdio_output@@V?$standard_base@DV?$stream_output_adapter@D@__crt_stdio_output@@@2@@__crt_stdio_output@@QEAAHXZ 0000000180051288     libucrt:output.obj
 0002:0001e288       $unwind$?process@?$output_processor@DV?$string_output_adapter@D@__crt_stdio_output@@V?$standard_base@DV?$string_output_adapter@D@__crt_stdio_output@@@2@@__crt_stdio_output@@QEAAHXZ 0000000180051288     libucrt:output.obj
 0002:0001e298       $unwind$?write_stored_string_tchar@?$output_processor@DV?$stream_output_adapter@D@__crt_stdio_output@@V?$standard_base@DV?$stream_output_adapter@D@__crt_stdio_output@@@2@@__crt_stdio_output@@AEAA_ND@Z 0000000180051298     libucrt:output.obj
 0002:0001e298       $unwind$?write_stored_string_tchar@?$output_processor@DV?$string_output_adapter@D@__crt_stdio_output@@V?$standard_base@DV?$string_output_adapter@D@__crt_stdio_output@@@2@@__crt_stdio_output@@AEAA_ND@Z 0000000180051298     libucrt:output.obj
 0002:0001e298       $unwind$?write_stored_string_tchar@?$output_processor@DV?$string_output_adapter@D@__crt_stdio_output@@V?$format_validation_base@DV?$string_output_adapter@D@__crt_stdio_output@@@2@@__crt_stdio_output@@AEAA_ND@Z 0000000180051298     libucrt:output.obj
 0002:0001e2b0       $unwind$?state_case_type@?$output_processor@_WV?$stream_output_adapter@_W@__crt_stdio_output@@V?$standard_base@_WV?$stream_output_adapter@_W@__crt_stdio_output@@@2@@__crt_stdio_output@@AEAA_NXZ 00000001800512b0     libucrt:output.obj
 0002:0001e2b0       $unwind$?state_case_type@?$output_processor@_WV?$string_output_adapter@_W@__crt_stdio_output@@V?$standard_base@_WV?$string_output_adapter@_W@__crt_stdio_output@@@2@@__crt_stdio_output@@AEAA_NXZ 00000001800512b0     libucrt:output.obj
 0002:0001e2d4       $unwind$??R<lambda_b721fa326cdb32351d23dfa67958c160>@@QEBAHXZ 00000001800512d4     libucrt:setvbuf.obj
 0002:0001e2d4       $unwind$?type_case_c_tchar@?$output_processor@_WV?$string_output_adapter@_W@__crt_stdio_output@@V?$standard_base@_WV?$string_output_adapter@_W@__crt_stdio_output@@@2@@__crt_stdio_output@@AEAA_N_W@Z 00000001800512d4     libucrt:output.obj
 0002:0001e2d4       $unwind$?type_case_c_tchar@?$output_processor@_WV?$stream_output_adapter@_W@__crt_stdio_output@@V?$standard_base@_WV?$stream_output_adapter@_W@__crt_stdio_output@@@2@@__crt_stdio_output@@AEAA_N_W@Z 00000001800512d4     libucrt:output.obj
 0002:0001e2d4       $unwind$?truncate_ctrl_z_if_present@@YAHH@Z 00000001800512d4     libucrt:open.obj
 0002:0001e2e4       $unwind$?type_case_a@?$output_processor@_WV?$stream_output_adapter@_W@__crt_stdio_output@@V?$standard_base@_WV?$stream_output_adapter@_W@__crt_stdio_output@@@2@@__crt_stdio_output@@AEAA_NXZ 00000001800512e4     libucrt:output.obj
 0002:0001e2e4       $unwind$?type_case_a@?$output_processor@_WV?$string_output_adapter@_W@__crt_stdio_output@@V?$standard_base@_WV?$string_output_adapter@_W@__crt_stdio_output@@@2@@__crt_stdio_output@@AEAA_NXZ 00000001800512e4     libucrt:output.obj
 0002:0001e2f4       $unwind$?write_stored_string_tchar@?$output_processor@_WV?$string_output_adapter@_W@__crt_stdio_output@@V?$standard_base@_WV?$string_output_adapter@_W@__crt_stdio_output@@@2@@__crt_stdio_output@@AEAA_N_W@Z 00000001800512f4     libucrt:output.obj
 0002:0001e308       $unwind$??$common_vsprintf@Vformat_validation_base@__crt_stdio_output@@D@@YAH_KQEAD0QEBDQEAU__crt_locale_pointers@@1@Z 0000000180051308     libucrt:output.obj
 0002:0001e328       $unwind$??$write_multiple_characters@V?$stream_output_adapter@D@__crt_stdio_output@@D@__crt_stdio_output@@YAXAEBV?$stream_output_adapter@D@0@DHQEAH@Z 0000000180051328     libucrt:output.obj
 0002:0001e340       $unwind$??$write_multiple_characters@V?$stream_output_adapter@_W@__crt_stdio_output@@D@__crt_stdio_output@@YAXAEBV?$stream_output_adapter@_W@0@DHQEAH@Z 0000000180051340     libucrt:output.obj
 0002:0001e358       $unwind$??$type_case_integer_parse_into_buffer@_K@?$output_processor@DV?$string_output_adapter@D@__crt_stdio_output@@V?$format_validation_base@DV?$string_output_adapter@D@__crt_stdio_output@@@2@@__crt_stdio_output@@AEAAX_KI_N@Z 0000000180051358     libucrt:output.obj
 0002:0001e358       $unwind$??$type_case_integer_parse_into_buffer@_K@?$output_processor@DV?$string_output_adapter@D@__crt_stdio_output@@V?$standard_base@DV?$string_output_adapter@D@__crt_stdio_output@@@2@@__crt_stdio_output@@AEAAX_KI_N@Z 0000000180051358     libucrt:output.obj
 0002:0001e358       $unwind$??$type_case_integer_parse_into_buffer@I@?$output_processor@_WV?$string_output_adapter@_W@__crt_stdio_output@@V?$standard_base@_WV?$string_output_adapter@_W@__crt_stdio_output@@@2@@__crt_stdio_output@@AEAAXII_N@Z 0000000180051358     libucrt:output.obj
 0002:0001e358       $unwind$??$type_case_integer_parse_into_buffer@_K@?$output_processor@_WV?$stream_output_adapter@_W@__crt_stdio_output@@V?$standard_base@_WV?$stream_output_adapter@_W@__crt_stdio_output@@@2@@__crt_stdio_output@@AEAAX_KI_N@Z 0000000180051358     libucrt:output.obj
 0002:0001e358       $unwind$??$type_case_integer_parse_into_buffer@I@?$output_processor@DV?$string_output_adapter@D@__crt_stdio_output@@V?$format_validation_base@DV?$string_output_adapter@D@__crt_stdio_output@@@2@@__crt_stdio_output@@AEAAXII_N@Z 0000000180051358     libucrt:output.obj
 0002:0001e358       $unwind$??$write_multiple_characters@V?$string_output_adapter@D@__crt_stdio_output@@D@__crt_stdio_output@@YAXAEBV?$string_output_adapter@D@0@DHQEAH@Z 0000000180051358     libucrt:output.obj
 0002:0001e358       $unwind$??$type_case_integer_parse_into_buffer@_K@?$output_processor@DV?$stream_output_adapter@D@__crt_stdio_output@@V?$standard_base@DV?$stream_output_adapter@D@__crt_stdio_output@@@2@@__crt_stdio_output@@AEAAX_KI_N@Z 0000000180051358     libucrt:output.obj
 0002:0001e358       $unwind$??$type_case_integer_parse_into_buffer@_K@?$output_processor@_WV?$string_output_adapter@_W@__crt_stdio_output@@V?$standard_base@_WV?$string_output_adapter@_W@__crt_stdio_output@@@2@@__crt_stdio_output@@AEAAX_KI_N@Z 0000000180051358     libucrt:output.obj
 0002:0001e358       $unwind$??$type_case_integer_parse_into_buffer@I@?$output_processor@DV?$stream_output_adapter@D@__crt_stdio_output@@V?$standard_base@DV?$stream_output_adapter@D@__crt_stdio_output@@@2@@__crt_stdio_output@@AEAAXII_N@Z 0000000180051358     libucrt:output.obj
 0002:0001e358       $unwind$??$type_case_integer_parse_into_buffer@I@?$output_processor@DV?$string_output_adapter@D@__crt_stdio_output@@V?$standard_base@DV?$string_output_adapter@D@__crt_stdio_output@@@2@@__crt_stdio_output@@AEAAXII_N@Z 0000000180051358     libucrt:output.obj
 0002:0001e358       $unwind$??$type_case_integer_parse_into_buffer@I@?$output_processor@_WV?$stream_output_adapter@_W@__crt_stdio_output@@V?$standard_base@_WV?$stream_output_adapter@_W@__crt_stdio_output@@@2@@__crt_stdio_output@@AEAAXII_N@Z 0000000180051358     libucrt:output.obj
 0002:0001e360       $unwind$??$write_multiple_characters@V?$string_output_adapter@_W@__crt_stdio_output@@D@__crt_stdio_output@@YAXAEBV?$string_output_adapter@_W@0@DHQEAH@Z 0000000180051360     libucrt:output.obj
 0002:0001e36c       $unwind$??$?RV<lambda_aa279a7bcb127014629d5b1d62c7325d>@@AEAV<lambda_0a64b6a4deda75c01876f29c44fc5eb3>@@V<lambda_3323e69fbefe9d1a11713e670d47cdfa>@@@?$__crt_seh_guarded_call@H@@QEAAH$$QEAV<lambda_aa279a7bcb127014629d5b1d62c7325d>@@AEAV<lambda_0a64b6a4deda75c01876f29c44fc5eb3>@@$$QEAV<lambda_3323e69fbefe9d1a11713e670d47cdfa>@@@Z 000000018005136c     libucrt:output.obj
 0002:0001e390       $unwind$??$?RV<lambda_7b91131dde12e1c3dfc74ff76b3f2eac>@@AEAV<lambda_dd75445284c072d0bd3768540cc698fa>@@V<lambda_16bc4ecb55b4718497c16bceaea2ceaf>@@@?$__crt_seh_guarded_call@H@@QEAAH$$QEAV<lambda_7b91131dde12e1c3dfc74ff76b3f2eac>@@AEAV<lambda_dd75445284c072d0bd3768540cc698fa>@@$$QEAV<lambda_16bc4ecb55b4718497c16bceaea2ceaf>@@@Z 0000000180051390     libucrt:output.obj
 0002:0001e3b8       $xdatasym                  00000001800513b8     libucrt:strncpy.obj
 0002:0001e3bc       $unwind$??$common_assert_to_stderr@_W@@YAXQEB_W0I@Z 00000001800513bc     libucrt:assert.obj
 0002:0001e3d8       $unwind$??$common_assert_to_message_box@_W@@YAXQEB_W0IQEAX@Z 00000001800513d8     libucrt:assert.obj
 0002:0001e3f4       $unwind$??$common_assert_to_message_box_build_string@_W@@YAXQEA_W_KQEB_W2IQEAX@Z 00000001800513f4     libucrt:assert.obj
 0002:0001e414       $unwind$??$common_getenv@D@@YAPEADQEBD@Z 0000000180051414     libucrt:getenv.obj
 0002:0001e434       $unwind$__acrt_call_reportfault 0000000180051434     libucrt:invalid_parameter.obj
 0002:0001e454       $unwind$_invalid_parameter 0000000180051454     libucrt:invalid_parameter.obj
 0002:0001e454       $unwind$__vcrt_EventWriteTransfer 0000000180051454     libvcruntime:winapi_downlevel.obj
 0002:0001e46c       $unwind$_stricmp_l         000000018005146c     libucrt:stricmp.obj
 0002:0001e46c       $unwind$?x_ismbbtype_l@@YAHPEAU__crt_locale_pointers@@IHH@Z 000000018005146c     libucrt:ismbbyte.obj
 0002:0001e47c       $unwind$terminate          000000018005147c     libucrt:terminate.obj
 0002:0001e49c       $unwind$_query_new_handler 000000018005149c     libucrt:new_handler.obj
 0002:0001e4bc       $unwind$?common_exit@@YAXHW4_crt_exit_cleanup_mode@@W4_crt_exit_return_mode@@@Z 00000001800514bc     libucrt:exit.obj
 0002:0001e4fc       $unwind$_configure_narrow_argv 00000001800514fc     libucrt:argv_parsing.obj
 0002:0001e510       $unwind$??$parse_command_line@D@@YAXPEADPEAPEAD0PEA_K2@Z 0000000180051510     libucrt:argv_parsing.obj
 0002:0001e510       $unwind$?write_string@?$string_output_adapter@D@__crt_stdio_output@@QEBAXQEBDHQEAH1@Z 0000000180051510     libucrt:output.obj
 0002:0001e510       $unwind$??R<lambda_4e60a939b0d047cfe11ddc22648dfba9>@@QEBAHXZ 0000000180051510     libucrt:onexit.obj
 0002:0001e510       $unwind$?_GetRangeOfTrysToCheck@@YAPEBU_s_TryBlockMapEntry@@PEA_KPEBU_s_FuncInfo@@HHPEAI2PEAU_xDISPATCHER_CONTEXT@@@Z 0000000180051510     libvcruntime:trnsctrl.obj
 0002:0001e52c       $unwind$??$create_environment@D@@YAQEAPEADQEAD@Z 000000018005152c     libucrt:environment_initialization.obj
 0002:0001e52c       $unwind$__acrt_copy_path_to_wide_string 000000018005152c     libucrt:string_utilities.obj
 0002:0001e544       $unwind$??$initialize_environment_by_cloning_nolock@D@@YAHXZ 0000000180051544     libucrt:environment_initialization.obj
 0002:0001e554       $unwind$_register_onexit_function 0000000180051554     libucrt:onexit.obj
 0002:0001e55c       $unwind$_execute_onexit_table 000000018005155c     libucrt:onexit.obj
 0002:0001e564       $unwind$??$?RV<lambda_b8c45f8f788dd370798f47cfe8ac3a86>@@AEAV<lambda_4e60a939b0d047cfe11ddc22648dfba9>@@V<lambda_332c3edc96d0294ec56c57d38c1cdfd5>@@@?$__crt_seh_guarded_call@H@@QEAAH$$QEAV<lambda_b8c45f8f788dd370798f47cfe8ac3a86>@@AEAV<lambda_4e60a939b0d047cfe11ddc22648dfba9>@@$$QEAV<lambda_332c3edc96d0294ec56c57d38c1cdfd5>@@@Z 0000000180051564     libucrt:onexit.obj
 0002:0001e588       $unwind$??$?RV<lambda_e24bbb7b643b32fcea6fa61b31d4c984>@@AEAV<lambda_275893d493268fdec8709772e3fcec0e>@@V<lambda_9d71df4d7cf3f480f8d633942495c3b0>@@@?$__crt_seh_guarded_call@H@@QEAAH$$QEAV<lambda_e24bbb7b643b32fcea6fa61b31d4c984>@@AEAV<lambda_275893d493268fdec8709772e3fcec0e>@@$$QEAV<lambda_9d71df4d7cf3f480f8d633942495c3b0>@@@Z 0000000180051588     libucrt:onexit.obj
 0002:0001e5b8       $unwind$??$parse_integer@KV?$c_string_character_source@D@__crt_strtox@@@__crt_strtox@@YAKQEAU__crt_locale_pointers@@V?$c_string_character_source@D@0@H_N@Z 00000001800515b8     libucrt:atox.obj
 0002:0001e5d4       $unwind$??$parse_integer@KV?$c_string_character_source@_W@__crt_strtox@@@__crt_strtox@@YAKQEAU__crt_locale_pointers@@V?$c_string_character_source@_W@0@H_N@Z 00000001800515d4     libucrt:atox.obj
 0002:0001e5f0       $unwind$?construct_ptd_array@@YAXQEAU__acrt_ptd@@@Z 00000001800515f0     libucrt:per_thread_data.obj
 0002:0001e5f8       $unwind$?destroy_ptd_array@@YAXQEAU__acrt_ptd@@@Z 00000001800515f8     libucrt:per_thread_data.obj
 0002:0001e600       $unwind$??$?RV<lambda_72d1df2b273a38828b1ce30cbf4cdab5>@@AEAV<lambda_876a65b173b8412d3a47c70a915b0cf4>@@V<lambda_41932305e351933ebe8f8be3ed8bb5dc>@@@?$__crt_seh_guarded_call@X@@QEAAX$$QEAV<lambda_72d1df2b273a38828b1ce30cbf4cdab5>@@AEAV<lambda_876a65b173b8412d3a47c70a915b0cf4>@@$$QEAV<lambda_41932305e351933ebe8f8be3ed8bb5dc>@@@Z 0000000180051600     libucrt:per_thread_data.obj
 0002:0001e624       $unwind$??$?RV<lambda_5e887d1dcbef67a5eb4283622ba103bf>@@AEAV<lambda_4466841279450cc726390878d4a41900>@@V<lambda_341c25c0346d94847f1f3c463c57e077>@@@?$__crt_seh_guarded_call@X@@QEAAX$$QEAV<lambda_5e887d1dcbef67a5eb4283622ba103bf>@@AEAV<lambda_4466841279450cc726390878d4a41900>@@$$QEAV<lambda_341c25c0346d94847f1f3c463c57e077>@@@Z 0000000180051624     libucrt:per_thread_data.obj
 0002:0001e648       $unwind$??$?RV<lambda_46352004c1216016012b18bd6f87e700>@@AEAV<lambda_3bd07e1a1191394380780325891bf33f>@@V<lambda_334532d3f185bcaa59b5be82d7d22bff>@@@?$__crt_seh_guarded_call@X@@QEAAX$$QEAV<lambda_46352004c1216016012b18bd6f87e700>@@AEAV<lambda_3bd07e1a1191394380780325891bf33f>@@$$QEAV<lambda_334532d3f185bcaa59b5be82d7d22bff>@@@Z 0000000180051648     libucrt:per_thread_data.obj
 0002:0001e66c       $unwind$??$?RV<lambda_fb3a7dec4e47f37f22dae91bb15c9095>@@AEAV<lambda_698284760c8add0bfb0756c19673e34b>@@V<lambda_dfb8eca1e75fef3034a8fb18dd509707>@@@?$__crt_seh_guarded_call@X@@QEAAX$$QEAV<lambda_fb3a7dec4e47f37f22dae91bb15c9095>@@AEAV<lambda_698284760c8add0bfb0756c19673e34b>@@$$QEAV<lambda_dfb8eca1e75fef3034a8fb18dd509707>@@@Z 000000018005166c     libucrt:per_thread_data.obj
 0002:0001e690       $unwind$?__acrt_stdio_allocate_stream@@YA?AV__crt_stdio_stream@@XZ 0000000180051690     libucrt:stream.obj
 0002:0001e6b0       $unwind$_openfile          00000001800516b0     libucrt:openfile.obj
 0002:0001e6c4       $unwind$__vcrt_initialize_winapi_thunks 00000001800516c4     libvcruntime:winapi_downlevel.obj
 0002:0001e6c4       $unwind$__acrt_initialize_winapi_thunks 00000001800516c4     libucrt:winapi_thunks.obj
 0002:0001e6cc       $unwind$__acrt_is_interactive 00000001800516cc     libucrt:winapi_thunks.obj
 0002:0001e6e0       $unwind$_fcloseall         00000001800516e0     libucrt:closeall.obj
 0002:0001e704       $unwind$fflush             0000000180051704     libucrt:fflush.obj
 0002:0001e728       $unwind$common_flush_all   0000000180051728     libucrt:fflush.obj
 0002:0001e764       $unwind$__acrt_initialize_lowio 0000000180051764     libucrt:ioinit.obj
 0002:0001e784       $unwind$?initialize_inherited_file_handles_nolock@@YAXXZ 0000000180051784     libucrt:ioinit.obj
 0002:0001e7a0       $unwind$??$?RV<lambda_bfedae4ebbf01fab1bb6dcc6a9e276e0>@@AEAV<lambda_2fe9b910cf3cbf4a0ab98a02ba45b3ec>@@V<lambda_237c231691f317818eb88cc1d5d642d6>@@@?$__crt_seh_guarded_call@H@@QEAAH$$QEAV<lambda_bfedae4ebbf01fab1bb6dcc6a9e276e0>@@AEAV<lambda_2fe9b910cf3cbf4a0ab98a02ba45b3ec>@@$$QEAV<lambda_237c231691f317818eb88cc1d5d642d6>@@@Z 00000001800517a0     libucrt:close.obj
 0002:0001e7c4       $unwind$_tolower_l         00000001800517c4     libucrt:tolower_toupper.obj
 0002:0001e7d4       $unwind$_wctomb_s_l        00000001800517d4     libucrt:wctomb.obj
 0002:0001e7e4       $unwind$wcsnlen            00000001800517e4     libucrt:strnlen.obj
 0002:0001e7e4       $unwind$strnlen            00000001800517e4     libucrt:strnlen.obj
 0002:0001e7ec       $unwind$__acrt_fp_format   00000001800517ec     libucrt:cvt.obj
 0002:0001e808       $unwind$?fp_format_nan_or_infinity@@YAHW4__acrt_fp_class@@_NPEAD_K1@Z 0000000180051808     libucrt:cvt.obj
 0002:0001e81c       $unwind$?fp_format_e_internal@@YAHQEAD_KH_NIQEAU_strflt@@2QEAU__crt_locale_pointers@@@Z 000000018005181c     libucrt:cvt.obj
 0002:0001e834       $unwind$_sopen_nolock      0000000180051834     libucrt:open.obj
 0002:0001e834       $unwind$?fp_format_e@@YAHQEBNQEAD_K12H_NIQEAU__crt_locale_pointers@@@Z 0000000180051834     libucrt:cvt.obj
 0002:0001e848       $unwind$?fp_format_a@@YAHQEBNPEAD_KQEAD2H_NIQEAU__crt_locale_pointers@@@Z 0000000180051848     libucrt:cvt.obj
 0002:0001e864       $unwind$?fp_format_g@@YAHQEBNQEAD_K12H_NIQEAU__crt_locale_pointers@@@Z 0000000180051864     libucrt:cvt.obj
 0002:0001e878       $unwind$_fputwc_nolock     0000000180051878     libucrt:fputwc.obj
 0002:0001e894       $unwind$__acrt_uninitialize_locale 0000000180051894     libucrt:wsetlocale.obj
 0002:0001e8b4       $unwind$_mbtowc_l          00000001800518b4     libucrt:mbtowc.obj
 0002:0001e8b4       $unwind$__acrt_CompareStringEx 00000001800518b4     libucrt:winapi_thunks.obj
 0002:0001e8b4       $unwind$__acrt_show_wide_message_box 00000001800518b4     libucrt:crtmbox.obj
 0002:0001e8b4       $unwind$__acrt_LCMapStringEx 00000001800518b4     libucrt:winapi_thunks.obj
 0002:0001e8cc       $unwind$setvbuf            00000001800518cc     libucrt:setvbuf.obj
 0002:0001e8d4       $unwind$??$?RV<lambda_7a5ef57ff966f610505f1d28a3d40618>@@AEAV<lambda_b721fa326cdb32351d23dfa67958c160>@@V<lambda_5e0fb27672408a07956fe59e48ccb2aa>@@@?$__crt_seh_guarded_call@H@@QEAAH$$QEAV<lambda_7a5ef57ff966f610505f1d28a3d40618>@@AEAV<lambda_b721fa326cdb32351d23dfa67958c160>@@$$QEAV<lambda_5e0fb27672408a07956fe59e48ccb2aa>@@@Z 00000001800518d4     libucrt:setvbuf.obj
 0002:0001e8f8       $unwind$__acrt_get_sigabrt_handler 00000001800518f8     libucrt:signal.obj
 0002:0001e900       $unwind$raise              0000000180051900     libucrt:signal.obj
 0002:0001e92c       $unwind$??$?RV<lambda_c36588078e9f5dfd39652860aa6b3aaf>@@AEAV<lambda_ec61778202f4f5fc7e7711acc23c3bca>@@V<lambda_dc9d2797ccde5d239b4a0efae8ebd7db>@@@?$__crt_seh_guarded_call@P6AXH@Z@@QEAAP6AXH@Z$$QEAV<lambda_c36588078e9f5dfd39652860aa6b3aaf>@@AEAV<lambda_ec61778202f4f5fc7e7711acc23c3bca>@@$$QEAV<lambda_dc9d2797ccde5d239b4a0efae8ebd7db>@@@Z 000000018005192c     libucrt:signal.obj
 0002:0001e950       $unwind$_strnicoll_l       0000000180051950     libucrt:strnicol.obj
 0002:0001e964       $unwind$??$common_expand_argv_wildcards@D@@YAHQEAPEADQEAPEAPEAD@Z 0000000180051964     libucrt:argv_wildcards.obj
 0002:0001e97c       $unwind$??$copy_and_add_argument_to_buffer@D@@YAHQEBD0_KAEAV?$argument_list@D@?A0xca0879c4@@@Z 000000018005197c     libucrt:argv_wildcards.obj
 0002:0001e998       $unwind$??$expand_argument_wildcards@D@@YAHQEAD0AEAV?$argument_list@D@?A0xca0879c4@@@Z 0000000180051998     libucrt:argv_wildcards.obj
 0002:0001e9b8       $unwind$__acrt_update_thread_multibyte_data 00000001800519b8     libucrt:mbctype.obj
 0002:0001e9dc       $unwind$_setmbcp_nolock    00000001800519dc     libucrt:mbctype.obj
 0002:0001e9fc       $unwind$?setSBUpLow@@YAXPEAU__crt_multibyte_data@@@Z 00000001800519fc     libucrt:mbctype.obj
 0002:0001ea18       $unwind$?setmbcp_internal@@YAHH_N@Z 0000000180051a18     libucrt:mbctype.obj
 0002:0001ea28       $unwind$??$?RV<lambda_99476a1ad63dd22509b5d3e65b0ffc95>@@AEAV<lambda_ad1ced32f4ac17aa236e5ef05d6b3b7c>@@V<lambda_f7424dd8d45958661754dc4f2697e9c3>@@@?$__crt_seh_guarded_call@X@@QEAAX$$QEAV<lambda_99476a1ad63dd22509b5d3e65b0ffc95>@@AEAV<lambda_ad1ced32f4ac17aa236e5ef05d6b3b7c>@@$$QEAV<lambda_f7424dd8d45958661754dc4f2697e9c3>@@@Z 0000000180051a28     libucrt:mbctype.obj
 0002:0001ea4c       $unwind$__dcrt_get_narrow_environment_from_os 0000000180051a4c     libucrt:get_environment_from_os.obj
 0002:0001ea4c       $unwind$?fp_format_f_internal@@YAHQEAD_KHQEAU_strflt@@_NQEAU__crt_locale_pointers@@@Z 0000000180051a4c     libucrt:cvt.obj
 0002:0001ea64       $unwind$??$common_set_variable_in_environment_nolock@D@@YAHQEADH@Z 0000000180051a64     libucrt:setenv.obj
 0002:0001ea7c       $unwind$??$copy_environment@D@@YAPEAPEADQEAPEAD@Z 0000000180051a7c     libucrt:setenv.obj
 0002:0001ea90       $unwind$iswctype           0000000180051a90     libucrt:iswctype.obj
 0002:0001ea90       $unwind$__acrt_is_packaged_app 0000000180051a90     libucrt:winapi_thunks.obj
 0002:0001ea9c       $unwind$_isctype_l         0000000180051a9c     libucrt:isctype.obj
 0002:0001eab8       $unwind$__acrt_update_thread_locale_data 0000000180051ab8     libucrt:locale_refcounting.obj
 0002:0001eae0       $xdatasym                  0000000180051ae0     libucrt:strncmp.obj
 0002:0001eae4       $unwind$_strnicmp_l        0000000180051ae4     libucrt:strnicmp.obj
 0002:0001eae4       $unwind$?__SehTransFilter@@YAHPEAU_EXCEPTION_POINTERS@@PEAUEHExceptionRecord@@PEA_KPEAU_CONTEXT@@PEAU_xDISPATCHER_CONTEXT@@PEBU_s_FuncInfo@@PEAH@Z 0000000180051ae4     libvcruntime:trnsctrl.obj
 0002:0001eaf8       $unwind$_wsopen_nolock     0000000180051af8     libucrt:open.obj
 0002:0001eb14       $unwind$??$common_sopen_dispatch@D@@YAHQEBDHHHQEAHH@Z 0000000180051b14     libucrt:open.obj
 0002:0001eb38       $unwind$_CallSETranslator$filt$0 0000000180051b38     libvcruntime:trnsctrl.obj
 0002:0001eb38       $unwind$?fin$0@?0???$common_sopen_dispatch@D@@YAHQEBDHHHQEAHH@Z@4HA 0000000180051b38     libucrt:open.obj
 0002:0001eb40       $unwind$?decode_options@@YA?AUfile_options@?A0x656cf9f4@@HHH@Z 0000000180051b40     libucrt:open.obj
 0002:0001eb54       $unwind$?GetTableIndexFromLocaleName@@YAHPEB_W@Z 0000000180051b54     libucrt:lcidtoname_downlevel.obj
 0002:0001eb6c       $unwind$_close             0000000180051b6c     libucrt:close.obj
 0002:0001eb6c       $unwind$_commit            0000000180051b6c     libucrt:commit.obj
 0002:0001eb74       $unwind$??$?RV<lambda_b521505b218e5242e90febf6bfebc422>@@AEAV<lambda_6978c1fb23f02e42e1d9e99668cc68aa>@@V<lambda_314360699dd331753a4119843814e9a7>@@@?$__crt_seh_guarded_call@H@@QEAAH$$QEAV<lambda_b521505b218e5242e90febf6bfebc422>@@AEAV<lambda_6978c1fb23f02e42e1d9e99668cc68aa>@@$$QEAV<lambda_314360699dd331753a4119843814e9a7>@@@Z 0000000180051b74     libucrt:commit.obj
 0002:0001eb98       $unwind$_write             0000000180051b98     libucrt:write.obj
 0002:0001ebc8       $unwind$_write_nolock      0000000180051bc8     libucrt:write.obj
 0002:0001ebe0       $unwind$?write_double_translated_ansi_nolock@@YA?AUwrite_result@?A0x9c548279@@HQEBDI@Z 0000000180051be0     libucrt:write.obj
 0002:0001ec00       $unwind$?write_text_ansi_nolock@@YA?AUwrite_result@?A0x9c548279@@HQEBDI@Z 0000000180051c00     libucrt:write.obj
 0002:0001ec00       $unwind$?write_text_utf16le_nolock@@YA?AUwrite_result@?A0x9c548279@@HQEBDI@Z 0000000180051c00     libucrt:write.obj
 0002:0001ec20       $unwind$?write_text_utf8_nolock@@YA?AUwrite_result@?A0x9c548279@@HQEBDI@Z 0000000180051c20     libucrt:write.obj
 0002:0001ec44       $unwind$_alloc_osfhnd      0000000180051c44     libucrt:osfinfo.obj
 0002:0001ec74       $unwind$__acrt_lowio_destroy_handle_array 0000000180051c74     libucrt:osfinfo.obj
 0002:0001ec84       $unwind$__acrt_lowio_ensure_fh_exists 0000000180051c84     libucrt:osfinfo.obj
 0002:0001ecb0       $unwind$_isleadbyte_l      0000000180051cb0     libucrt:_wctype.obj
 0002:0001ecb0       $unwind$?getSystemCP@@YAHH@Z 0000000180051cb0     libucrt:mbctype.obj
 0002:0001ecb0       $unwind$isdigit            0000000180051cb0     libucrt:_ctype.obj
 0002:0001ecb0       $unwind$?_TlgWrite@__vcrt_trace_logging_provider@@YAJPEBU_TlgProvider_t@1@PEFBXPEBU_GUID@@2IPEAU_EVENT_DATA_DESCRIPTOR@@@Z 0000000180051cb0     libvcruntime:telemetry.obj
 0002:0001ecb8       $unwind$__acrt_LCMapStringA 0000000180051cb8     libucrt:lcmapstringa.obj
 0002:0001ecc8       $unwind$?__acrt_LCMapStringA_stat@@YAHPEAU__crt_locale_pointers@@PEB_WKPEBDHPEADHHH@Z 0000000180051cc8     libucrt:lcmapstringa.obj
 0002:0001ecf0       $unwind$__acrt_fltout      0000000180051cf0     libucrt:cfout.obj
 0002:0001ed10       $unwind$?divide@__crt_strtox@@YA_KAEAUbig_integer@1@AEBU21@@Z 0000000180051d10     libucrt:cfout.obj
 0002:0001ed30       $chain$5$?divide@__crt_strtox@@YA_KAEAUbig_integer@1@AEBU21@@Z 0000000180051d30     libucrt:cfout.obj
 0002:0001ed44       $chain$6$?divide@__crt_strtox@@YA_KAEAUbig_integer@1@AEBU21@@Z 0000000180051d44     libucrt:cfout.obj
 0002:0001ed54       $unwind$??$write_buffer_nolock@D@@YA_NDV__crt_stdio_stream@@@Z 0000000180051d54     libucrt:_flsbuf.obj
 0002:0001ed64       $unwind$??$write_buffer_nolock@_W@@YA_N_WV__crt_stdio_stream@@@Z 0000000180051d64     libucrt:_flsbuf.obj
 0002:0001ed74       $unwind$__acrt_locale_free_monetary 0000000180051d74     libucrt:initmon.obj
 0002:0001ed7c       $unwind$__acrt_locale_free_time 0000000180051d7c     libucrt:inittime.obj
 0002:0001ed8c       $unwind$__acrt_GetStringTypeA 0000000180051d8c     libucrt:getstringtypea.obj
 0002:0001edb4       $unwind$__acrt_CompareStringA 0000000180051db4     libucrt:comparestringa.obj
 0002:0001edc4       $unwind$?InternalCompareStringA@@YAHPEAU__crt_locale_pointers@@PEB_WKPEBDH2HH@Z 0000000180051dc4     libucrt:comparestringa.obj
 0002:0001ede8       $unwind$qsort              0000000180051de8     libucrt:qsort.obj
 0002:0001ee00       $chain$4$qsort             0000000180051e00     libucrt:qsort.obj
 0002:0001ee24       $chain$5$qsort             0000000180051e24     libucrt:qsort.obj
 0002:0001ee34       $unwind$?shortsort@@YAXPEAD0_KP6AHPEBX2@Z@Z 0000000180051e34     libucrt:qsort.obj
 0002:0001ee44       $chain$2$?shortsort@@YAXPEAD0_KP6AHPEBX2@Z@Z 0000000180051e44     libucrt:qsort.obj
 0002:0001ee60       $chain$3$?shortsort@@YAXPEAD0_KP6AHPEBX2@Z@Z 0000000180051e60     libucrt:qsort.obj
 0002:0001ee70       $unwind$strpbrk            0000000180051e70     libucrt:strpbrk.obj
 0002:0001ee80       $unwind$_mbsdec_l          0000000180051e80     libucrt:mbsdec.obj
 0002:0001ee8c       $unwind$_setmode_nolock    0000000180051e8c     libucrt:setmode.obj
 0002:0001ee9c       $unwind$_read_nolock       0000000180051e9c     libucrt:read.obj
 0002:0001eeb4       $unwind$?translate_ansi_or_utf8_nolock@@YAHHQEAD_KQEA_W1@Z 0000000180051eb4     libucrt:read.obj
 0002:0001eecc       $unwind$??$translate_text_mode_nolock@_W@@YAHHQEA_W_K@Z 0000000180051ecc     libucrt:read.obj
 0002:0001eee4       $unwind$??$common_lseek@_J@@YA_JH_JH@Z 0000000180051ee4     libucrt:lseek.obj
 0002:0001ef14       $unwind$_putwch_nolock     0000000180051f14     libucrt:putwch.obj
 0002:0001ef14       $unwind$__report_gsfailure 0000000180051f14     LIBCMT:gs_report.obj
 0002:0001ef20       $xdatasym                  0000000180051f20     libucrt:log10.obj
 0002:0001ef2c       $unwind$common_control87   0000000180051f2c     libucrt:ieee.obj
 0002:0001ef5c       $unwind$_call_matherr      0000000180051f5c     libucrt:libm_error.obj
 0002:0001ef64       $unwind$_handle_errorf     0000000180051f64     libucrt:libm_error.obj
 0002:0001ef64       $unwind$_handle_error      0000000180051f64     libucrt:libm_error.obj
 0002:0001ef84       $unwind$__acrt_initialize_fma3 0000000180051f84     libucrt:fma3_available.obj
 0002:0001ef8c       $unwind$_expf_special      0000000180051f8c     libucrt:exp_special.obj
 0002:0001ef8c       $unwind$_log_special_common 0000000180051f8c     libucrt:log_special.obj
 0002:0001ef98       $xdatasym                  0000000180051f98     libucrt:fpsr.obj
 0002:0001efa0       $unwind$_raise_exc_ex      0000000180051fa0     libucrt:fpexcept.obj
 0002:0001efb4       $unwind$_ctrlfp            0000000180051fb4     libucrt:fpctrl.obj
 0002:0001efdc       $unwind$?DloadObtainSection@@YAPEAXPEAK0@Z 0000000180051fdc     DelayImp:delayhlp.obj
 0002:0001efec       $unwind$?DloadMakePermanentImageCommit@@YAXPEAX_K@Z 0000000180051fec     DelayImp:delayhlp.obj
 0002:0001eff8       $unwind$?DloadProtectSection@@YAXKPEAK@Z 0000000180051ff8     DelayImp:delayhlp.obj
 0002:0001f008       $unwind$__delayLoadHelper2 0000000180052008     DelayImp:delayhlp.obj
 0002:0001f020       $unwind$_IsNonwritableInCurrentImage 0000000180052020     LIBCMT:pesect.obj
 0002:0001f044       $unwind$__GSHandlerCheckCommon 0000000180052044     LIBCMT:_gshandler_.obj
 0002:0001f050       $xdatasym                  0000000180052050     LIBCMT:_chkstk_.obj
 0002:0001f058       $unwind$strrchr            0000000180052058     libvcruntime:strrchr.obj
 0002:0001f058       $unwind$strchr             0000000180052058     libvcruntime:strchr.obj
 0002:0001f060       $xdatasym                  0000000180052060     libvcruntime:memcmp.obj
 0002:0001f068       $xdatasym                  0000000180052068     libucrt:cos.obj
 0002:0001f070       $xdatasym                  0000000180052070     libucrt:cosf.obj
 0002:0001f078       $xdatasym                  0000000180052078     libucrt:expf.obj
 0002:0001f080       $xdatasym                  0000000180052080     libucrt:powf.obj
 0002:0001f090       $xdatasym                  0000000180052090     libucrt:sin.obj
 0002:0001f098       $xdatasym                  0000000180052098     libucrt:sinf.obj
 0002:0001f0a0       $xdatasym                  00000001800520a0     libucrt:remainder_piby2_forasm.obj
 0002:0001f0b0       $xdatasym                  00000001800520b0     libucrt:remainder_piby2_forfma3.obj
 0002:0001f0c0       $xdatasym                  00000001800520c0     libucrt:remainder_piby2f_forasm.obj
 0002:0001f0c4       $unwind$_powf_special      00000001800520c4     libucrt:pow_special.obj
 0002:0001f0d8       $xdatasym                  00000001800520d8     libucrt:remainder_piby2f_forc.obj
 0002:000206b0       .edata                     00000001800536b0     lwip_image.exp
 0002:000206d8       rgpv                       00000001800536d8     lwip_image.exp
 0002:000206dc       rgszName                   00000001800536dc     lwip_image.exp
 0002:000206e0       rgwOrd                     00000001800536e0     lwip_image.exp
 0002:000206e2       szName                     00000001800536e2     lwip_image.exp
 0002:000206f2       $N00001                    00000001800536f2     lwip_image.exp
 0002:00020ac6       .idata$6                   0000000180053ac6     kernel32:KERNEL32.dll
 0002:00020aee       .idata$6                   0000000180053aee     shell32:SHELL32.dll
 0002:000210ea       .idata$6                   00000001800540ea     advapi32:ADVAPI32.dll
 0003:00000030       ?_Tlg_Microsoft_CRTProviderProv@@3U_TlgProvider_t@__vcrt_trace_logging_provider@@A 0000000180055030     libvcruntime:telemetry.obj
 0003:00000080       ?__vcrt_flsindex@@3KA      0000000180055080     libvcruntime:per_thread_data.obj
 0003:000001a4       __acrt_flsindex            00000001800551a4     libucrt:per_thread_data.obj
 0003:000001a8       errno_no_memory            00000001800551a8     libucrt:errno.obj
 0003:000001ac       doserrno_no_memory         00000001800551ac     libucrt:errno.obj
 0003:00000590       __rgctypeflag              0000000180055590     libucrt:mbctype.obj
 0003:000005a0       __rgcode_page_info         00000001800555a0     libucrt:mbctype.obj
 0003:00000a68       ?dazSupported@?1??common_control87@@9@9 0000000180055a68     libucrt:ieee.obj
 0003:00000a70       ?dazSupported@?1??_ctrlfp@@9@9 0000000180055a70     libucrt:fpctrl.obj
 0003:00000a90       _module                    0000000180055a90     init.obj
 0003:00000f08       ?_Tss_mutex@@3U_RTL_CRITICAL_SECTION@@A 0000000180055f08     LIBCMT:thread_safe_statics.obj
 0003:00000f30       ?_Tss_cv@@3U_RTL_CONDITION_VARIABLE@@A 0000000180055f30     LIBCMT:thread_safe_statics.obj
 0003:00000f38       ?_Tss_event@@3PEAXEA       0000000180055f38     LIBCMT:thread_safe_statics.obj
 0003:00000f40       ?encoded_sleep_condition_variable_cs@@3P6AHPEAU_RTL_CONDITION_VARIABLE@@PEAU_RTL_CRITICAL_SECTION@@K@ZEA 0000000180055f40     LIBCMT:thread_safe_statics.obj
 0003:00000f48       ?encoded_wake_all_condition_variable@@3P6AXPEAU_RTL_CONDITION_VARIABLE@@@ZEA 0000000180055f48     LIBCMT:thread_safe_statics.obj
 0003:00000f60       ?module_local_atexit_table@@3U_onexit_table_t@@A 0000000180055f60     LIBCMT:utility.obj
 0003:00000f78       ?module_local_at_quick_exit_table@@3U_onexit_table_t@@A 0000000180055f78     LIBCMT:utility.obj
 0003:00000f90       ?is_initialized_as_dll@@3_NA 0000000180055f90     LIBCMT:utility.obj
 0003:00000f94       ?__proc_attached@@3HA      0000000180055f94     LIBCMT:dll_dllmain.obj
 0003:00000fa0       GS_ExceptionRecord         0000000180055fa0     LIBCMT:gs_report.obj
 0003:00001040       GS_ContextRecord           0000000180056040     LIBCMT:gs_report.obj
 0003:00001540       ?module_handles@@3PAPEAUHINSTANCE__@@A 0000000180056540     libvcruntime:winapi_downlevel.obj
 0003:00001560       ?encoded_function_pointers@@3PAPEAXA 0000000180056560     libvcruntime:winapi_downlevel.obj
 0003:000015b0       ?__vcrt_startup_thread_ptd@@3U__vcrt_ptd@@A 00000001800565b0     libvcruntime:per_thread_data.obj
 0003:00001630       __vcrt_lock_table          0000000180056630     libvcruntime:locks.obj
 0003:00001658       __vcrt_locks_initialized   0000000180056658     libvcruntime:locks.obj
 0003:000016a8       ?heap@@3V_HeapManager@@A   00000001800566a8     libvcruntime:undname.obj
 0003:000016e8       __acrt_invalid_parameter_handler 00000001800566e8     libucrt:invalid_parameter.obj
 0003:000016f0       __acrt_new_handler         00000001800566f0     libucrt:new_handler.obj
 0003:000016f8       c_termination_complete     00000001800566f8     libucrt:exit.obj
 0003:00001700       thread_local_exit_callback_func 0000000180056700     libucrt:exit.obj
 0003:00001708       ?c_exit_complete@?5??common_exit@@YAXHW4_crt_exit_cleanup_mode@@W4_crt_exit_return_mode@@@Z@4_NA 0000000180056708     libucrt:exit.obj
 0003:00001710       ?program_name@?5???$common_configure_argv@D@@YAHW4_crt_argv_mode@@@Z@4PADA 0000000180056710     libucrt:argv_parsing.obj
 0003:00001870       module_handles             0000000180056870     libucrt:winapi_thunks.obj
 0003:00001910       encoded_function_pointers  0000000180056910     libucrt:winapi_thunks.obj
 0003:00001a10       ?state_cache@?1??__acrt_is_packaged_app@@9@4JA 0000000180056a10     libucrt:winapi_thunks.obj
 0003:00001e28       enable_percent_n           0000000180056e28     libucrt:printf_count_output.obj
 0003:00001e50       __acrt_app_type            0000000180056e50     libucrt:report_runtime_error.obj
 0003:00001e54       __acrt_error_mode          0000000180056e54     libucrt:set_error_mode.obj
 0003:00001e58       ctrlc_action               0000000180056e58     libucrt:signal.obj
 0003:00001e60       ctrlbreak_action           0000000180056e60     libucrt:signal.obj
 0003:00001e68       abort_action               0000000180056e68     libucrt:signal.obj
 0003:00001e70       term_action                0000000180056e70     libucrt:signal.obj
 0003:00001e80       __acrt_lock_table          0000000180056e80     libucrt:locks.obj
 0003:00002088       __acrt_locks_initialized   0000000180057088     libucrt:locks.obj
 0003:000020a4       fSystemSet                 00000001800570a4     libucrt:mbctype.obj
 0003:000020b0       ?initialized@?1??__acrt_initialize_multibyte@@9@4_NA 00000001800570b0     libucrt:mbctype.obj
 0003:000020e8       user_matherr               00000001800570e8     libucrt:matherr.obj
 0003:000020f0       __acrt_global_new_mode     00000001800570f0     libucrt:new_mode.obj
